(dp1
S'output'
p2
S"<type 'exceptions.SyntaxError'> keyword can't be an expression (member.py, line 17)"
p3
sS'layer'
p4
S'/home/kaique/Projects/web/big-votes/web2py/applications/bigvotes/controllers/member.py'
p5
sS'code'
p6
S"# -*- coding: utf-8 -*-\nfrom bigvotes import Members\n\ndef index():\n\tmembers = Members(db).getBy()\n\n\treturn {\n\t\t'members': members\n\t}\n\ndef profile():\n\targs = request.args\n\tmember = Members(db)\n\n\tif len( args ) > 0:\n\t\tmember = db(\n\t\t\tdb.member.id == int( args[0] ) and\n\t\t\tdb.member.status = 'active'\n\t\t).select().first()\n\n\treturn {\n\t\t'member': member\n\t}\n\ndef eliminated():\n\tmembers = Members(db).getBy(status = 'deactive')\n\n\treturn {\n\t\t'members': members\n\t}\nresponse._vars=response._caller(index)\n"
p7
sS'snapshot'
p8
(dp9
S'exception'
p10
(dp11
S'__getslice__'
p12
S"<method-wrapper '__getslice__' of exceptions.SyntaxError object>"
p13
sS'text'
p14
S"'db.member.id == int( args[0] ) and\\n'"
p15
sS'__str__'
p16
S"<method-wrapper '__str__' of exceptions.SyntaxError object>"
p17
sS'__reduce__'
p18
S'<built-in method __reduce__ of exceptions.SyntaxError object>'
p19
sS'__dict__'
p20
S'{}'
p21
sS'__sizeof__'
p22
S'<built-in method __sizeof__ of exceptions.SyntaxError object>'
p23
sS'__init__'
p24
S"<method-wrapper '__init__' of exceptions.SyntaxError object>"
p25
sS'__setattr__'
p26
S"<method-wrapper '__setattr__' of exceptions.SyntaxError object>"
p27
sS'__reduce_ex__'
p28
S'<built-in method __reduce_ex__ of exceptions.SyntaxError object>'
p29
sS'__new__'
p30
S'<built-in method __new__ of type object>'
p31
sS'__format__'
p32
S'<built-in method __format__ of exceptions.SyntaxError object>'
p33
sS'__class__'
p34
S"<type 'exceptions.SyntaxError'>"
p35
sS'filename'
p36
S"'/home/kaique/Projects/web/big-votes/web2py/applications/bigvotes/controllers/member.py'"
p37
sS'lineno'
p38
S'17'
p39
sS'msg'
p40
S'"keyword can\'t be an expression"'
p41
sS'__doc__'
p42
S"'Invalid syntax.'"
p43
sS'__getitem__'
p44
S"<method-wrapper '__getitem__' of exceptions.SyntaxError object>"
p45
sS'__setstate__'
p46
S'<built-in method __setstate__ of exceptions.SyntaxError object>'
p47
sS'__getattribute__'
p48
S"<method-wrapper '__getattribute__' of exceptions.SyntaxError object>"
p49
sS'print_file_and_line'
p50
S'None'
p51
sS'args'
p52
S'("keyword can\'t be an expression", (\'/home/kaique/Projects/web/big-votes/web2py/applications/bigvotes/controllers/member.py\', 17, None, \'db.member.id == int( args[0] ) and\\n\'))'
p53
sS'__subclasshook__'
p54
S'<built-in method __subclasshook__ of type object>'
p55
sS'offset'
p56
S'None'
p57
sS'__unicode__'
p58
S'<built-in method __unicode__ of exceptions.SyntaxError object>'
p59
sS'__delattr__'
p60
S"<method-wrapper '__delattr__' of exceptions.SyntaxError object>"
p61
sS'__repr__'
p62
S"<method-wrapper '__repr__' of exceptions.SyntaxError object>"
p63
sS'__hash__'
p64
S"<method-wrapper '__hash__' of exceptions.SyntaxError object>"
p65
ssS'evalue'
p66
S"keyword can't be an expression (member.py, line 17)"
p67
sS'request'
p68
ccopy_reg
_reconstructor
p69
(cgluon.html
BEAUTIFY
p70
c__builtin__
object
p71
NtRp72
(dp73
S'attributes'
p74
(dp75
sS'components'
p76
(lp77
g69
(cgluon.html
TABLE
p78
g71
NtRp79
(dp80
g74
(dp81
S'level'
p82
I5
ssS'parent'
p83
Nsg76
(lp84
g69
(cgluon.html
TR
p85
g71
NtRp86
(dp87
g74
(dp88
sg83
g79
sg76
(lp89
g69
(cgluon.html
TD
p90
g71
NtRp91
(dp92
g74
(dp93
S'_style'
p94
S'font-weight:bold;vertical-align:top'
p95
ssg83
g86
sg76
(lp96
S'ajax'
p97
asbag69
(g90
g71
NtRp98
(dp99
g74
(dp100
S'_valign'
p101
S'top'
p102
ssg83
g86
sg76
(lp103
S':'
asbag69
(g90
g71
NtRp104
(dp105
g74
(dp106
sg83
g86
sg76
(lp107
g69
(g70
g71
NtRp108
(dp109
g74
(dp110
g82
I5
ssg83
g104
sg76
(lp111
S'False'
p112
asbasbasbag69
(g85
g71
NtRp113
(dp114
g74
(dp115
sg83
g79
sg76
(lp116
g69
(g90
g71
NtRp117
(dp118
g74
(dp119
g94
g95
ssg83
g113
sg76
(lp120
S'application'
p121
asbag69
(g90
g71
NtRp122
(dp123
g74
(dp124
g101
g102
ssg83
g113
sg76
(lp125
S':'
asbag69
(g90
g71
NtRp126
(dp127
g74
(dp128
sg83
g113
sg76
(lp129
g69
(g70
g71
NtRp130
(dp131
g74
(dp132
g82
I5
ssg83
g126
sg76
(lp133
S'bigvotes'
p134
asbasbasbag69
(g85
g71
NtRp135
(dp136
g74
(dp137
sg83
g79
sg76
(lp138
g69
(g90
g71
NtRp139
(dp140
g74
(dp141
g94
g95
ssg83
g135
sg76
(lp142
g52
asbag69
(g90
g71
NtRp143
(dp144
g74
(dp145
g101
g102
ssg83
g135
sg76
(lp146
S':'
asbag69
(g90
g71
NtRp147
(dp148
g74
(dp149
sg83
g135
sg76
(lp150
g69
(g70
g71
NtRp151
(dp152
g74
(dp153
g82
I5
ssg83
g147
sg76
(lp154
g69
(g78
g71
NtRp155
(dp156
g74
(dp157
g82
I4
ssg83
Nsg76
(lp158
sbasbasbasbag69
(g85
g71
NtRp159
(dp160
g74
(dp161
sg83
g79
sg76
(lp162
g69
(g90
g71
NtRp163
(dp164
g74
(dp165
g94
g95
ssg83
g159
sg76
(lp166
S'body'
p167
asbag69
(g90
g71
NtRp168
(dp169
g74
(dp170
g101
g102
ssg83
g159
sg76
(lp171
S':'
asbag69
(g90
g71
NtRp172
(dp173
g74
(dp174
sg83
g159
sg76
(lp175
g69
(g70
g71
NtRp176
(dp177
g74
(dp178
g82
I5
ssg83
g172
sg76
(lp179
S'<cStringIO.StringO object at 0xb0202d40>'
p180
asbasbasbag69
(g85
g71
NtRp181
(dp182
g74
(dp183
sg83
g79
sg76
(lp184
g69
(g90
g71
NtRp185
(dp186
g74
(dp187
g94
g95
ssg83
g181
sg76
(lp188
S'client'
p189
asbag69
(g90
g71
NtRp190
(dp191
g74
(dp192
g101
g102
ssg83
g181
sg76
(lp193
S':'
asbag69
(g90
g71
NtRp194
(dp195
g74
(dp196
sg83
g181
sg76
(lp197
g69
(g70
g71
NtRp198
(dp199
g74
(dp200
g82
I5
ssg83
g194
sg76
(lp201
S'127.0.0.1'
p202
asbasbasbag69
(g85
g71
NtRp203
(dp204
g74
(dp205
sg83
g79
sg76
(lp206
g69
(g90
g71
NtRp207
(dp208
g74
(dp209
g94
g95
ssg83
g203
sg76
(lp210
S'controller'
p211
asbag69
(g90
g71
NtRp212
(dp213
g74
(dp214
g101
g102
ssg83
g203
sg76
(lp215
S':'
asbag69
(g90
g71
NtRp216
(dp217
g74
(dp218
sg83
g203
sg76
(lp219
g69
(g70
g71
NtRp220
(dp221
g74
(dp222
g82
I5
ssg83
g216
sg76
(lp223
S'member'
p224
asbasbasbag69
(g85
g71
NtRp225
(dp226
g74
(dp227
sg83
g79
sg76
(lp228
g69
(g90
g71
NtRp229
(dp230
g74
(dp231
g94
g95
ssg83
g225
sg76
(lp232
S'cookies'
p233
asbag69
(g90
g71
NtRp234
(dp235
g74
(dp236
g101
g102
ssg83
g225
sg76
(lp237
S':'
asbag69
(g90
g71
NtRp238
(dp239
g74
(dp240
sg83
g225
sg76
(lp241
g69
(g70
g71
NtRp242
(dp243
g74
(dp244
g82
I5
ssg83
g238
sg76
(lp245
g69
(g78
g71
NtRp246
(dp247
g74
(dp248
g82
I4
ssg83
Nsg76
(lp249
g69
(g85
g71
NtRp250
(dp251
g74
(dp252
sg83
g246
sg76
(lp253
g69
(g90
g71
NtRp254
(dp255
g74
(dp256
g94
g95
ssg83
g250
sg76
(lp257
S'session_id_admin'
p258
asbag69
(g90
g71
NtRp259
(dp260
g74
(dp261
g101
g102
ssg83
g250
sg76
(lp262
S':'
asbag69
(g90
g71
NtRp263
(dp264
g74
(dp265
sg83
g250
sg76
(lp266
g69
(g70
g71
NtRp267
(dp268
g74
(dp269
g82
I4
ssg83
g263
sg76
(lp270
g69
(g78
g71
NtRp271
(dp272
g74
(dp273
g82
I3
ssg83
Nsg76
(lp274
g69
(g85
g71
NtRp275
(dp276
g74
(dp277
sg83
g271
sg76
(lp278
g69
(g90
g71
NtRp279
(dp280
g74
(dp281
g94
g95
ssg83
g275
sg76
(lp282
S'comment'
p283
asbag69
(g90
g71
NtRp284
(dp285
g74
(dp286
g101
g102
ssg83
g275
sg76
(lp287
S':'
asbag69
(g90
g71
NtRp288
(dp289
g74
(dp290
sg83
g275
sg76
(lp291
g69
(g70
g71
NtRp292
(dp293
g74
(dp294
g82
I3
ssg83
g288
sg76
(lp295
S''
asbasbasbag69
(g85
g71
NtRp296
(dp297
g74
(dp298
sg83
g271
sg76
(lp299
g69
(g90
g71
NtRp300
(dp301
g74
(dp302
g94
g95
ssg83
g296
sg76
(lp303
S'domain'
p304
asbag69
(g90
g71
NtRp305
(dp306
g74
(dp307
g101
g102
ssg83
g296
sg76
(lp308
S':'
asbag69
(g90
g71
NtRp309
(dp310
g74
(dp311
sg83
g296
sg76
(lp312
g69
(g70
g71
NtRp313
(dp314
g74
(dp315
g82
I3
ssg83
g309
sg76
(lp316
S''
asbasbasbag69
(g85
g71
NtRp317
(dp318
g74
(dp319
sg83
g271
sg76
(lp320
g69
(g90
g71
NtRp321
(dp322
g74
(dp323
g94
g95
ssg83
g317
sg76
(lp324
S'expires'
p325
asbag69
(g90
g71
NtRp326
(dp327
g74
(dp328
g101
g102
ssg83
g317
sg76
(lp329
S':'
asbag69
(g90
g71
NtRp330
(dp331
g74
(dp332
sg83
g317
sg76
(lp333
g69
(g70
g71
NtRp334
(dp335
g74
(dp336
g82
I3
ssg83
g330
sg76
(lp337
S''
asbasbasbag69
(g85
g71
NtRp338
(dp339
g74
(dp340
sg83
g271
sg76
(lp341
g69
(g90
g71
NtRp342
(dp343
g74
(dp344
g94
g95
ssg83
g338
sg76
(lp345
S'httponly'
p346
asbag69
(g90
g71
NtRp347
(dp348
g74
(dp349
g101
g102
ssg83
g338
sg76
(lp350
S':'
asbag69
(g90
g71
NtRp351
(dp352
g74
(dp353
sg83
g338
sg76
(lp354
g69
(g70
g71
NtRp355
(dp356
g74
(dp357
g82
I3
ssg83
g351
sg76
(lp358
S''
asbasbasbag69
(g85
g71
NtRp359
(dp360
g74
(dp361
sg83
g271
sg76
(lp362
g69
(g90
g71
NtRp363
(dp364
g74
(dp365
g94
g95
ssg83
g359
sg76
(lp366
S'max-age'
p367
asbag69
(g90
g71
NtRp368
(dp369
g74
(dp370
g101
g102
ssg83
g359
sg76
(lp371
S':'
asbag69
(g90
g71
NtRp372
(dp373
g74
(dp374
sg83
g359
sg76
(lp375
g69
(g70
g71
NtRp376
(dp377
g74
(dp378
g82
I3
ssg83
g372
sg76
(lp379
S''
asbasbasbag69
(g85
g71
NtRp380
(dp381
g74
(dp382
sg83
g271
sg76
(lp383
g69
(g90
g71
NtRp384
(dp385
g74
(dp386
g94
g95
ssg83
g380
sg76
(lp387
S'path'
p388
asbag69
(g90
g71
NtRp389
(dp390
g74
(dp391
g101
g102
ssg83
g380
sg76
(lp392
S':'
asbag69
(g90
g71
NtRp393
(dp394
g74
(dp395
sg83
g380
sg76
(lp396
g69
(g70
g71
NtRp397
(dp398
g74
(dp399
g82
I3
ssg83
g393
sg76
(lp400
S''
asbasbasbag69
(g85
g71
NtRp401
(dp402
g74
(dp403
sg83
g271
sg76
(lp404
g69
(g90
g71
NtRp405
(dp406
g74
(dp407
g94
g95
ssg83
g401
sg76
(lp408
S'secure'
p409
asbag69
(g90
g71
NtRp410
(dp411
g74
(dp412
g101
g102
ssg83
g401
sg76
(lp413
S':'
asbag69
(g90
g71
NtRp414
(dp415
g74
(dp416
sg83
g401
sg76
(lp417
g69
(g70
g71
NtRp418
(dp419
g74
(dp420
g82
I3
ssg83
g414
sg76
(lp421
S''
asbasbasbag69
(g85
g71
NtRp422
(dp423
g74
(dp424
sg83
g271
sg76
(lp425
g69
(g90
g71
NtRp426
(dp427
g74
(dp428
g94
g95
ssg83
g422
sg76
(lp429
S'version'
p430
asbag69
(g90
g71
NtRp431
(dp432
g74
(dp433
g101
g102
ssg83
g422
sg76
(lp434
S':'
asbag69
(g90
g71
NtRp435
(dp436
g74
(dp437
sg83
g422
sg76
(lp438
g69
(g70
g71
NtRp439
(dp440
g74
(dp441
g82
I3
ssg83
g435
sg76
(lp442
S''
asbasbasbasbasbasbasbag69
(g85
g71
NtRp443
(dp444
g74
(dp445
sg83
g246
sg76
(lp446
g69
(g90
g71
NtRp447
(dp448
g74
(dp449
g94
g95
ssg83
g443
sg76
(lp450
S'session_id_bigvotes'
p451
asbag69
(g90
g71
NtRp452
(dp453
g74
(dp454
g101
g102
ssg83
g443
sg76
(lp455
S':'
asbag69
(g90
g71
NtRp456
(dp457
g74
(dp458
sg83
g443
sg76
(lp459
g69
(g70
g71
NtRp460
(dp461
g74
(dp462
g82
I4
ssg83
g456
sg76
(lp463
g69
(g78
g71
NtRp464
(dp465
g74
(dp466
g82
I3
ssg83
Nsg76
(lp467
g69
(g85
g71
NtRp468
(dp469
g74
(dp470
sg83
g464
sg76
(lp471
g69
(g90
g71
NtRp472
(dp473
g74
(dp474
g94
g95
ssg83
g468
sg76
(lp475
g283
asbag69
(g90
g71
NtRp476
(dp477
g74
(dp478
g101
g102
ssg83
g468
sg76
(lp479
S':'
asbag69
(g90
g71
NtRp480
(dp481
g74
(dp482
sg83
g468
sg76
(lp483
g69
(g70
g71
NtRp484
(dp485
g74
(dp486
g82
I3
ssg83
g480
sg76
(lp487
S''
asbasbasbag69
(g85
g71
NtRp488
(dp489
g74
(dp490
sg83
g464
sg76
(lp491
g69
(g90
g71
NtRp492
(dp493
g74
(dp494
g94
g95
ssg83
g488
sg76
(lp495
g304
asbag69
(g90
g71
NtRp496
(dp497
g74
(dp498
g101
g102
ssg83
g488
sg76
(lp499
S':'
asbag69
(g90
g71
NtRp500
(dp501
g74
(dp502
sg83
g488
sg76
(lp503
g69
(g70
g71
NtRp504
(dp505
g74
(dp506
g82
I3
ssg83
g500
sg76
(lp507
S''
asbasbasbag69
(g85
g71
NtRp508
(dp509
g74
(dp510
sg83
g464
sg76
(lp511
g69
(g90
g71
NtRp512
(dp513
g74
(dp514
g94
g95
ssg83
g508
sg76
(lp515
g325
asbag69
(g90
g71
NtRp516
(dp517
g74
(dp518
g101
g102
ssg83
g508
sg76
(lp519
S':'
asbag69
(g90
g71
NtRp520
(dp521
g74
(dp522
sg83
g508
sg76
(lp523
g69
(g70
g71
NtRp524
(dp525
g74
(dp526
g82
I3
ssg83
g520
sg76
(lp527
S''
asbasbasbag69
(g85
g71
NtRp528
(dp529
g74
(dp530
sg83
g464
sg76
(lp531
g69
(g90
g71
NtRp532
(dp533
g74
(dp534
g94
g95
ssg83
g528
sg76
(lp535
g346
asbag69
(g90
g71
NtRp536
(dp537
g74
(dp538
g101
g102
ssg83
g528
sg76
(lp539
S':'
asbag69
(g90
g71
NtRp540
(dp541
g74
(dp542
sg83
g528
sg76
(lp543
g69
(g70
g71
NtRp544
(dp545
g74
(dp546
g82
I3
ssg83
g540
sg76
(lp547
S''
asbasbasbag69
(g85
g71
NtRp548
(dp549
g74
(dp550
sg83
g464
sg76
(lp551
g69
(g90
g71
NtRp552
(dp553
g74
(dp554
g94
g95
ssg83
g548
sg76
(lp555
g367
asbag69
(g90
g71
NtRp556
(dp557
g74
(dp558
g101
g102
ssg83
g548
sg76
(lp559
S':'
asbag69
(g90
g71
NtRp560
(dp561
g74
(dp562
sg83
g548
sg76
(lp563
g69
(g70
g71
NtRp564
(dp565
g74
(dp566
g82
I3
ssg83
g560
sg76
(lp567
S''
asbasbasbag69
(g85
g71
NtRp568
(dp569
g74
(dp570
sg83
g464
sg76
(lp571
g69
(g90
g71
NtRp572
(dp573
g74
(dp574
g94
g95
ssg83
g568
sg76
(lp575
g388
asbag69
(g90
g71
NtRp576
(dp577
g74
(dp578
g101
g102
ssg83
g568
sg76
(lp579
S':'
asbag69
(g90
g71
NtRp580
(dp581
g74
(dp582
sg83
g568
sg76
(lp583
g69
(g70
g71
NtRp584
(dp585
g74
(dp586
g82
I3
ssg83
g580
sg76
(lp587
S''
asbasbasbag69
(g85
g71
NtRp588
(dp589
g74
(dp590
sg83
g464
sg76
(lp591
g69
(g90
g71
NtRp592
(dp593
g74
(dp594
g94
g95
ssg83
g588
sg76
(lp595
g409
asbag69
(g90
g71
NtRp596
(dp597
g74
(dp598
g101
g102
ssg83
g588
sg76
(lp599
S':'
asbag69
(g90
g71
NtRp600
(dp601
g74
(dp602
sg83
g588
sg76
(lp603
g69
(g70
g71
NtRp604
(dp605
g74
(dp606
g82
I3
ssg83
g600
sg76
(lp607
S''
asbasbasbag69
(g85
g71
NtRp608
(dp609
g74
(dp610
sg83
g464
sg76
(lp611
g69
(g90
g71
NtRp612
(dp613
g74
(dp614
g94
g95
ssg83
g608
sg76
(lp615
g430
asbag69
(g90
g71
NtRp616
(dp617
g74
(dp618
g101
g102
ssg83
g608
sg76
(lp619
S':'
asbag69
(g90
g71
NtRp620
(dp621
g74
(dp622
sg83
g608
sg76
(lp623
g69
(g70
g71
NtRp624
(dp625
g74
(dp626
g82
I3
ssg83
g620
sg76
(lp627
S''
asbasbasbasbasbasbasbasbasbasbasbag69
(g85
g71
NtRp628
(dp629
g74
(dp630
sg83
g79
sg76
(lp631
g69
(g90
g71
NtRp632
(dp633
g74
(dp634
g94
g95
ssg83
g628
sg76
(lp635
S'env'
p636
asbag69
(g90
g71
NtRp637
(dp638
g74
(dp639
g101
g102
ssg83
g628
sg76
(lp640
S':'
asbag69
(g90
g71
NtRp641
(dp642
g74
(dp643
sg83
g628
sg76
(lp644
g69
(g70
g71
NtRp645
(dp646
g74
(dp647
g82
I5
ssg83
g641
sg76
(lp648
g69
(g78
g71
NtRp649
(dp650
g74
(dp651
g82
I4
ssg83
Nsg76
(lp652
g69
(g85
g71
NtRp653
(dp654
g74
(dp655
sg83
g649
sg76
(lp656
g69
(g90
g71
NtRp657
(dp658
g74
(dp659
g94
g95
ssg83
g653
sg76
(lp660
S'app_folders'
p661
asbag69
(g90
g71
NtRp662
(dp663
g74
(dp664
g101
g102
ssg83
g653
sg76
(lp665
S':'
asbag69
(g90
g71
NtRp666
(dp667
g74
(dp668
sg83
g653
sg76
(lp669
g69
(g70
g71
NtRp670
(dp671
g74
(dp672
g82
I4
ssg83
g666
sg76
(lp673
S"set(['/home/kaique/Projects/web/big-votes/web2py/applications/bigvotes/'])"
p674
asbasbasbag69
(g85
g71
NtRp675
(dp676
g74
(dp677
sg83
g649
sg76
(lp678
g69
(g90
g71
NtRp679
(dp680
g74
(dp681
g94
g95
ssg83
g675
sg76
(lp682
S'applications_parent'
p683
asbag69
(g90
g71
NtRp684
(dp685
g74
(dp686
g101
g102
ssg83
g675
sg76
(lp687
S':'
asbag69
(g90
g71
NtRp688
(dp689
g74
(dp690
sg83
g675
sg76
(lp691
g69
(g70
g71
NtRp692
(dp693
g74
(dp694
g82
I4
ssg83
g688
sg76
(lp695
S'/home/kaique/Projects/web/big-votes/web2py'
p696
asbasbasbag69
(g85
g71
NtRp697
(dp698
g74
(dp699
sg83
g649
sg76
(lp700
g69
(g90
g71
NtRp701
(dp702
g74
(dp703
g94
g95
ssg83
g697
sg76
(lp704
S'cmd_args'
p705
asbag69
(g90
g71
NtRp706
(dp707
g74
(dp708
g101
g102
ssg83
g697
sg76
(lp709
S':'
asbag69
(g90
g71
NtRp710
(dp711
g74
(dp712
sg83
g697
sg76
(lp713
g69
(g70
g71
NtRp714
(dp715
g74
(dp716
g82
I4
ssg83
g710
sg76
(lp717
g69
(g78
g71
NtRp718
(dp719
g74
(dp720
g82
I3
ssg83
Nsg76
(lp721
sbasbasbasbag69
(g85
g71
NtRp722
(dp723
g74
(dp724
sg83
g649
sg76
(lp725
g69
(g90
g71
NtRp726
(dp727
g74
(dp728
g94
g95
ssg83
g722
sg76
(lp729
S'cmd_options'
p730
asbag69
(g90
g71
NtRp731
(dp732
g74
(dp733
g101
g102
ssg83
g722
sg76
(lp734
S':'
asbag69
(g90
g71
NtRp735
(dp736
g74
(dp737
sg83
g722
sg76
(lp738
g69
(g70
g71
NtRp739
(dp740
g74
(dp741
g82
I4
ssg83
g735
sg76
(lp742
S"<Values at 0xa39576c: {'verbose': False, 'ip': '127.0.0.1', 'shutdown_timeout': 5, 'taskbar': False, 'nocron': False, 'pid_filename': 'httpserver.pid', 'maxthreads': None, 'softcron': False, 'server_name': 'main', 'bpython': False, 'nogui': False, 'port': 8000, 'extcron': False, 'debuglevel': 30, 'test': None, 'folder': '/home/kaique/Projects/web/big-votes/web2py', 'config': '', 'import_models': False, 'winservice': '', 'shell': None, 'run': '', 'log_filename': 'httpserver.log', 'args': [''], 'socket_timeout': 5, 'ssl_ca_certificate': None, 'scheduler': None, 'profiler_filename': None, 'ssl_private_key': '', 'password': 'dev', 'request_queue_size': 5, 'ssl_certificate': '', 'cronjob': False, 'numthreads': None, 'quiet': False, 'interfaces': None, 'minthreads': None, 'timeout': 10, 'plain': False, 'nobanner': False}>"
p743
asbasbasbag69
(g85
g71
NtRp744
(dp745
g74
(dp746
sg83
g649
sg76
(lp747
g69
(g90
g71
NtRp748
(dp749
g74
(dp750
g94
g95
ssg83
g744
sg76
(lp751
S'db_sessions'
p752
asbag69
(g90
g71
NtRp753
(dp754
g74
(dp755
g101
g102
ssg83
g744
sg76
(lp756
S':'
asbag69
(g90
g71
NtRp757
(dp758
g74
(dp759
sg83
g744
sg76
(lp760
g69
(g70
g71
NtRp761
(dp762
g74
(dp763
g82
I4
ssg83
g757
sg76
(lp764
S'set([])'
p765
asbasbasbag69
(g85
g71
NtRp766
(dp767
g74
(dp768
sg83
g649
sg76
(lp769
g69
(g90
g71
NtRp770
(dp771
g74
(dp772
g94
g95
ssg83
g766
sg76
(lp773
S'debugging'
p774
asbag69
(g90
g71
NtRp775
(dp776
g74
(dp777
g101
g102
ssg83
g766
sg76
(lp778
S':'
asbag69
(g90
g71
NtRp779
(dp780
g74
(dp781
sg83
g766
sg76
(lp782
g69
(g70
g71
NtRp783
(dp784
g74
(dp785
g82
I4
ssg83
g779
sg76
(lp786
g112
asbasbasbag69
(g85
g71
NtRp787
(dp788
g74
(dp789
sg83
g649
sg76
(lp790
g69
(g90
g71
NtRp791
(dp792
g74
(dp793
g94
g95
ssg83
g787
sg76
(lp794
S'gluon_parent'
p795
asbag69
(g90
g71
NtRp796
(dp797
g74
(dp798
g101
g102
ssg83
g787
sg76
(lp799
S':'
asbag69
(g90
g71
NtRp800
(dp801
g74
(dp802
sg83
g787
sg76
(lp803
g69
(g70
g71
NtRp804
(dp805
g74
(dp806
g82
I4
ssg83
g800
sg76
(lp807
S'/home/kaique/Projects/web/big-votes/web2py'
p808
asbasbasbag69
(g85
g71
NtRp809
(dp810
g74
(dp811
sg83
g649
sg76
(lp812
g69
(g90
g71
NtRp813
(dp814
g74
(dp815
g94
g95
ssg83
g809
sg76
(lp816
S'http_accept'
p817
asbag69
(g90
g71
NtRp818
(dp819
g74
(dp820
g101
g102
ssg83
g809
sg76
(lp821
S':'
asbag69
(g90
g71
NtRp822
(dp823
g74
(dp824
sg83
g809
sg76
(lp825
g69
(g70
g71
NtRp826
(dp827
g74
(dp828
g82
I4
ssg83
g822
sg76
(lp829
S'text/html,application/xhtml+xml,application/xml;q=0.9,*/*;q=0.8'
p830
asbasbasbag69
(g85
g71
NtRp831
(dp832
g74
(dp833
sg83
g649
sg76
(lp834
g69
(g90
g71
NtRp835
(dp836
g74
(dp837
g94
g95
ssg83
g831
sg76
(lp838
S'http_accept_encoding'
p839
asbag69
(g90
g71
NtRp840
(dp841
g74
(dp842
g101
g102
ssg83
g831
sg76
(lp843
S':'
asbag69
(g90
g71
NtRp844
(dp845
g74
(dp846
sg83
g831
sg76
(lp847
g69
(g70
g71
NtRp848
(dp849
g74
(dp850
g82
I4
ssg83
g844
sg76
(lp851
S'gzip, deflate'
p852
asbasbasbag69
(g85
g71
NtRp853
(dp854
g74
(dp855
sg83
g649
sg76
(lp856
g69
(g90
g71
NtRp857
(dp858
g74
(dp859
g94
g95
ssg83
g853
sg76
(lp860
S'http_accept_language'
p861
asbag69
(g90
g71
NtRp862
(dp863
g74
(dp864
g101
g102
ssg83
g853
sg76
(lp865
S':'
asbag69
(g90
g71
NtRp866
(dp867
g74
(dp868
sg83
g853
sg76
(lp869
g69
(g70
g71
NtRp870
(dp871
g74
(dp872
g82
I4
ssg83
g866
sg76
(lp873
S'en-us,en;q=0.5'
p874
asbasbasbag69
(g85
g71
NtRp875
(dp876
g74
(dp877
sg83
g649
sg76
(lp878
g69
(g90
g71
NtRp879
(dp880
g74
(dp881
g94
g95
ssg83
g875
sg76
(lp882
S'http_connection'
p883
asbag69
(g90
g71
NtRp884
(dp885
g74
(dp886
g101
g102
ssg83
g875
sg76
(lp887
S':'
asbag69
(g90
g71
NtRp888
(dp889
g74
(dp890
sg83
g875
sg76
(lp891
g69
(g70
g71
NtRp892
(dp893
g74
(dp894
g82
I4
ssg83
g888
sg76
(lp895
S'keep-alive'
p896
asbasbasbag69
(g85
g71
NtRp897
(dp898
g74
(dp899
sg83
g649
sg76
(lp900
g69
(g90
g71
NtRp901
(dp902
g74
(dp903
g94
g95
ssg83
g897
sg76
(lp904
S'http_cookie'
p905
asbag69
(g90
g71
NtRp906
(dp907
g74
(dp908
g101
g102
ssg83
g897
sg76
(lp909
S':'
asbag69
(g90
g71
NtRp910
(dp911
g74
(dp912
sg83
g897
sg76
(lp913
g69
(g70
g71
NtRp914
(dp915
g74
(dp916
g82
I4
ssg83
g910
sg76
(lp917
S'session_id_admin=127.0.0.1-6e3daacb-3329-41f8-b9f9-d408f21d6ac7; session_id_bigvotes=127.0.0.1-72286364-99c3-4aae-95dc-f33a83b4d6f1'
p918
asbasbasbag69
(g85
g71
NtRp919
(dp920
g74
(dp921
sg83
g649
sg76
(lp922
g69
(g90
g71
NtRp923
(dp924
g74
(dp925
g94
g95
ssg83
g919
sg76
(lp926
S'http_host'
p927
asbag69
(g90
g71
NtRp928
(dp929
g74
(dp930
g101
g102
ssg83
g919
sg76
(lp931
S':'
asbag69
(g90
g71
NtRp932
(dp933
g74
(dp934
sg83
g919
sg76
(lp935
g69
(g70
g71
NtRp936
(dp937
g74
(dp938
g82
I4
ssg83
g932
sg76
(lp939
S'localhost:8000'
p940
asbasbasbag69
(g85
g71
NtRp941
(dp942
g74
(dp943
sg83
g649
sg76
(lp944
g69
(g90
g71
NtRp945
(dp946
g74
(dp947
g94
g95
ssg83
g941
sg76
(lp948
S'http_user_agent'
p949
asbag69
(g90
g71
NtRp950
(dp951
g74
(dp952
g101
g102
ssg83
g941
sg76
(lp953
S':'
asbag69
(g90
g71
NtRp954
(dp955
g74
(dp956
sg83
g941
sg76
(lp957
g69
(g70
g71
NtRp958
(dp959
g74
(dp960
g82
I4
ssg83
g954
sg76
(lp961
S'Mozilla/5.0 (X11; Linux i686; rv:12.0) Gecko/20100101 Firefox/12.0'
p962
asbasbasbag69
(g85
g71
NtRp963
(dp964
g74
(dp965
sg83
g649
sg76
(lp966
g69
(g90
g71
NtRp967
(dp968
g74
(dp969
g94
g95
ssg83
g963
sg76
(lp970
S'is_jython'
p971
asbag69
(g90
g71
NtRp972
(dp973
g74
(dp974
g101
g102
ssg83
g963
sg76
(lp975
S':'
asbag69
(g90
g71
NtRp976
(dp977
g74
(dp978
sg83
g963
sg76
(lp979
g69
(g70
g71
NtRp980
(dp981
g74
(dp982
g82
I4
ssg83
g976
sg76
(lp983
g112
asbasbasbag69
(g85
g71
NtRp984
(dp985
g74
(dp986
sg83
g649
sg76
(lp987
g69
(g90
g71
NtRp988
(dp989
g74
(dp990
g94
g95
ssg83
g984
sg76
(lp991
S'is_pypy'
p992
asbag69
(g90
g71
NtRp993
(dp994
g74
(dp995
g101
g102
ssg83
g984
sg76
(lp996
S':'
asbag69
(g90
g71
NtRp997
(dp998
g74
(dp999
sg83
g984
sg76
(lp1000
g69
(g70
g71
NtRp1001
(dp1002
g74
(dp1003
g82
I4
ssg83
g997
sg76
(lp1004
g112
asbasbasbag69
(g85
g71
NtRp1005
(dp1006
g74
(dp1007
sg83
g649
sg76
(lp1008
g69
(g90
g71
NtRp1009
(dp1010
g74
(dp1011
g94
g95
ssg83
g1005
sg76
(lp1012
S'path_info'
p1013
asbag69
(g90
g71
NtRp1014
(dp1015
g74
(dp1016
g101
g102
ssg83
g1005
sg76
(lp1017
S':'
asbag69
(g90
g71
NtRp1018
(dp1019
g74
(dp1020
sg83
g1005
sg76
(lp1021
g69
(g70
g71
NtRp1022
(dp1023
g74
(dp1024
g82
I4
ssg83
g1018
sg76
(lp1025
S'/bigvotes/member/index'
p1026
asbasbasbag69
(g85
g71
NtRp1027
(dp1028
g74
(dp1029
sg83
g649
sg76
(lp1030
g69
(g90
g71
NtRp1031
(dp1032
g74
(dp1033
g94
g95
ssg83
g1027
sg76
(lp1034
S'query_string'
p1035
asbag69
(g90
g71
NtRp1036
(dp1037
g74
(dp1038
g101
g102
ssg83
g1027
sg76
(lp1039
S':'
asbag69
(g90
g71
NtRp1040
(dp1041
g74
(dp1042
sg83
g1027
sg76
(lp1043
g69
(g70
g71
NtRp1044
(dp1045
g74
(dp1046
g82
I4
ssg83
g1040
sg76
(lp1047
S''
asbasbasbag69
(g85
g71
NtRp1048
(dp1049
g74
(dp1050
sg83
g649
sg76
(lp1051
g69
(g90
g71
NtRp1052
(dp1053
g74
(dp1054
g94
g95
ssg83
g1048
sg76
(lp1055
S'remote_addr'
p1056
asbag69
(g90
g71
NtRp1057
(dp1058
g74
(dp1059
g101
g102
ssg83
g1048
sg76
(lp1060
S':'
asbag69
(g90
g71
NtRp1061
(dp1062
g74
(dp1063
sg83
g1048
sg76
(lp1064
g69
(g70
g71
NtRp1065
(dp1066
g74
(dp1067
g82
I4
ssg83
g1061
sg76
(lp1068
g202
asbasbasbag69
(g85
g71
NtRp1069
(dp1070
g74
(dp1071
sg83
g649
sg76
(lp1072
g69
(g90
g71
NtRp1073
(dp1074
g74
(dp1075
g94
g95
ssg83
g1069
sg76
(lp1076
S'remote_port'
p1077
asbag69
(g90
g71
NtRp1078
(dp1079
g74
(dp1080
g101
g102
ssg83
g1069
sg76
(lp1081
S':'
asbag69
(g90
g71
NtRp1082
(dp1083
g74
(dp1084
sg83
g1069
sg76
(lp1085
g69
(g70
g71
NtRp1086
(dp1087
g74
(dp1088
g82
I4
ssg83
g1082
sg76
(lp1089
S'36310'
p1090
asbasbasbag69
(g85
g71
NtRp1091
(dp1092
g74
(dp1093
sg83
g649
sg76
(lp1094
g69
(g90
g71
NtRp1095
(dp1096
g74
(dp1097
g94
g95
ssg83
g1091
sg76
(lp1098
S'request_method'
p1099
asbag69
(g90
g71
NtRp1100
(dp1101
g74
(dp1102
g101
g102
ssg83
g1091
sg76
(lp1103
S':'
asbag69
(g90
g71
NtRp1104
(dp1105
g74
(dp1106
sg83
g1091
sg76
(lp1107
g69
(g70
g71
NtRp1108
(dp1109
g74
(dp1110
g82
I4
ssg83
g1104
sg76
(lp1111
S'GET'
p1112
asbasbasbag69
(g85
g71
NtRp1113
(dp1114
g74
(dp1115
sg83
g649
sg76
(lp1116
g69
(g90
g71
NtRp1117
(dp1118
g74
(dp1119
g94
g95
ssg83
g1113
sg76
(lp1120
S'script_name'
p1121
asbag69
(g90
g71
NtRp1122
(dp1123
g74
(dp1124
g101
g102
ssg83
g1113
sg76
(lp1125
S':'
asbag69
(g90
g71
NtRp1126
(dp1127
g74
(dp1128
sg83
g1113
sg76
(lp1129
g69
(g70
g71
NtRp1130
(dp1131
g74
(dp1132
g82
I4
ssg83
g1126
sg76
(lp1133
S''
asbasbasbag69
(g85
g71
NtRp1134
(dp1135
g74
(dp1136
sg83
g649
sg76
(lp1137
g69
(g90
g71
NtRp1138
(dp1139
g74
(dp1140
g94
g95
ssg83
g1134
sg76
(lp1141
S'server_name'
p1142
asbag69
(g90
g71
NtRp1143
(dp1144
g74
(dp1145
g101
g102
ssg83
g1134
sg76
(lp1146
S':'
asbag69
(g90
g71
NtRp1147
(dp1148
g74
(dp1149
sg83
g1134
sg76
(lp1150
g69
(g70
g71
NtRp1151
(dp1152
g74
(dp1153
g82
I4
ssg83
g1147
sg76
(lp1154
S'main'
p1155
asbasbasbag69
(g85
g71
NtRp1156
(dp1157
g74
(dp1158
sg83
g649
sg76
(lp1159
g69
(g90
g71
NtRp1160
(dp1161
g74
(dp1162
g94
g95
ssg83
g1156
sg76
(lp1163
S'server_port'
p1164
asbag69
(g90
g71
NtRp1165
(dp1166
g74
(dp1167
g101
g102
ssg83
g1156
sg76
(lp1168
S':'
asbag69
(g90
g71
NtRp1169
(dp1170
g74
(dp1171
sg83
g1156
sg76
(lp1172
g69
(g70
g71
NtRp1173
(dp1174
g74
(dp1175
g82
I4
ssg83
g1169
sg76
(lp1176
S'8000'
p1177
asbasbasbag69
(g85
g71
NtRp1178
(dp1179
g74
(dp1180
sg83
g649
sg76
(lp1181
g69
(g90
g71
NtRp1182
(dp1183
g74
(dp1184
g94
g95
ssg83
g1178
sg76
(lp1185
S'server_protocol'
p1186
asbag69
(g90
g71
NtRp1187
(dp1188
g74
(dp1189
g101
g102
ssg83
g1178
sg76
(lp1190
S':'
asbag69
(g90
g71
NtRp1191
(dp1192
g74
(dp1193
sg83
g1178
sg76
(lp1194
g69
(g70
g71
NtRp1195
(dp1196
g74
(dp1197
g82
I4
ssg83
g1191
sg76
(lp1198
S'HTTP/1.1'
p1199
asbasbasbag69
(g85
g71
NtRp1200
(dp1201
g74
(dp1202
sg83
g649
sg76
(lp1203
g69
(g90
g71
NtRp1204
(dp1205
g74
(dp1206
g94
g95
ssg83
g1200
sg76
(lp1207
S'server_software'
p1208
asbag69
(g90
g71
NtRp1209
(dp1210
g74
(dp1211
g101
g102
ssg83
g1200
sg76
(lp1212
S':'
asbag69
(g90
g71
NtRp1213
(dp1214
g74
(dp1215
sg83
g1200
sg76
(lp1216
g69
(g70
g71
NtRp1217
(dp1218
g74
(dp1219
g82
I4
ssg83
g1213
sg76
(lp1220
S'Rocket 1.2.4'
p1221
asbasbasbag69
(g85
g71
NtRp1222
(dp1223
g74
(dp1224
sg83
g649
sg76
(lp1225
g69
(g90
g71
NtRp1226
(dp1227
g74
(dp1228
g94
g95
ssg83
g1222
sg76
(lp1229
S'web2py_crontype'
p1230
asbag69
(g90
g71
NtRp1231
(dp1232
g74
(dp1233
g101
g102
ssg83
g1222
sg76
(lp1234
S':'
asbag69
(g90
g71
NtRp1235
(dp1236
g74
(dp1237
sg83
g1222
sg76
(lp1238
g69
(g70
g71
NtRp1239
(dp1240
g74
(dp1241
g82
I4
ssg83
g1235
sg76
(lp1242
S'hard'
p1243
asbasbasbag69
(g85
g71
NtRp1244
(dp1245
g74
(dp1246
sg83
g649
sg76
(lp1247
g69
(g90
g71
NtRp1248
(dp1249
g74
(dp1250
g94
g95
ssg83
g1244
sg76
(lp1251
S'web2py_path'
p1252
asbag69
(g90
g71
NtRp1253
(dp1254
g74
(dp1255
g101
g102
ssg83
g1244
sg76
(lp1256
S':'
asbag69
(g90
g71
NtRp1257
(dp1258
g74
(dp1259
sg83
g1244
sg76
(lp1260
g69
(g70
g71
NtRp1261
(dp1262
g74
(dp1263
g82
I4
ssg83
g1257
sg76
(lp1264
g696
asbasbasbag69
(g85
g71
NtRp1265
(dp1266
g74
(dp1267
sg83
g649
sg76
(lp1268
g69
(g90
g71
NtRp1269
(dp1270
g74
(dp1271
g94
g95
ssg83
g1265
sg76
(lp1272
S'web2py_version'
p1273
asbag69
(g90
g71
NtRp1274
(dp1275
g74
(dp1276
g101
g102
ssg83
g1265
sg76
(lp1277
S':'
asbag69
(g90
g71
NtRp1278
(dp1279
g74
(dp1280
sg83
g1265
sg76
(lp1281
g69
(g70
g71
NtRp1282
(dp1283
g74
(dp1284
g82
I4
ssg83
g1278
sg76
(lp1285
g69
(g78
g71
NtRp1286
(dp1287
g74
(dp1288
g82
I3
ssg83
Nsg76
(lp1289
g69
(g85
g71
NtRp1290
(dp1291
g74
(dp1292
sg83
g1286
sg76
(lp1293
g69
(g90
g71
NtRp1294
(dp1295
g74
(dp1296
sg83
g1290
sg76
(lp1297
g69
(g70
g71
NtRp1298
(dp1299
g74
(dp1300
g82
I3
ssg83
g1294
sg76
(lp1301
S'1'
asbasbasbag69
(g85
g71
NtRp1302
(dp1303
g74
(dp1304
sg83
g1286
sg76
(lp1305
g69
(g90
g71
NtRp1306
(dp1307
g74
(dp1308
sg83
g1302
sg76
(lp1309
g69
(g70
g71
NtRp1310
(dp1311
g74
(dp1312
g82
I3
ssg83
g1306
sg76
(lp1313
S'99'
p1314
asbasbasbag69
(g85
g71
NtRp1315
(dp1316
g74
(dp1317
sg83
g1286
sg76
(lp1318
g69
(g90
g71
NtRp1319
(dp1320
g74
(dp1321
sg83
g1315
sg76
(lp1322
g69
(g70
g71
NtRp1323
(dp1324
g74
(dp1325
g82
I3
ssg83
g1319
sg76
(lp1326
S'7'
asbasbasbag69
(g85
g71
NtRp1327
(dp1328
g74
(dp1329
sg83
g1286
sg76
(lp1330
g69
(g90
g71
NtRp1331
(dp1332
g74
(dp1333
sg83
g1327
sg76
(lp1334
g69
(g70
g71
NtRp1335
(dp1336
g74
(dp1337
g82
I3
ssg83
g1331
sg76
(lp1338
S'datetime.datetime(2012, 3, 4, 22, 12, 8)'
p1339
asbasbasbag69
(g85
g71
NtRp1340
(dp1341
g74
(dp1342
sg83
g1286
sg76
(lp1343
g69
(g90
g71
NtRp1344
(dp1345
g74
(dp1346
sg83
g1340
sg76
(lp1347
g69
(g70
g71
NtRp1348
(dp1349
g74
(dp1350
g82
I3
ssg83
g1344
sg76
(lp1351
S'stable'
p1352
asbasbasbasbasbasbasbag69
(g85
g71
NtRp1353
(dp1354
g74
(dp1355
sg83
g649
sg76
(lp1356
g69
(g90
g71
NtRp1357
(dp1358
g74
(dp1359
g94
g95
ssg83
g1353
sg76
(lp1360
S'wsgi_errors'
p1361
asbag69
(g90
g71
NtRp1362
(dp1363
g74
(dp1364
g101
g102
ssg83
g1353
sg76
(lp1365
S':'
asbag69
(g90
g71
NtRp1366
(dp1367
g74
(dp1368
sg83
g1353
sg76
(lp1369
g69
(g70
g71
NtRp1370
(dp1371
g74
(dp1372
g82
I4
ssg83
g1366
sg76
(lp1373
S"<open file '<stderr>', mode 'w' at 0xb789c0d0>"
p1374
asbasbasbag69
(g85
g71
NtRp1375
(dp1376
g74
(dp1377
sg83
g649
sg76
(lp1378
g69
(g90
g71
NtRp1379
(dp1380
g74
(dp1381
g94
g95
ssg83
g1375
sg76
(lp1382
S'wsgi_file_wrapper'
p1383
asbag69
(g90
g71
NtRp1384
(dp1385
g74
(dp1386
g101
g102
ssg83
g1375
sg76
(lp1387
S':'
asbag69
(g90
g71
NtRp1388
(dp1389
g74
(dp1390
sg83
g1375
sg76
(lp1391
g69
(g70
g71
NtRp1392
(dp1393
g74
(dp1394
g82
I4
ssg83
g1388
sg76
(lp1395
S'<class wsgiref.util.FileWrapper at 0xa370d7c>'
p1396
asbasbasbag69
(g85
g71
NtRp1397
(dp1398
g74
(dp1399
sg83
g649
sg76
(lp1400
g69
(g90
g71
NtRp1401
(dp1402
g74
(dp1403
g94
g95
ssg83
g1397
sg76
(lp1404
S'wsgi_input'
p1405
asbag69
(g90
g71
NtRp1406
(dp1407
g74
(dp1408
g101
g102
ssg83
g1397
sg76
(lp1409
S':'
asbag69
(g90
g71
NtRp1410
(dp1411
g74
(dp1412
sg83
g1397
sg76
(lp1413
g69
(g70
g71
NtRp1414
(dp1415
g74
(dp1416
g82
I4
ssg83
g1410
sg76
(lp1417
S'<socket._fileobject object at 0xb0477b2c>'
p1418
asbasbasbag69
(g85
g71
NtRp1419
(dp1420
g74
(dp1421
sg83
g649
sg76
(lp1422
g69
(g90
g71
NtRp1423
(dp1424
g74
(dp1425
g94
g95
ssg83
g1419
sg76
(lp1426
S'wsgi_multiprocess'
p1427
asbag69
(g90
g71
NtRp1428
(dp1429
g74
(dp1430
g101
g102
ssg83
g1419
sg76
(lp1431
S':'
asbag69
(g90
g71
NtRp1432
(dp1433
g74
(dp1434
sg83
g1419
sg76
(lp1435
g69
(g70
g71
NtRp1436
(dp1437
g74
(dp1438
g82
I4
ssg83
g1432
sg76
(lp1439
g112
asbasbasbag69
(g85
g71
NtRp1440
(dp1441
g74
(dp1442
sg83
g649
sg76
(lp1443
g69
(g90
g71
NtRp1444
(dp1445
g74
(dp1446
g94
g95
ssg83
g1440
sg76
(lp1447
S'wsgi_multithread'
p1448
asbag69
(g90
g71
NtRp1449
(dp1450
g74
(dp1451
g101
g102
ssg83
g1440
sg76
(lp1452
S':'
asbag69
(g90
g71
NtRp1453
(dp1454
g74
(dp1455
sg83
g1440
sg76
(lp1456
g69
(g70
g71
NtRp1457
(dp1458
g74
(dp1459
g82
I4
ssg83
g1453
sg76
(lp1460
S'True'
p1461
asbasbasbag69
(g85
g71
NtRp1462
(dp1463
g74
(dp1464
sg83
g649
sg76
(lp1465
g69
(g90
g71
NtRp1466
(dp1467
g74
(dp1468
g94
g95
ssg83
g1462
sg76
(lp1469
S'wsgi_run_once'
p1470
asbag69
(g90
g71
NtRp1471
(dp1472
g74
(dp1473
g101
g102
ssg83
g1462
sg76
(lp1474
S':'
asbag69
(g90
g71
NtRp1475
(dp1476
g74
(dp1477
sg83
g1462
sg76
(lp1478
g69
(g70
g71
NtRp1479
(dp1480
g74
(dp1481
g82
I4
ssg83
g1475
sg76
(lp1482
g112
asbasbasbag69
(g85
g71
NtRp1483
(dp1484
g74
(dp1485
sg83
g649
sg76
(lp1486
g69
(g90
g71
NtRp1487
(dp1488
g74
(dp1489
g94
g95
ssg83
g1483
sg76
(lp1490
S'wsgi_url_scheme'
p1491
asbag69
(g90
g71
NtRp1492
(dp1493
g74
(dp1494
g101
g102
ssg83
g1483
sg76
(lp1495
S':'
asbag69
(g90
g71
NtRp1496
(dp1497
g74
(dp1498
sg83
g1483
sg76
(lp1499
g69
(g70
g71
NtRp1500
(dp1501
g74
(dp1502
g82
I4
ssg83
g1496
sg76
(lp1503
S'http'
p1504
asbasbasbag69
(g85
g71
NtRp1505
(dp1506
g74
(dp1507
sg83
g649
sg76
(lp1508
g69
(g90
g71
NtRp1509
(dp1510
g74
(dp1511
g94
g95
ssg83
g1505
sg76
(lp1512
S'wsgi_version'
p1513
asbag69
(g90
g71
NtRp1514
(dp1515
g74
(dp1516
g101
g102
ssg83
g1505
sg76
(lp1517
S':'
asbag69
(g90
g71
NtRp1518
(dp1519
g74
(dp1520
sg83
g1505
sg76
(lp1521
g69
(g70
g71
NtRp1522
(dp1523
g74
(dp1524
g82
I4
ssg83
g1518
sg76
(lp1525
g69
(g78
g71
NtRp1526
(dp1527
g74
(dp1528
g82
I3
ssg83
Nsg76
(lp1529
g69
(g85
g71
NtRp1530
(dp1531
g74
(dp1532
sg83
g1526
sg76
(lp1533
g69
(g90
g71
NtRp1534
(dp1535
g74
(dp1536
sg83
g1530
sg76
(lp1537
g69
(g70
g71
NtRp1538
(dp1539
g74
(dp1540
g82
I3
ssg83
g1534
sg76
(lp1541
S'1'
asbasbasbag69
(g85
g71
NtRp1542
(dp1543
g74
(dp1544
sg83
g1526
sg76
(lp1545
g69
(g90
g71
NtRp1546
(dp1547
g74
(dp1548
sg83
g1542
sg76
(lp1549
g69
(g70
g71
NtRp1550
(dp1551
g74
(dp1552
g82
I3
ssg83
g1546
sg76
(lp1553
S'0'
asbasbasbasbasbasbasbasbasbasbasbag69
(g85
g71
NtRp1554
(dp1555
g74
(dp1556
sg83
g79
sg76
(lp1557
g69
(g90
g71
NtRp1558
(dp1559
g74
(dp1560
g94
g95
ssg83
g1554
sg76
(lp1561
S'extension'
p1562
asbag69
(g90
g71
NtRp1563
(dp1564
g74
(dp1565
g101
g102
ssg83
g1554
sg76
(lp1566
S':'
asbag69
(g90
g71
NtRp1567
(dp1568
g74
(dp1569
sg83
g1554
sg76
(lp1570
g69
(g70
g71
NtRp1571
(dp1572
g74
(dp1573
g82
I5
ssg83
g1567
sg76
(lp1574
S'html'
p1575
asbasbasbag69
(g85
g71
NtRp1576
(dp1577
g74
(dp1578
sg83
g79
sg76
(lp1579
g69
(g90
g71
NtRp1580
(dp1581
g74
(dp1582
g94
g95
ssg83
g1576
sg76
(lp1583
S'folder'
p1584
asbag69
(g90
g71
NtRp1585
(dp1586
g74
(dp1587
g101
g102
ssg83
g1576
sg76
(lp1588
S':'
asbag69
(g90
g71
NtRp1589
(dp1590
g74
(dp1591
sg83
g1576
sg76
(lp1592
g69
(g70
g71
NtRp1593
(dp1594
g74
(dp1595
g82
I5
ssg83
g1589
sg76
(lp1596
S'/home/kaique/Projects/web/big-votes/web2py/applications/bigvotes/'
p1597
asbasbasbag69
(g85
g71
NtRp1598
(dp1599
g74
(dp1600
sg83
g79
sg76
(lp1601
g69
(g90
g71
NtRp1602
(dp1603
g74
(dp1604
g94
g95
ssg83
g1598
sg76
(lp1605
S'function'
p1606
asbag69
(g90
g71
NtRp1607
(dp1608
g74
(dp1609
g101
g102
ssg83
g1598
sg76
(lp1610
S':'
asbag69
(g90
g71
NtRp1611
(dp1612
g74
(dp1613
sg83
g1598
sg76
(lp1614
g69
(g70
g71
NtRp1615
(dp1616
g74
(dp1617
g82
I5
ssg83
g1611
sg76
(lp1618
S'index'
p1619
asbasbasbag69
(g85
g71
NtRp1620
(dp1621
g74
(dp1622
sg83
g79
sg76
(lp1623
g69
(g90
g71
NtRp1624
(dp1625
g74
(dp1626
g94
g95
ssg83
g1620
sg76
(lp1627
S'get_vars'
p1628
asbag69
(g90
g71
NtRp1629
(dp1630
g74
(dp1631
g101
g102
ssg83
g1620
sg76
(lp1632
S':'
asbag69
(g90
g71
NtRp1633
(dp1634
g74
(dp1635
sg83
g1620
sg76
(lp1636
g69
(g70
g71
NtRp1637
(dp1638
g74
(dp1639
g82
I5
ssg83
g1633
sg76
(lp1640
g69
(g78
g71
NtRp1641
(dp1642
g74
(dp1643
g82
I4
ssg83
Nsg76
(lp1644
sbasbasbasbag69
(g85
g71
NtRp1645
(dp1646
g74
(dp1647
sg83
g79
sg76
(lp1648
g69
(g90
g71
NtRp1649
(dp1650
g74
(dp1651
g94
g95
ssg83
g1645
sg76
(lp1652
S'global_settings'
p1653
asbag69
(g90
g71
NtRp1654
(dp1655
g74
(dp1656
g101
g102
ssg83
g1645
sg76
(lp1657
S':'
asbag69
(g90
g71
NtRp1658
(dp1659
g74
(dp1660
sg83
g1645
sg76
(lp1661
g69
(g70
g71
NtRp1662
(dp1663
g74
(dp1664
g82
I5
ssg83
g1658
sg76
(lp1665
g69
(g78
g71
NtRp1666
(dp1667
g74
(dp1668
g82
I4
ssg83
Nsg76
(lp1669
g69
(g85
g71
NtRp1670
(dp1671
g74
(dp1672
sg83
g1666
sg76
(lp1673
g69
(g90
g71
NtRp1674
(dp1675
g74
(dp1676
g94
g95
ssg83
g1670
sg76
(lp1677
g661
asbag69
(g90
g71
NtRp1678
(dp1679
g74
(dp1680
g101
g102
ssg83
g1670
sg76
(lp1681
S':'
asbag69
(g90
g71
NtRp1682
(dp1683
g74
(dp1684
sg83
g1670
sg76
(lp1685
g69
(g70
g71
NtRp1686
(dp1687
g74
(dp1688
g82
I4
ssg83
g1682
sg76
(lp1689
S"set(['/home/kaique/Projects/web/big-votes/web2py/applications/bigvotes/'])"
p1690
asbasbasbag69
(g85
g71
NtRp1691
(dp1692
g74
(dp1693
sg83
g1666
sg76
(lp1694
g69
(g90
g71
NtRp1695
(dp1696
g74
(dp1697
g94
g95
ssg83
g1691
sg76
(lp1698
g683
asbag69
(g90
g71
NtRp1699
(dp1700
g74
(dp1701
g101
g102
ssg83
g1691
sg76
(lp1702
S':'
asbag69
(g90
g71
NtRp1703
(dp1704
g74
(dp1705
sg83
g1691
sg76
(lp1706
g69
(g70
g71
NtRp1707
(dp1708
g74
(dp1709
g82
I4
ssg83
g1703
sg76
(lp1710
g696
asbasbasbag69
(g85
g71
NtRp1711
(dp1712
g74
(dp1713
sg83
g1666
sg76
(lp1714
g69
(g90
g71
NtRp1715
(dp1716
g74
(dp1717
g94
g95
ssg83
g1711
sg76
(lp1718
g705
asbag69
(g90
g71
NtRp1719
(dp1720
g74
(dp1721
g101
g102
ssg83
g1711
sg76
(lp1722
S':'
asbag69
(g90
g71
NtRp1723
(dp1724
g74
(dp1725
sg83
g1711
sg76
(lp1726
g69
(g70
g71
NtRp1727
(dp1728
g74
(dp1729
g82
I4
ssg83
g1723
sg76
(lp1730
g69
(g78
g71
NtRp1731
(dp1732
g74
(dp1733
g82
I3
ssg83
Nsg76
(lp1734
sbasbasbasbag69
(g85
g71
NtRp1735
(dp1736
g74
(dp1737
sg83
g1666
sg76
(lp1738
g69
(g90
g71
NtRp1739
(dp1740
g74
(dp1741
g94
g95
ssg83
g1735
sg76
(lp1742
g730
asbag69
(g90
g71
NtRp1743
(dp1744
g74
(dp1745
g101
g102
ssg83
g1735
sg76
(lp1746
S':'
asbag69
(g90
g71
NtRp1747
(dp1748
g74
(dp1749
sg83
g1735
sg76
(lp1750
g69
(g70
g71
NtRp1751
(dp1752
g74
(dp1753
g82
I4
ssg83
g1747
sg76
(lp1754
S"<Values at 0xa39576c: {'verbose': False, 'ip': '127.0.0.1', 'shutdown_timeout': 5, 'taskbar': False, 'nocron': False, 'pid_filename': 'httpserver.pid', 'maxthreads': None, 'softcron': False, 'server_name': 'main', 'bpython': False, 'nogui': False, 'port': 8000, 'extcron': False, 'debuglevel': 30, 'test': None, 'folder': '/home/kaique/Projects/web/big-votes/web2py', 'config': '', 'import_models': False, 'winservice': '', 'shell': None, 'run': '', 'log_filename': 'httpserver.log', 'args': [''], 'socket_timeout': 5, 'ssl_ca_certificate': None, 'scheduler': None, 'profiler_filename': None, 'ssl_private_key': '', 'password': 'dev', 'request_queue_size': 5, 'ssl_certificate': '', 'cronjob': False, 'numthreads': None, 'quiet': False, 'interfaces': None, 'minthreads': None, 'timeout': 10, 'plain': False, 'nobanner': False}>"
p1755
asbasbasbag69
(g85
g71
NtRp1756
(dp1757
g74
(dp1758
sg83
g1666
sg76
(lp1759
g69
(g90
g71
NtRp1760
(dp1761
g74
(dp1762
g94
g95
ssg83
g1756
sg76
(lp1763
g752
asbag69
(g90
g71
NtRp1764
(dp1765
g74
(dp1766
g101
g102
ssg83
g1756
sg76
(lp1767
S':'
asbag69
(g90
g71
NtRp1768
(dp1769
g74
(dp1770
sg83
g1756
sg76
(lp1771
g69
(g70
g71
NtRp1772
(dp1773
g74
(dp1774
g82
I4
ssg83
g1768
sg76
(lp1775
S'set([])'
p1776
asbasbasbag69
(g85
g71
NtRp1777
(dp1778
g74
(dp1779
sg83
g1666
sg76
(lp1780
g69
(g90
g71
NtRp1781
(dp1782
g74
(dp1783
g94
g95
ssg83
g1777
sg76
(lp1784
g774
asbag69
(g90
g71
NtRp1785
(dp1786
g74
(dp1787
g101
g102
ssg83
g1777
sg76
(lp1788
S':'
asbag69
(g90
g71
NtRp1789
(dp1790
g74
(dp1791
sg83
g1777
sg76
(lp1792
g69
(g70
g71
NtRp1793
(dp1794
g74
(dp1795
g82
I4
ssg83
g1789
sg76
(lp1796
g112
asbasbasbag69
(g85
g71
NtRp1797
(dp1798
g74
(dp1799
sg83
g1666
sg76
(lp1800
g69
(g90
g71
NtRp1801
(dp1802
g74
(dp1803
g94
g95
ssg83
g1797
sg76
(lp1804
g795
asbag69
(g90
g71
NtRp1805
(dp1806
g74
(dp1807
g101
g102
ssg83
g1797
sg76
(lp1808
S':'
asbag69
(g90
g71
NtRp1809
(dp1810
g74
(dp1811
sg83
g1797
sg76
(lp1812
g69
(g70
g71
NtRp1813
(dp1814
g74
(dp1815
g82
I4
ssg83
g1809
sg76
(lp1816
g808
asbasbasbag69
(g85
g71
NtRp1817
(dp1818
g74
(dp1819
sg83
g1666
sg76
(lp1820
g69
(g90
g71
NtRp1821
(dp1822
g74
(dp1823
g94
g95
ssg83
g1817
sg76
(lp1824
g971
asbag69
(g90
g71
NtRp1825
(dp1826
g74
(dp1827
g101
g102
ssg83
g1817
sg76
(lp1828
S':'
asbag69
(g90
g71
NtRp1829
(dp1830
g74
(dp1831
sg83
g1817
sg76
(lp1832
g69
(g70
g71
NtRp1833
(dp1834
g74
(dp1835
g82
I4
ssg83
g1829
sg76
(lp1836
g112
asbasbasbag69
(g85
g71
NtRp1837
(dp1838
g74
(dp1839
sg83
g1666
sg76
(lp1840
g69
(g90
g71
NtRp1841
(dp1842
g74
(dp1843
g94
g95
ssg83
g1837
sg76
(lp1844
g992
asbag69
(g90
g71
NtRp1845
(dp1846
g74
(dp1847
g101
g102
ssg83
g1837
sg76
(lp1848
S':'
asbag69
(g90
g71
NtRp1849
(dp1850
g74
(dp1851
sg83
g1837
sg76
(lp1852
g69
(g70
g71
NtRp1853
(dp1854
g74
(dp1855
g82
I4
ssg83
g1849
sg76
(lp1856
g112
asbasbasbag69
(g85
g71
NtRp1857
(dp1858
g74
(dp1859
sg83
g1666
sg76
(lp1860
g69
(g90
g71
NtRp1861
(dp1862
g74
(dp1863
g94
g95
ssg83
g1857
sg76
(lp1864
g1230
asbag69
(g90
g71
NtRp1865
(dp1866
g74
(dp1867
g101
g102
ssg83
g1857
sg76
(lp1868
S':'
asbag69
(g90
g71
NtRp1869
(dp1870
g74
(dp1871
sg83
g1857
sg76
(lp1872
g69
(g70
g71
NtRp1873
(dp1874
g74
(dp1875
g82
I4
ssg83
g1869
sg76
(lp1876
g1243
asbasbasbag69
(g85
g71
NtRp1877
(dp1878
g74
(dp1879
sg83
g1666
sg76
(lp1880
g69
(g90
g71
NtRp1881
(dp1882
g74
(dp1883
g94
g95
ssg83
g1877
sg76
(lp1884
g1273
asbag69
(g90
g71
NtRp1885
(dp1886
g74
(dp1887
g101
g102
ssg83
g1877
sg76
(lp1888
S':'
asbag69
(g90
g71
NtRp1889
(dp1890
g74
(dp1891
sg83
g1877
sg76
(lp1892
g69
(g70
g71
NtRp1893
(dp1894
g74
(dp1895
g82
I4
ssg83
g1889
sg76
(lp1896
g69
(g78
g71
NtRp1897
(dp1898
g74
(dp1899
g82
I3
ssg83
Nsg76
(lp1900
g69
(g85
g71
NtRp1901
(dp1902
g74
(dp1903
sg83
g1897
sg76
(lp1904
g69
(g90
g71
NtRp1905
(dp1906
g74
(dp1907
sg83
g1901
sg76
(lp1908
g69
(g70
g71
NtRp1909
(dp1910
g74
(dp1911
g82
I3
ssg83
g1905
sg76
(lp1912
S'1'
asbasbasbag69
(g85
g71
NtRp1913
(dp1914
g74
(dp1915
sg83
g1897
sg76
(lp1916
g69
(g90
g71
NtRp1917
(dp1918
g74
(dp1919
sg83
g1913
sg76
(lp1920
g69
(g70
g71
NtRp1921
(dp1922
g74
(dp1923
g82
I3
ssg83
g1917
sg76
(lp1924
S'99'
p1925
asbasbasbag69
(g85
g71
NtRp1926
(dp1927
g74
(dp1928
sg83
g1897
sg76
(lp1929
g69
(g90
g71
NtRp1930
(dp1931
g74
(dp1932
sg83
g1926
sg76
(lp1933
g69
(g70
g71
NtRp1934
(dp1935
g74
(dp1936
g82
I3
ssg83
g1930
sg76
(lp1937
S'7'
asbasbasbag69
(g85
g71
NtRp1938
(dp1939
g74
(dp1940
sg83
g1897
sg76
(lp1941
g69
(g90
g71
NtRp1942
(dp1943
g74
(dp1944
sg83
g1938
sg76
(lp1945
g69
(g70
g71
NtRp1946
(dp1947
g74
(dp1948
g82
I3
ssg83
g1942
sg76
(lp1949
S'datetime.datetime(2012, 3, 4, 22, 12, 8)'
p1950
asbasbasbag69
(g85
g71
NtRp1951
(dp1952
g74
(dp1953
sg83
g1897
sg76
(lp1954
g69
(g90
g71
NtRp1955
(dp1956
g74
(dp1957
sg83
g1951
sg76
(lp1958
g69
(g70
g71
NtRp1959
(dp1960
g74
(dp1961
g82
I3
ssg83
g1955
sg76
(lp1962
g1352
asbasbasbasbasbasbasbasbasbasbasbag69
(g85
g71
NtRp1963
(dp1964
g74
(dp1965
sg83
g79
sg76
(lp1966
g69
(g90
g71
NtRp1967
(dp1968
g74
(dp1969
g94
g95
ssg83
g1963
sg76
(lp1970
S'is_https'
p1971
asbag69
(g90
g71
NtRp1972
(dp1973
g74
(dp1974
g101
g102
ssg83
g1963
sg76
(lp1975
S':'
asbag69
(g90
g71
NtRp1976
(dp1977
g74
(dp1978
sg83
g1963
sg76
(lp1979
g69
(g70
g71
NtRp1980
(dp1981
g74
(dp1982
g82
I5
ssg83
g1976
sg76
(lp1983
g112
asbasbasbag69
(g85
g71
NtRp1984
(dp1985
g74
(dp1986
sg83
g79
sg76
(lp1987
g69
(g90
g71
NtRp1988
(dp1989
g74
(dp1990
g94
g95
ssg83
g1984
sg76
(lp1991
S'is_local'
p1992
asbag69
(g90
g71
NtRp1993
(dp1994
g74
(dp1995
g101
g102
ssg83
g1984
sg76
(lp1996
S':'
asbag69
(g90
g71
NtRp1997
(dp1998
g74
(dp1999
sg83
g1984
sg76
(lp2000
g69
(g70
g71
NtRp2001
(dp2002
g74
(dp2003
g82
I5
ssg83
g1997
sg76
(lp2004
g1461
asbasbasbag69
(g85
g71
NtRp2005
(dp2006
g74
(dp2007
sg83
g79
sg76
(lp2008
g69
(g90
g71
NtRp2009
(dp2010
g74
(dp2011
g94
g95
ssg83
g2005
sg76
(lp2012
S'is_restful'
p2013
asbag69
(g90
g71
NtRp2014
(dp2015
g74
(dp2016
g101
g102
ssg83
g2005
sg76
(lp2017
S':'
asbag69
(g90
g71
NtRp2018
(dp2019
g74
(dp2020
sg83
g2005
sg76
(lp2021
g69
(g70
g71
NtRp2022
(dp2023
g74
(dp2024
g82
I5
ssg83
g2018
sg76
(lp2025
g112
asbasbasbag69
(g85
g71
NtRp2026
(dp2027
g74
(dp2028
sg83
g79
sg76
(lp2029
g69
(g90
g71
NtRp2030
(dp2031
g74
(dp2032
g94
g95
ssg83
g2026
sg76
(lp2033
S'now'
p2034
asbag69
(g90
g71
NtRp2035
(dp2036
g74
(dp2037
g101
g102
ssg83
g2026
sg76
(lp2038
S':'
asbag69
(g90
g71
NtRp2039
(dp2040
g74
(dp2041
sg83
g2026
sg76
(lp2042
g69
(g70
g71
NtRp2043
(dp2044
g74
(dp2045
g82
I5
ssg83
g2039
sg76
(lp2046
S'datetime.datetime(2012, 5, 20, 20, 8, 14, 901018)'
p2047
asbasbasbag69
(g85
g71
NtRp2048
(dp2049
g74
(dp2050
sg83
g79
sg76
(lp2051
g69
(g90
g71
NtRp2052
(dp2053
g74
(dp2054
g94
g95
ssg83
g2048
sg76
(lp2055
S'post_vars'
p2056
asbag69
(g90
g71
NtRp2057
(dp2058
g74
(dp2059
g101
g102
ssg83
g2048
sg76
(lp2060
S':'
asbag69
(g90
g71
NtRp2061
(dp2062
g74
(dp2063
sg83
g2048
sg76
(lp2064
g69
(g70
g71
NtRp2065
(dp2066
g74
(dp2067
g82
I5
ssg83
g2061
sg76
(lp2068
g69
(g78
g71
NtRp2069
(dp2070
g74
(dp2071
g82
I4
ssg83
Nsg76
(lp2072
sbasbasbasbag69
(g85
g71
NtRp2073
(dp2074
g74
(dp2075
sg83
g79
sg76
(lp2076
g69
(g90
g71
NtRp2077
(dp2078
g74
(dp2079
g94
g95
ssg83
g2073
sg76
(lp2080
S'url'
p2081
asbag69
(g90
g71
NtRp2082
(dp2083
g74
(dp2084
g101
g102
ssg83
g2073
sg76
(lp2085
S':'
asbag69
(g90
g71
NtRp2086
(dp2087
g74
(dp2088
sg83
g2073
sg76
(lp2089
g69
(g70
g71
NtRp2090
(dp2091
g74
(dp2092
g82
I5
ssg83
g2086
sg76
(lp2093
S'/bigvotes/member/index'
p2094
asbasbasbag69
(g85
g71
NtRp2095
(dp2096
g74
(dp2097
sg83
g79
sg76
(lp2098
g69
(g90
g71
NtRp2099
(dp2100
g74
(dp2101
g94
g95
ssg83
g2095
sg76
(lp2102
S'utcnow'
p2103
asbag69
(g90
g71
NtRp2104
(dp2105
g74
(dp2106
g101
g102
ssg83
g2095
sg76
(lp2107
S':'
asbag69
(g90
g71
NtRp2108
(dp2109
g74
(dp2110
sg83
g2095
sg76
(lp2111
g69
(g70
g71
NtRp2112
(dp2113
g74
(dp2114
g82
I5
ssg83
g2108
sg76
(lp2115
S'datetime.datetime(2012, 5, 20, 23, 8, 14, 901061)'
p2116
asbasbasbag69
(g85
g71
NtRp2117
(dp2118
g74
(dp2119
sg83
g79
sg76
(lp2120
g69
(g90
g71
NtRp2121
(dp2122
g74
(dp2123
g94
g95
ssg83
g2117
sg76
(lp2124
S'uuid'
p2125
asbag69
(g90
g71
NtRp2126
(dp2127
g74
(dp2128
g101
g102
ssg83
g2117
sg76
(lp2129
S':'
asbag69
(g90
g71
NtRp2130
(dp2131
g74
(dp2132
sg83
g2117
sg76
(lp2133
g69
(g70
g71
NtRp2134
(dp2135
g74
(dp2136
g82
I5
ssg83
g2130
sg76
(lp2137
S'bigvotes/127.0.0.1.2012-05-20.20-08-14.b2583571-ed49-41fc-a248-f37d321d9eb1'
p2138
asbasbasbag69
(g85
g71
NtRp2139
(dp2140
g74
(dp2141
sg83
g79
sg76
(lp2142
g69
(g90
g71
NtRp2143
(dp2144
g74
(dp2145
g94
g95
ssg83
g2139
sg76
(lp2146
S'vars'
p2147
asbag69
(g90
g71
NtRp2148
(dp2149
g74
(dp2150
g101
g102
ssg83
g2139
sg76
(lp2151
S':'
asbag69
(g90
g71
NtRp2152
(dp2153
g74
(dp2154
sg83
g2139
sg76
(lp2155
g69
(g70
g71
NtRp2156
(dp2157
g74
(dp2158
g82
I5
ssg83
g2152
sg76
(lp2159
g69
(g78
g71
NtRp2160
(dp2161
g74
(dp2162
g82
I4
ssg83
Nsg76
(lp2163
sbasbasbasbag69
(g85
g71
NtRp2164
(dp2165
g74
(dp2166
sg83
g79
sg76
(lp2167
g69
(g90
g71
NtRp2168
(dp2169
g74
(dp2170
g94
g95
ssg83
g2164
sg76
(lp2171
S'wsgi'
p2172
asbag69
(g90
g71
NtRp2173
(dp2174
g74
(dp2175
g101
g102
ssg83
g2164
sg76
(lp2176
S':'
asbag69
(g90
g71
NtRp2177
(dp2178
g74
(dp2179
sg83
g2164
sg76
(lp2180
g69
(g70
g71
NtRp2181
(dp2182
g74
(dp2183
g82
I5
ssg83
g2177
sg76
(lp2184
g69
(g78
g71
NtRp2185
(dp2186
g74
(dp2187
g82
I4
ssg83
Nsg76
(lp2188
g69
(g85
g71
NtRp2189
(dp2190
g74
(dp2191
sg83
g2185
sg76
(lp2192
g69
(g90
g71
NtRp2193
(dp2194
g74
(dp2195
g94
g95
ssg83
g2189
sg76
(lp2196
S'environ'
p2197
asbag69
(g90
g71
NtRp2198
(dp2199
g74
(dp2200
g101
g102
ssg83
g2189
sg76
(lp2201
S':'
asbag69
(g90
g71
NtRp2202
(dp2203
g74
(dp2204
sg83
g2189
sg76
(lp2205
g69
(g70
g71
NtRp2206
(dp2207
g74
(dp2208
g82
I4
ssg83
g2202
sg76
(lp2209
g69
(g78
g71
NtRp2210
(dp2211
g74
(dp2212
g82
I3
ssg83
Nsg76
(lp2213
g69
(g85
g71
NtRp2214
(dp2215
g74
(dp2216
sg83
g2210
sg76
(lp2217
g69
(g90
g71
NtRp2218
(dp2219
g74
(dp2220
g94
g95
ssg83
g2214
sg76
(lp2221
S'HTTP_ACCEPT'
p2222
asbag69
(g90
g71
NtRp2223
(dp2224
g74
(dp2225
g101
g102
ssg83
g2214
sg76
(lp2226
S':'
asbag69
(g90
g71
NtRp2227
(dp2228
g74
(dp2229
sg83
g2214
sg76
(lp2230
g69
(g70
g71
NtRp2231
(dp2232
g74
(dp2233
g82
I3
ssg83
g2227
sg76
(lp2234
g830
asbasbasbag69
(g85
g71
NtRp2235
(dp2236
g74
(dp2237
sg83
g2210
sg76
(lp2238
g69
(g90
g71
NtRp2239
(dp2240
g74
(dp2241
g94
g95
ssg83
g2235
sg76
(lp2242
S'HTTP_ACCEPT_ENCODING'
p2243
asbag69
(g90
g71
NtRp2244
(dp2245
g74
(dp2246
g101
g102
ssg83
g2235
sg76
(lp2247
S':'
asbag69
(g90
g71
NtRp2248
(dp2249
g74
(dp2250
sg83
g2235
sg76
(lp2251
g69
(g70
g71
NtRp2252
(dp2253
g74
(dp2254
g82
I3
ssg83
g2248
sg76
(lp2255
g852
asbasbasbag69
(g85
g71
NtRp2256
(dp2257
g74
(dp2258
sg83
g2210
sg76
(lp2259
g69
(g90
g71
NtRp2260
(dp2261
g74
(dp2262
g94
g95
ssg83
g2256
sg76
(lp2263
S'HTTP_ACCEPT_LANGUAGE'
p2264
asbag69
(g90
g71
NtRp2265
(dp2266
g74
(dp2267
g101
g102
ssg83
g2256
sg76
(lp2268
S':'
asbag69
(g90
g71
NtRp2269
(dp2270
g74
(dp2271
sg83
g2256
sg76
(lp2272
g69
(g70
g71
NtRp2273
(dp2274
g74
(dp2275
g82
I3
ssg83
g2269
sg76
(lp2276
g874
asbasbasbag69
(g85
g71
NtRp2277
(dp2278
g74
(dp2279
sg83
g2210
sg76
(lp2280
g69
(g90
g71
NtRp2281
(dp2282
g74
(dp2283
g94
g95
ssg83
g2277
sg76
(lp2284
S'HTTP_CONNECTION'
p2285
asbag69
(g90
g71
NtRp2286
(dp2287
g74
(dp2288
g101
g102
ssg83
g2277
sg76
(lp2289
S':'
asbag69
(g90
g71
NtRp2290
(dp2291
g74
(dp2292
sg83
g2277
sg76
(lp2293
g69
(g70
g71
NtRp2294
(dp2295
g74
(dp2296
g82
I3
ssg83
g2290
sg76
(lp2297
g896
asbasbasbag69
(g85
g71
NtRp2298
(dp2299
g74
(dp2300
sg83
g2210
sg76
(lp2301
g69
(g90
g71
NtRp2302
(dp2303
g74
(dp2304
g94
g95
ssg83
g2298
sg76
(lp2305
S'HTTP_COOKIE'
p2306
asbag69
(g90
g71
NtRp2307
(dp2308
g74
(dp2309
g101
g102
ssg83
g2298
sg76
(lp2310
S':'
asbag69
(g90
g71
NtRp2311
(dp2312
g74
(dp2313
sg83
g2298
sg76
(lp2314
g69
(g70
g71
NtRp2315
(dp2316
g74
(dp2317
g82
I3
ssg83
g2311
sg76
(lp2318
g918
asbasbasbag69
(g85
g71
NtRp2319
(dp2320
g74
(dp2321
sg83
g2210
sg76
(lp2322
g69
(g90
g71
NtRp2323
(dp2324
g74
(dp2325
g94
g95
ssg83
g2319
sg76
(lp2326
S'HTTP_HOST'
p2327
asbag69
(g90
g71
NtRp2328
(dp2329
g74
(dp2330
g101
g102
ssg83
g2319
sg76
(lp2331
S':'
asbag69
(g90
g71
NtRp2332
(dp2333
g74
(dp2334
sg83
g2319
sg76
(lp2335
g69
(g70
g71
NtRp2336
(dp2337
g74
(dp2338
g82
I3
ssg83
g2332
sg76
(lp2339
g940
asbasbasbag69
(g85
g71
NtRp2340
(dp2341
g74
(dp2342
sg83
g2210
sg76
(lp2343
g69
(g90
g71
NtRp2344
(dp2345
g74
(dp2346
g94
g95
ssg83
g2340
sg76
(lp2347
S'HTTP_USER_AGENT'
p2348
asbag69
(g90
g71
NtRp2349
(dp2350
g74
(dp2351
g101
g102
ssg83
g2340
sg76
(lp2352
S':'
asbag69
(g90
g71
NtRp2353
(dp2354
g74
(dp2355
sg83
g2340
sg76
(lp2356
g69
(g70
g71
NtRp2357
(dp2358
g74
(dp2359
g82
I3
ssg83
g2353
sg76
(lp2360
g962
asbasbasbag69
(g85
g71
NtRp2361
(dp2362
g74
(dp2363
sg83
g2210
sg76
(lp2364
g69
(g90
g71
NtRp2365
(dp2366
g74
(dp2367
g94
g95
ssg83
g2361
sg76
(lp2368
S'PATH_INFO'
p2369
asbag69
(g90
g71
NtRp2370
(dp2371
g74
(dp2372
g101
g102
ssg83
g2361
sg76
(lp2373
S':'
asbag69
(g90
g71
NtRp2374
(dp2375
g74
(dp2376
sg83
g2361
sg76
(lp2377
g69
(g70
g71
NtRp2378
(dp2379
g74
(dp2380
g82
I3
ssg83
g2374
sg76
(lp2381
g1026
asbasbasbag69
(g85
g71
NtRp2382
(dp2383
g74
(dp2384
sg83
g2210
sg76
(lp2385
g69
(g90
g71
NtRp2386
(dp2387
g74
(dp2388
g94
g95
ssg83
g2382
sg76
(lp2389
S'QUERY_STRING'
p2390
asbag69
(g90
g71
NtRp2391
(dp2392
g74
(dp2393
g101
g102
ssg83
g2382
sg76
(lp2394
S':'
asbag69
(g90
g71
NtRp2395
(dp2396
g74
(dp2397
sg83
g2382
sg76
(lp2398
g69
(g70
g71
NtRp2399
(dp2400
g74
(dp2401
g82
I3
ssg83
g2395
sg76
(lp2402
S''
asbasbasbag69
(g85
g71
NtRp2403
(dp2404
g74
(dp2405
sg83
g2210
sg76
(lp2406
g69
(g90
g71
NtRp2407
(dp2408
g74
(dp2409
g94
g95
ssg83
g2403
sg76
(lp2410
S'REMOTE_ADDR'
p2411
asbag69
(g90
g71
NtRp2412
(dp2413
g74
(dp2414
g101
g102
ssg83
g2403
sg76
(lp2415
S':'
asbag69
(g90
g71
NtRp2416
(dp2417
g74
(dp2418
sg83
g2403
sg76
(lp2419
g69
(g70
g71
NtRp2420
(dp2421
g74
(dp2422
g82
I3
ssg83
g2416
sg76
(lp2423
g202
asbasbasbag69
(g85
g71
NtRp2424
(dp2425
g74
(dp2426
sg83
g2210
sg76
(lp2427
g69
(g90
g71
NtRp2428
(dp2429
g74
(dp2430
g94
g95
ssg83
g2424
sg76
(lp2431
S'REMOTE_PORT'
p2432
asbag69
(g90
g71
NtRp2433
(dp2434
g74
(dp2435
g101
g102
ssg83
g2424
sg76
(lp2436
S':'
asbag69
(g90
g71
NtRp2437
(dp2438
g74
(dp2439
sg83
g2424
sg76
(lp2440
g69
(g70
g71
NtRp2441
(dp2442
g74
(dp2443
g82
I3
ssg83
g2437
sg76
(lp2444
g1090
asbasbasbag69
(g85
g71
NtRp2445
(dp2446
g74
(dp2447
sg83
g2210
sg76
(lp2448
g69
(g90
g71
NtRp2449
(dp2450
g74
(dp2451
g94
g95
ssg83
g2445
sg76
(lp2452
S'REQUEST_METHOD'
p2453
asbag69
(g90
g71
NtRp2454
(dp2455
g74
(dp2456
g101
g102
ssg83
g2445
sg76
(lp2457
S':'
asbag69
(g90
g71
NtRp2458
(dp2459
g74
(dp2460
sg83
g2445
sg76
(lp2461
g69
(g70
g71
NtRp2462
(dp2463
g74
(dp2464
g82
I3
ssg83
g2458
sg76
(lp2465
g1112
asbasbasbag69
(g85
g71
NtRp2466
(dp2467
g74
(dp2468
sg83
g2210
sg76
(lp2469
g69
(g90
g71
NtRp2470
(dp2471
g74
(dp2472
g94
g95
ssg83
g2466
sg76
(lp2473
S'SCRIPT_NAME'
p2474
asbag69
(g90
g71
NtRp2475
(dp2476
g74
(dp2477
g101
g102
ssg83
g2466
sg76
(lp2478
S':'
asbag69
(g90
g71
NtRp2479
(dp2480
g74
(dp2481
sg83
g2466
sg76
(lp2482
g69
(g70
g71
NtRp2483
(dp2484
g74
(dp2485
g82
I3
ssg83
g2479
sg76
(lp2486
S''
asbasbasbag69
(g85
g71
NtRp2487
(dp2488
g74
(dp2489
sg83
g2210
sg76
(lp2490
g69
(g90
g71
NtRp2491
(dp2492
g74
(dp2493
g94
g95
ssg83
g2487
sg76
(lp2494
S'SERVER_NAME'
p2495
asbag69
(g90
g71
NtRp2496
(dp2497
g74
(dp2498
g101
g102
ssg83
g2487
sg76
(lp2499
S':'
asbag69
(g90
g71
NtRp2500
(dp2501
g74
(dp2502
sg83
g2487
sg76
(lp2503
g69
(g70
g71
NtRp2504
(dp2505
g74
(dp2506
g82
I3
ssg83
g2500
sg76
(lp2507
g1155
asbasbasbag69
(g85
g71
NtRp2508
(dp2509
g74
(dp2510
sg83
g2210
sg76
(lp2511
g69
(g90
g71
NtRp2512
(dp2513
g74
(dp2514
g94
g95
ssg83
g2508
sg76
(lp2515
S'SERVER_PORT'
p2516
asbag69
(g90
g71
NtRp2517
(dp2518
g74
(dp2519
g101
g102
ssg83
g2508
sg76
(lp2520
S':'
asbag69
(g90
g71
NtRp2521
(dp2522
g74
(dp2523
sg83
g2508
sg76
(lp2524
g69
(g70
g71
NtRp2525
(dp2526
g74
(dp2527
g82
I3
ssg83
g2521
sg76
(lp2528
g1177
asbasbasbag69
(g85
g71
NtRp2529
(dp2530
g74
(dp2531
sg83
g2210
sg76
(lp2532
g69
(g90
g71
NtRp2533
(dp2534
g74
(dp2535
g94
g95
ssg83
g2529
sg76
(lp2536
S'SERVER_PROTOCOL'
p2537
asbag69
(g90
g71
NtRp2538
(dp2539
g74
(dp2540
g101
g102
ssg83
g2529
sg76
(lp2541
S':'
asbag69
(g90
g71
NtRp2542
(dp2543
g74
(dp2544
sg83
g2529
sg76
(lp2545
g69
(g70
g71
NtRp2546
(dp2547
g74
(dp2548
g82
I3
ssg83
g2542
sg76
(lp2549
g1199
asbasbasbag69
(g85
g71
NtRp2550
(dp2551
g74
(dp2552
sg83
g2210
sg76
(lp2553
g69
(g90
g71
NtRp2554
(dp2555
g74
(dp2556
g94
g95
ssg83
g2550
sg76
(lp2557
S'SERVER_SOFTWARE'
p2558
asbag69
(g90
g71
NtRp2559
(dp2560
g74
(dp2561
g101
g102
ssg83
g2550
sg76
(lp2562
S':'
asbag69
(g90
g71
NtRp2563
(dp2564
g74
(dp2565
sg83
g2550
sg76
(lp2566
g69
(g70
g71
NtRp2567
(dp2568
g74
(dp2569
g82
I3
ssg83
g2563
sg76
(lp2570
g1221
asbasbasbag69
(g85
g71
NtRp2571
(dp2572
g74
(dp2573
sg83
g2210
sg76
(lp2574
g69
(g90
g71
NtRp2575
(dp2576
g74
(dp2577
g94
g95
ssg83
g2571
sg76
(lp2578
S'wsgi.errors'
p2579
asbag69
(g90
g71
NtRp2580
(dp2581
g74
(dp2582
g101
g102
ssg83
g2571
sg76
(lp2583
S':'
asbag69
(g90
g71
NtRp2584
(dp2585
g74
(dp2586
sg83
g2571
sg76
(lp2587
g69
(g70
g71
NtRp2588
(dp2589
g74
(dp2590
g82
I3
ssg83
g2584
sg76
(lp2591
S"<open file '<stderr>', mode 'w' at 0xb789c0d0>"
p2592
asbasbasbag69
(g85
g71
NtRp2593
(dp2594
g74
(dp2595
sg83
g2210
sg76
(lp2596
g69
(g90
g71
NtRp2597
(dp2598
g74
(dp2599
g94
g95
ssg83
g2593
sg76
(lp2600
S'wsgi.file_wrapper'
p2601
asbag69
(g90
g71
NtRp2602
(dp2603
g74
(dp2604
g101
g102
ssg83
g2593
sg76
(lp2605
S':'
asbag69
(g90
g71
NtRp2606
(dp2607
g74
(dp2608
sg83
g2593
sg76
(lp2609
g69
(g70
g71
NtRp2610
(dp2611
g74
(dp2612
g82
I3
ssg83
g2606
sg76
(lp2613
S'<class wsgiref.util.FileWrapper at 0xa370d7c>'
p2614
asbasbasbag69
(g85
g71
NtRp2615
(dp2616
g74
(dp2617
sg83
g2210
sg76
(lp2618
g69
(g90
g71
NtRp2619
(dp2620
g74
(dp2621
g94
g95
ssg83
g2615
sg76
(lp2622
S'wsgi.input'
p2623
asbag69
(g90
g71
NtRp2624
(dp2625
g74
(dp2626
g101
g102
ssg83
g2615
sg76
(lp2627
S':'
asbag69
(g90
g71
NtRp2628
(dp2629
g74
(dp2630
sg83
g2615
sg76
(lp2631
g69
(g70
g71
NtRp2632
(dp2633
g74
(dp2634
g82
I3
ssg83
g2628
sg76
(lp2635
S'<cStringIO.StringO object at 0xb0202d40>'
p2636
asbasbasbag69
(g85
g71
NtRp2637
(dp2638
g74
(dp2639
sg83
g2210
sg76
(lp2640
g69
(g90
g71
NtRp2641
(dp2642
g74
(dp2643
g94
g95
ssg83
g2637
sg76
(lp2644
S'wsgi.multiprocess'
p2645
asbag69
(g90
g71
NtRp2646
(dp2647
g74
(dp2648
g101
g102
ssg83
g2637
sg76
(lp2649
S':'
asbag69
(g90
g71
NtRp2650
(dp2651
g74
(dp2652
sg83
g2637
sg76
(lp2653
g69
(g70
g71
NtRp2654
(dp2655
g74
(dp2656
g82
I3
ssg83
g2650
sg76
(lp2657
g112
asbasbasbag69
(g85
g71
NtRp2658
(dp2659
g74
(dp2660
sg83
g2210
sg76
(lp2661
g69
(g90
g71
NtRp2662
(dp2663
g74
(dp2664
g94
g95
ssg83
g2658
sg76
(lp2665
S'wsgi.multithread'
p2666
asbag69
(g90
g71
NtRp2667
(dp2668
g74
(dp2669
g101
g102
ssg83
g2658
sg76
(lp2670
S':'
asbag69
(g90
g71
NtRp2671
(dp2672
g74
(dp2673
sg83
g2658
sg76
(lp2674
g69
(g70
g71
NtRp2675
(dp2676
g74
(dp2677
g82
I3
ssg83
g2671
sg76
(lp2678
g1461
asbasbasbag69
(g85
g71
NtRp2679
(dp2680
g74
(dp2681
sg83
g2210
sg76
(lp2682
g69
(g90
g71
NtRp2683
(dp2684
g74
(dp2685
g94
g95
ssg83
g2679
sg76
(lp2686
S'wsgi.run_once'
p2687
asbag69
(g90
g71
NtRp2688
(dp2689
g74
(dp2690
g101
g102
ssg83
g2679
sg76
(lp2691
S':'
asbag69
(g90
g71
NtRp2692
(dp2693
g74
(dp2694
sg83
g2679
sg76
(lp2695
g69
(g70
g71
NtRp2696
(dp2697
g74
(dp2698
g82
I3
ssg83
g2692
sg76
(lp2699
g112
asbasbasbag69
(g85
g71
NtRp2700
(dp2701
g74
(dp2702
sg83
g2210
sg76
(lp2703
g69
(g90
g71
NtRp2704
(dp2705
g74
(dp2706
g94
g95
ssg83
g2700
sg76
(lp2707
S'wsgi.url_scheme'
p2708
asbag69
(g90
g71
NtRp2709
(dp2710
g74
(dp2711
g101
g102
ssg83
g2700
sg76
(lp2712
S':'
asbag69
(g90
g71
NtRp2713
(dp2714
g74
(dp2715
sg83
g2700
sg76
(lp2716
g69
(g70
g71
NtRp2717
(dp2718
g74
(dp2719
g82
I3
ssg83
g2713
sg76
(lp2720
g1504
asbasbasbag69
(g85
g71
NtRp2721
(dp2722
g74
(dp2723
sg83
g2210
sg76
(lp2724
g69
(g90
g71
NtRp2725
(dp2726
g74
(dp2727
g94
g95
ssg83
g2721
sg76
(lp2728
S'wsgi.version'
p2729
asbag69
(g90
g71
NtRp2730
(dp2731
g74
(dp2732
g101
g102
ssg83
g2721
sg76
(lp2733
S':'
asbag69
(g90
g71
NtRp2734
(dp2735
g74
(dp2736
sg83
g2721
sg76
(lp2737
g69
(g70
g71
NtRp2738
(dp2739
g74
(dp2740
g82
I3
ssg83
g2734
sg76
(lp2741
S'1'
asbasbasbasbasbasbasbasbasbasbasbasbasbsS'frames'
p2742
(lp2743
(dp2744
S'file'
p2745
S'/home/kaique/Projects/web/big-votes/web2py/gluon/restricted.py'
p2746
sS'dump'
p2747
(dp2748
S'code'
p2749
S"'# -*- coding: utf-8 -*-\\nfrom bigvotes import Mem...embers\\n\\t}\\nresponse._vars=response._caller(index)\\n'"
p2750
sS'layer'
p2751
S"'/home/kaique/Projects/web/big-votes/web2py/applications/bigvotes/controllers/member.py'"
p2752
sS'global compile2'
p2753
S'<function compile2>'
p2754
sS'ccode'
p2755
S'undefined'
p2756
ssS'lnum'
p2757
I204
sS'lines'
p2758
(dp2759
I199
S"    environment['__name__'] = '__restricted__'"
p2760
sI200
S'    try:'
p2761
sI201
S'        if type(code) == types.CodeType:'
p2762
sI202
S'            ccode = code'
p2763
sI203
S'        else:'
p2764
sI204
S'            ccode = compile2(code,layer)'
p2765
sI205
S'        exec ccode in environment'
p2766
sI206
S'    except HTTP:'
p2767
sI207
S'        raise'
p2768
sI208
S'    except RestrictedError:'
p2769
ssS'call'
p2770
S"(code='# -*- coding: utf-8 -*-\\nfrom bigvotes import Mem...embers\\n\\t}\\nresponse._vars=response._caller(index)\\n', environment={'A': <class 'gluon.html.A'>, 'Auth': <class 'gluon.tools.Auth'>, 'B': <class 'gluon.html.B'>, 'BEAUTIFY': <class 'gluon.html.BEAUTIFY'>, 'BODY': <class 'gluon.html.BODY'>, 'BR': <class 'gluon.html.BR'>, 'BUTTON': <class 'gluon.html.BUTTON'>, 'CAT': <class 'gluon.html.CAT'>, 'CENTER': <class 'gluon.html.CENTER'>, 'CLEANUP': <class 'gluon.validators.CLEANUP'>, ...}, layer='/home/kaique/Projects/web/big-votes/web2py/applications/bigvotes/controllers/member.py')"
p2771
sS'func'
p2772
S'restricted'
p2773
sa(dp2774
g2745
S'/home/kaique/Projects/web/big-votes/web2py/gluon/restricted.py'
p2775
sg2747
(dp2776
S'builtincompile'
p2777
S'<built-in function compile>'
p2778
sS'code'
p2779
S"'# -*- coding: utf-8 -*-\\nfrom bigvotes import Mem...embers\\n\\t}\\nresponse._vars=response._caller(index)\\n'"
p2780
sS'code.rstrip'
p2781
S'<built-in method rstrip of str object>'
p2782
sS').replace'
p2783
g2756
sS'layer'
p2784
S"'/home/kaique/Projects/web/big-votes/web2py/applications/bigvotes/controllers/member.py'"
p2785
ssg2757
I189
sg2758
(dp2786
I192
S'    """'
p2787
sI193
S'    runs code in environment and returns the output. if an exception occurs'
p2788
sI184
S''
sI185
S'def compile2(code,layer):'
p2789
sI186
S'    """'
p2790
sI187
S"    The +'\\n' is necessary else compile fails when code ends in a comment."
p2791
sI188
S'    """'
p2792
sI189
S"    return compile(code.rstrip().replace('\\r\\n','\\n')+'\\n', layer, 'exec')"
p2793
sI190
S''
sI191
S"def restricted(code, environment=None, layer='Unknown'):"
p2794
ssg2770
S"(code='# -*- coding: utf-8 -*-\\nfrom bigvotes import Mem...embers\\n\\t}\\nresponse._vars=response._caller(index)\\n', layer='/home/kaique/Projects/web/big-votes/web2py/applications/bigvotes/controllers/member.py')"
p2795
sg2772
S'compile2'
p2796
sasS'pyver'
p2797
S'Python 2.7.3: /home/kaique/Projects/web/big-votes/bin/python'
p2798
sS'session'
p2799
g69
(g70
g71
NtRp2800
(dp2801
g74
(dp2802
sg76
(lp2803
g69
(g78
g71
NtRp2804
(dp2805
g74
(dp2806
g82
I5
ssg83
Nsg76
(lp2807
g69
(g85
g71
NtRp2808
(dp2809
g74
(dp2810
sg83
g2804
sg76
(lp2811
g69
(g90
g71
NtRp2812
(dp2813
g74
(dp2814
g94
g95
ssg83
g2808
sg76
(lp2815
S'last_query'
p2816
asbag69
(g90
g71
NtRp2817
(dp2818
g74
(dp2819
g101
g102
ssg83
g2808
sg76
(lp2820
S':'
asbag69
(g90
g71
NtRp2821
(dp2822
g74
(dp2823
sg83
g2808
sg76
(lp2824
g69
(g70
g71
NtRp2825
(dp2826
g74
(dp2827
g82
I5
ssg83
g2821
sg76
(lp2828
S'db.member.id==1'
p2829
asbasbasbasbasbsS'etype'
p2830
S"<type 'exceptions.SyntaxError'>"
p2831
sS'date'
p2832
S'Sun May 20 20:08:14 2012'
p2833
sS'response'
p2834
g69
(g70
g71
NtRp2835
(dp2836
g74
(dp2837
sg76
(lp2838
g69
(g78
g71
NtRp2839
(dp2840
g74
(dp2841
g82
I5
ssg83
Nsg76
(lp2842
g69
(g85
g71
NtRp2843
(dp2844
g74
(dp2845
sg83
g2839
sg76
(lp2846
g69
(g90
g71
NtRp2847
(dp2848
g74
(dp2849
g94
g95
ssg83
g2843
sg76
(lp2850
g167
asbag69
(g90
g71
NtRp2851
(dp2852
g74
(dp2853
g101
g102
ssg83
g2843
sg76
(lp2854
S':'
asbag69
(g90
g71
NtRp2855
(dp2856
g74
(dp2857
sg83
g2843
sg76
(lp2858
g69
(g70
g71
NtRp2859
(dp2860
g74
(dp2861
g82
I5
ssg83
g2855
sg76
(lp2862
S'<cStringIO.StringO object at 0xb0431d40>'
p2863
asbasbasbag69
(g85
g71
NtRp2864
(dp2865
g74
(dp2866
sg83
g2839
sg76
(lp2867
g69
(g90
g71
NtRp2868
(dp2869
g74
(dp2870
g94
g95
ssg83
g2864
sg76
(lp2871
g233
asbag69
(g90
g71
NtRp2872
(dp2873
g74
(dp2874
g101
g102
ssg83
g2864
sg76
(lp2875
S':'
asbag69
(g90
g71
NtRp2876
(dp2877
g74
(dp2878
sg83
g2864
sg76
(lp2879
g69
(g70
g71
NtRp2880
(dp2881
g74
(dp2882
g82
I5
ssg83
g2876
sg76
(lp2883
g69
(g78
g71
NtRp2884
(dp2885
g74
(dp2886
g82
I4
ssg83
Nsg76
(lp2887
g69
(g85
g71
NtRp2888
(dp2889
g74
(dp2890
sg83
g2884
sg76
(lp2891
g69
(g90
g71
NtRp2892
(dp2893
g74
(dp2894
g94
g95
ssg83
g2888
sg76
(lp2895
S'session_id_bigvotes'
p2896
asbag69
(g90
g71
NtRp2897
(dp2898
g74
(dp2899
g101
g102
ssg83
g2888
sg76
(lp2900
S':'
asbag69
(g90
g71
NtRp2901
(dp2902
g74
(dp2903
sg83
g2888
sg76
(lp2904
g69
(g70
g71
NtRp2905
(dp2906
g74
(dp2907
g82
I4
ssg83
g2901
sg76
(lp2908
g69
(g78
g71
NtRp2909
(dp2910
g74
(dp2911
g82
I3
ssg83
Nsg76
(lp2912
g69
(g85
g71
NtRp2913
(dp2914
g74
(dp2915
sg83
g2909
sg76
(lp2916
g69
(g90
g71
NtRp2917
(dp2918
g74
(dp2919
g94
g95
ssg83
g2913
sg76
(lp2920
g283
asbag69
(g90
g71
NtRp2921
(dp2922
g74
(dp2923
g101
g102
ssg83
g2913
sg76
(lp2924
S':'
asbag69
(g90
g71
NtRp2925
(dp2926
g74
(dp2927
sg83
g2913
sg76
(lp2928
g69
(g70
g71
NtRp2929
(dp2930
g74
(dp2931
g82
I3
ssg83
g2925
sg76
(lp2932
S''
asbasbasbag69
(g85
g71
NtRp2933
(dp2934
g74
(dp2935
sg83
g2909
sg76
(lp2936
g69
(g90
g71
NtRp2937
(dp2938
g74
(dp2939
g94
g95
ssg83
g2933
sg76
(lp2940
g304
asbag69
(g90
g71
NtRp2941
(dp2942
g74
(dp2943
g101
g102
ssg83
g2933
sg76
(lp2944
S':'
asbag69
(g90
g71
NtRp2945
(dp2946
g74
(dp2947
sg83
g2933
sg76
(lp2948
g69
(g70
g71
NtRp2949
(dp2950
g74
(dp2951
g82
I3
ssg83
g2945
sg76
(lp2952
S''
asbasbasbag69
(g85
g71
NtRp2953
(dp2954
g74
(dp2955
sg83
g2909
sg76
(lp2956
g69
(g90
g71
NtRp2957
(dp2958
g74
(dp2959
g94
g95
ssg83
g2953
sg76
(lp2960
g325
asbag69
(g90
g71
NtRp2961
(dp2962
g74
(dp2963
g101
g102
ssg83
g2953
sg76
(lp2964
S':'
asbag69
(g90
g71
NtRp2965
(dp2966
g74
(dp2967
sg83
g2953
sg76
(lp2968
g69
(g70
g71
NtRp2969
(dp2970
g74
(dp2971
g82
I3
ssg83
g2965
sg76
(lp2972
S''
asbasbasbag69
(g85
g71
NtRp2973
(dp2974
g74
(dp2975
sg83
g2909
sg76
(lp2976
g69
(g90
g71
NtRp2977
(dp2978
g74
(dp2979
g94
g95
ssg83
g2973
sg76
(lp2980
g346
asbag69
(g90
g71
NtRp2981
(dp2982
g74
(dp2983
g101
g102
ssg83
g2973
sg76
(lp2984
S':'
asbag69
(g90
g71
NtRp2985
(dp2986
g74
(dp2987
sg83
g2973
sg76
(lp2988
g69
(g70
g71
NtRp2989
(dp2990
g74
(dp2991
g82
I3
ssg83
g2985
sg76
(lp2992
S''
asbasbasbag69
(g85
g71
NtRp2993
(dp2994
g74
(dp2995
sg83
g2909
sg76
(lp2996
g69
(g90
g71
NtRp2997
(dp2998
g74
(dp2999
g94
g95
ssg83
g2993
sg76
(lp3000
g367
asbag69
(g90
g71
NtRp3001
(dp3002
g74
(dp3003
g101
g102
ssg83
g2993
sg76
(lp3004
S':'
asbag69
(g90
g71
NtRp3005
(dp3006
g74
(dp3007
sg83
g2993
sg76
(lp3008
g69
(g70
g71
NtRp3009
(dp3010
g74
(dp3011
g82
I3
ssg83
g3005
sg76
(lp3012
S''
asbasbasbag69
(g85
g71
NtRp3013
(dp3014
g74
(dp3015
sg83
g2909
sg76
(lp3016
g69
(g90
g71
NtRp3017
(dp3018
g74
(dp3019
g94
g95
ssg83
g3013
sg76
(lp3020
g388
asbag69
(g90
g71
NtRp3021
(dp3022
g74
(dp3023
g101
g102
ssg83
g3013
sg76
(lp3024
S':'
asbag69
(g90
g71
NtRp3025
(dp3026
g74
(dp3027
sg83
g3013
sg76
(lp3028
g69
(g70
g71
NtRp3029
(dp3030
g74
(dp3031
g82
I3
ssg83
g3025
sg76
(lp3032
S'/'
asbasbasbag69
(g85
g71
NtRp3033
(dp3034
g74
(dp3035
sg83
g2909
sg76
(lp3036
g69
(g90
g71
NtRp3037
(dp3038
g74
(dp3039
g94
g95
ssg83
g3033
sg76
(lp3040
g409
asbag69
(g90
g71
NtRp3041
(dp3042
g74
(dp3043
g101
g102
ssg83
g3033
sg76
(lp3044
S':'
asbag69
(g90
g71
NtRp3045
(dp3046
g74
(dp3047
sg83
g3033
sg76
(lp3048
g69
(g70
g71
NtRp3049
(dp3050
g74
(dp3051
g82
I3
ssg83
g3045
sg76
(lp3052
S''
asbasbasbag69
(g85
g71
NtRp3053
(dp3054
g74
(dp3055
sg83
g2909
sg76
(lp3056
g69
(g90
g71
NtRp3057
(dp3058
g74
(dp3059
g94
g95
ssg83
g3053
sg76
(lp3060
g430
asbag69
(g90
g71
NtRp3061
(dp3062
g74
(dp3063
g101
g102
ssg83
g3053
sg76
(lp3064
S':'
asbag69
(g90
g71
NtRp3065
(dp3066
g74
(dp3067
sg83
g3053
sg76
(lp3068
g69
(g70
g71
NtRp3069
(dp3070
g74
(dp3071
g82
I3
ssg83
g3065
sg76
(lp3072
S''
asbasbasbasbasbasbasbasbasbasbasbag69
(g85
g71
NtRp3073
(dp3074
g74
(dp3075
sg83
g2839
sg76
(lp3076
g69
(g90
g71
NtRp3077
(dp3078
g74
(dp3079
g94
g95
ssg83
g3073
sg76
(lp3080
S'delimiters'
p3081
asbag69
(g90
g71
NtRp3082
(dp3083
g74
(dp3084
g101
g102
ssg83
g3073
sg76
(lp3085
S':'
asbag69
(g90
g71
NtRp3086
(dp3087
g74
(dp3088
sg83
g3073
sg76
(lp3089
g69
(g70
g71
NtRp3090
(dp3091
g74
(dp3092
g82
I5
ssg83
g3086
sg76
(lp3093
g69
(g78
g71
NtRp3094
(dp3095
g74
(dp3096
g82
I4
ssg83
Nsg76
(lp3097
g69
(g85
g71
NtRp3098
(dp3099
g74
(dp3100
sg83
g3094
sg76
(lp3101
g69
(g90
g71
NtRp3102
(dp3103
g74
(dp3104
sg83
g3098
sg76
(lp3105
g69
(g70
g71
NtRp3106
(dp3107
g74
(dp3108
g82
I4
ssg83
g3102
sg76
(lp3109
S'{{'
p3110
asbasbasbag69
(g85
g71
NtRp3111
(dp3112
g74
(dp3113
sg83
g3094
sg76
(lp3114
g69
(g90
g71
NtRp3115
(dp3116
g74
(dp3117
sg83
g3111
sg76
(lp3118
g69
(g70
g71
NtRp3119
(dp3120
g74
(dp3121
g82
I4
ssg83
g3115
sg76
(lp3122
S'}}'
p3123
asbasbasbasbasbasbasbag69
(g85
g71
NtRp3124
(dp3125
g74
(dp3126
sg83
g2839
sg76
(lp3127
g69
(g90
g71
NtRp3128
(dp3129
g74
(dp3130
g94
g95
ssg83
g3124
sg76
(lp3131
S'files'
p3132
asbag69
(g90
g71
NtRp3133
(dp3134
g74
(dp3135
g101
g102
ssg83
g3124
sg76
(lp3136
S':'
asbag69
(g90
g71
NtRp3137
(dp3138
g74
(dp3139
sg83
g3124
sg76
(lp3140
g69
(g70
g71
NtRp3141
(dp3142
g74
(dp3143
g82
I5
ssg83
g3137
sg76
(lp3144
g69
(g78
g71
NtRp3145
(dp3146
g74
(dp3147
g82
I4
ssg83
Nsg76
(lp3148
sbasbasbasbag69
(g85
g71
NtRp3149
(dp3150
g74
(dp3151
sg83
g2839
sg76
(lp3152
g69
(g90
g71
NtRp3153
(dp3154
g74
(dp3155
g94
g95
ssg83
g3149
sg76
(lp3156
S'flash'
p3157
asbag69
(g90
g71
NtRp3158
(dp3159
g74
(dp3160
g101
g102
ssg83
g3149
sg76
(lp3161
S':'
asbag69
(g90
g71
NtRp3162
(dp3163
g74
(dp3164
sg83
g3149
sg76
(lp3165
g69
(g70
g71
NtRp3166
(dp3167
g74
(dp3168
g82
I5
ssg83
g3162
sg76
(lp3169
S''
asbasbasbag69
(g85
g71
NtRp3170
(dp3171
g74
(dp3172
sg83
g2839
sg76
(lp3173
g69
(g90
g71
NtRp3174
(dp3175
g74
(dp3176
g94
g95
ssg83
g3170
sg76
(lp3177
S'generic_patterns'
p3178
asbag69
(g90
g71
NtRp3179
(dp3180
g74
(dp3181
g101
g102
ssg83
g3170
sg76
(lp3182
S':'
asbag69
(g90
g71
NtRp3183
(dp3184
g74
(dp3185
sg83
g3170
sg76
(lp3186
g69
(g70
g71
NtRp3187
(dp3188
g74
(dp3189
g82
I5
ssg83
g3183
sg76
(lp3190
g69
(g78
g71
NtRp3191
(dp3192
g74
(dp3193
g82
I4
ssg83
Nsg76
(lp3194
g69
(g85
g71
NtRp3195
(dp3196
g74
(dp3197
sg83
g3191
sg76
(lp3198
g69
(g90
g71
NtRp3199
(dp3200
g74
(dp3201
sg83
g3195
sg76
(lp3202
g69
(g70
g71
NtRp3203
(dp3204
g74
(dp3205
g82
I4
ssg83
g3199
sg76
(lp3206
S'*'
asbasbasbasbasbasbasbag69
(g85
g71
NtRp3207
(dp3208
g74
(dp3209
sg83
g2839
sg76
(lp3210
g69
(g90
g71
NtRp3211
(dp3212
g74
(dp3213
g94
g95
ssg83
g3207
sg76
(lp3214
S'headers'
p3215
asbag69
(g90
g71
NtRp3216
(dp3217
g74
(dp3218
g101
g102
ssg83
g3207
sg76
(lp3219
S':'
asbag69
(g90
g71
NtRp3220
(dp3221
g74
(dp3222
sg83
g3207
sg76
(lp3223
g69
(g70
g71
NtRp3224
(dp3225
g74
(dp3226
g82
I5
ssg83
g3220
sg76
(lp3227
g69
(g78
g71
NtRp3228
(dp3229
g74
(dp3230
g82
I4
ssg83
Nsg76
(lp3231
g69
(g85
g71
NtRp3232
(dp3233
g74
(dp3234
sg83
g3228
sg76
(lp3235
g69
(g90
g71
NtRp3236
(dp3237
g74
(dp3238
g94
g95
ssg83
g3232
sg76
(lp3239
S'Cache-Control'
p3240
asbag69
(g90
g71
NtRp3241
(dp3242
g74
(dp3243
g101
g102
ssg83
g3232
sg76
(lp3244
S':'
asbag69
(g90
g71
NtRp3245
(dp3246
g74
(dp3247
sg83
g3232
sg76
(lp3248
g69
(g70
g71
NtRp3249
(dp3250
g74
(dp3251
g82
I4
ssg83
g3245
sg76
(lp3252
S'no-store, no-cache, must-revalidate, post-check=0, pre-check=0'
p3253
asbasbasbag69
(g85
g71
NtRp3254
(dp3255
g74
(dp3256
sg83
g3228
sg76
(lp3257
g69
(g90
g71
NtRp3258
(dp3259
g74
(dp3260
g94
g95
ssg83
g3254
sg76
(lp3261
S'Content-Type'
p3262
asbag69
(g90
g71
NtRp3263
(dp3264
g74
(dp3265
g101
g102
ssg83
g3254
sg76
(lp3266
S':'
asbag69
(g90
g71
NtRp3267
(dp3268
g74
(dp3269
sg83
g3254
sg76
(lp3270
g69
(g70
g71
NtRp3271
(dp3272
g74
(dp3273
g82
I4
ssg83
g3267
sg76
(lp3274
S'text/html; charset=utf-8'
p3275
asbasbasbag69
(g85
g71
NtRp3276
(dp3277
g74
(dp3278
sg83
g3228
sg76
(lp3279
g69
(g90
g71
NtRp3280
(dp3281
g74
(dp3282
g94
g95
ssg83
g3276
sg76
(lp3283
S'Expires'
p3284
asbag69
(g90
g71
NtRp3285
(dp3286
g74
(dp3287
g101
g102
ssg83
g3276
sg76
(lp3288
S':'
asbag69
(g90
g71
NtRp3289
(dp3290
g74
(dp3291
sg83
g3276
sg76
(lp3292
g69
(g70
g71
NtRp3293
(dp3294
g74
(dp3295
g82
I4
ssg83
g3289
sg76
(lp3296
S'Sun, 20 May 2012 23:08:14 GMT'
p3297
asbasbasbag69
(g85
g71
NtRp3298
(dp3299
g74
(dp3300
sg83
g3228
sg76
(lp3301
g69
(g90
g71
NtRp3302
(dp3303
g74
(dp3304
g94
g95
ssg83
g3298
sg76
(lp3305
S'Pragma'
p3306
asbag69
(g90
g71
NtRp3307
(dp3308
g74
(dp3309
g101
g102
ssg83
g3298
sg76
(lp3310
S':'
asbag69
(g90
g71
NtRp3311
(dp3312
g74
(dp3313
sg83
g3298
sg76
(lp3314
g69
(g70
g71
NtRp3315
(dp3316
g74
(dp3317
g82
I4
ssg83
g3311
sg76
(lp3318
S'no-cache'
p3319
asbasbasbag69
(g85
g71
NtRp3320
(dp3321
g74
(dp3322
sg83
g3228
sg76
(lp3323
g69
(g90
g71
NtRp3324
(dp3325
g74
(dp3326
g94
g95
ssg83
g3320
sg76
(lp3327
S'X-Powered-By'
p3328
asbag69
(g90
g71
NtRp3329
(dp3330
g74
(dp3331
g101
g102
ssg83
g3320
sg76
(lp3332
S':'
asbag69
(g90
g71
NtRp3333
(dp3334
g74
(dp3335
sg83
g3320
sg76
(lp3336
g69
(g70
g71
NtRp3337
(dp3338
g74
(dp3339
g82
I4
ssg83
g3333
sg76
(lp3340
S'web2py'
p3341
asbasbasbasbasbasbasbag69
(g85
g71
NtRp3342
(dp3343
g74
(dp3344
sg83
g2839
sg76
(lp3345
g69
(g90
g71
NtRp3346
(dp3347
g74
(dp3348
g94
g95
ssg83
g3342
sg76
(lp3349
S'menu'
p3350
asbag69
(g90
g71
NtRp3351
(dp3352
g74
(dp3353
g101
g102
ssg83
g3342
sg76
(lp3354
S':'
asbag69
(g90
g71
NtRp3355
(dp3356
g74
(dp3357
sg83
g3342
sg76
(lp3358
g69
(g70
g71
NtRp3359
(dp3360
g74
(dp3361
g82
I5
ssg83
g3355
sg76
(lp3362
g69
(g78
g71
NtRp3363
(dp3364
g74
(dp3365
g82
I4
ssg83
Nsg76
(lp3366
g69
(g85
g71
NtRp3367
(dp3368
g74
(dp3369
sg83
g3363
sg76
(lp3370
g69
(g90
g71
NtRp3371
(dp3372
g74
(dp3373
sg83
g3367
sg76
(lp3374
g69
(g70
g71
NtRp3375
(dp3376
g74
(dp3377
g82
I4
ssg83
g3371
sg76
(lp3378
g69
(g78
g71
NtRp3379
(dp3380
g74
(dp3381
g82
I3
ssg83
Nsg76
(lp3382
g69
(g85
g71
NtRp3383
(dp3384
g74
(dp3385
sg83
g3379
sg76
(lp3386
g69
(g90
g71
NtRp3387
(dp3388
g74
(dp3389
sg83
g3383
sg76
(lp3390
g69
(g70
g71
NtRp3391
(dp3392
g74
(dp3393
g82
I3
ssg83
g3387
sg76
(lp3394
cgluon.languages
lazyT_unpickle
p3395
(S't\x05\x00\x00\x00Votes'
tRp3396
asbasbasbag69
(g85
g71
NtRp3397
(dp3398
g74
(dp3399
sg83
g3379
sg76
(lp3400
g69
(g90
g71
NtRp3401
(dp3402
g74
(dp3403
sg83
g3397
sg76
(lp3404
g69
(g70
g71
NtRp3405
(dp3406
g74
(dp3407
g82
I3
ssg83
g3401
sg76
(lp3408
g112
asbasbasbag69
(g85
g71
NtRp3409
(dp3410
g74
(dp3411
sg83
g3379
sg76
(lp3412
g69
(g90
g71
NtRp3413
(dp3414
g74
(dp3415
sg83
g3409
sg76
(lp3416
g69
(g70
g71
NtRp3417
(dp3418
g74
(dp3419
g82
I3
ssg83
g3413
sg76
(lp3420
S'/bigvotes/default/index'
p3421
asbasbasbag69
(g85
g71
NtRp3422
(dp3423
g74
(dp3424
sg83
g3379
sg76
(lp3425
g69
(g90
g71
NtRp3426
(dp3427
g74
(dp3428
sg83
g3422
sg76
(lp3429
g69
(g70
g71
NtRp3430
(dp3431
g74
(dp3432
g82
I3
ssg83
g3426
sg76
(lp3433
g69
(g78
g71
NtRp3434
(dp3435
g74
(dp3436
g82
I2
ssg83
Nsg76
(lp3437
sbasbasbasbasbasbasbasbag69
(g85
g71
NtRp3438
(dp3439
g74
(dp3440
sg83
g3363
sg76
(lp3441
g69
(g90
g71
NtRp3442
(dp3443
g74
(dp3444
sg83
g3438
sg76
(lp3445
g69
(g70
g71
NtRp3446
(dp3447
g74
(dp3448
g82
I4
ssg83
g3442
sg76
(lp3449
g69
(g78
g71
NtRp3450
(dp3451
g74
(dp3452
g82
I3
ssg83
Nsg76
(lp3453
g69
(g85
g71
NtRp3454
(dp3455
g74
(dp3456
sg83
g3450
sg76
(lp3457
g69
(g90
g71
NtRp3458
(dp3459
g74
(dp3460
sg83
g3454
sg76
(lp3461
g69
(g70
g71
NtRp3462
(dp3463
g74
(dp3464
g82
I3
ssg83
g3458
sg76
(lp3465
g3395
(S't\x07\x00\x00\x00Members'
tRp3466
asbasbasbag69
(g85
g71
NtRp3467
(dp3468
g74
(dp3469
sg83
g3450
sg76
(lp3470
g69
(g90
g71
NtRp3471
(dp3472
g74
(dp3473
sg83
g3467
sg76
(lp3474
g69
(g70
g71
NtRp3475
(dp3476
g74
(dp3477
g82
I3
ssg83
g3471
sg76
(lp3478
g112
asbasbasbag69
(g85
g71
NtRp3479
(dp3480
g74
(dp3481
sg83
g3450
sg76
(lp3482
g69
(g90
g71
NtRp3483
(dp3484
g74
(dp3485
sg83
g3479
sg76
(lp3486
g69
(g70
g71
NtRp3487
(dp3488
g74
(dp3489
g82
I3
ssg83
g3483
sg76
(lp3490
S'/bigvotes/member/index'
p3491
asbasbasbag69
(g85
g71
NtRp3492
(dp3493
g74
(dp3494
sg83
g3450
sg76
(lp3495
g69
(g90
g71
NtRp3496
(dp3497
g74
(dp3498
sg83
g3492
sg76
(lp3499
g69
(g70
g71
NtRp3500
(dp3501
g74
(dp3502
g82
I3
ssg83
g3496
sg76
(lp3503
g69
(g78
g71
NtRp3504
(dp3505
g74
(dp3506
g82
I2
ssg83
Nsg76
(lp3507
sbasbasbasbasbasbasbasbag69
(g85
g71
NtRp3508
(dp3509
g74
(dp3510
sg83
g3363
sg76
(lp3511
g69
(g90
g71
NtRp3512
(dp3513
g74
(dp3514
sg83
g3508
sg76
(lp3515
g69
(g70
g71
NtRp3516
(dp3517
g74
(dp3518
g82
I4
ssg83
g3512
sg76
(lp3519
g69
(g78
g71
NtRp3520
(dp3521
g74
(dp3522
g82
I3
ssg83
Nsg76
(lp3523
g69
(g85
g71
NtRp3524
(dp3525
g74
(dp3526
sg83
g3520
sg76
(lp3527
g69
(g90
g71
NtRp3528
(dp3529
g74
(dp3530
sg83
g3524
sg76
(lp3531
g69
(g70
g71
NtRp3532
(dp3533
g74
(dp3534
g82
I3
ssg83
g3528
sg76
(lp3535
g3395
(S's\x12\x00\x00\x00Members Eliminated'
tRp3536
asbasbasbag69
(g85
g71
NtRp3537
(dp3538
g74
(dp3539
sg83
g3520
sg76
(lp3540
g69
(g90
g71
NtRp3541
(dp3542
g74
(dp3543
sg83
g3537
sg76
(lp3544
g69
(g70
g71
NtRp3545
(dp3546
g74
(dp3547
g82
I3
ssg83
g3541
sg76
(lp3548
g112
asbasbasbag69
(g85
g71
NtRp3549
(dp3550
g74
(dp3551
sg83
g3520
sg76
(lp3552
g69
(g90
g71
NtRp3553
(dp3554
g74
(dp3555
sg83
g3549
sg76
(lp3556
g69
(g70
g71
NtRp3557
(dp3558
g74
(dp3559
g82
I3
ssg83
g3553
sg76
(lp3560
S'/bigvotes/member/eliminated'
p3561
asbasbasbag69
(g85
g71
NtRp3562
(dp3563
g74
(dp3564
sg83
g3520
sg76
(lp3565
g69
(g90
g71
NtRp3566
(dp3567
g74
(dp3568
sg83
g3562
sg76
(lp3569
g69
(g70
g71
NtRp3570
(dp3571
g74
(dp3572
g82
I3
ssg83
g3566
sg76
(lp3573
g69
(g78
g71
NtRp3574
(dp3575
g74
(dp3576
g82
I2
ssg83
Nsg76
(lp3577
sbasbasbasbasbasbasbasbasbasbasbasbag69
(g85
g71
NtRp3578
(dp3579
g74
(dp3580
sg83
g2839
sg76
(lp3581
g69
(g90
g71
NtRp3582
(dp3583
g74
(dp3584
g94
g95
ssg83
g3578
sg76
(lp3585
S'meta'
p3586
asbag69
(g90
g71
NtRp3587
(dp3588
g74
(dp3589
g101
g102
ssg83
g3578
sg76
(lp3590
S':'
asbag69
(g90
g71
NtRp3591
(dp3592
g74
(dp3593
sg83
g3578
sg76
(lp3594
g69
(g70
g71
NtRp3595
(dp3596
g74
(dp3597
g82
I5
ssg83
g3591
sg76
(lp3598
g69
(g78
g71
NtRp3599
(dp3600
g74
(dp3601
g82
I4
ssg83
Nsg76
(lp3602
g69
(g85
g71
NtRp3603
(dp3604
g74
(dp3605
sg83
g3599
sg76
(lp3606
g69
(g90
g71
NtRp3607
(dp3608
g74
(dp3609
g94
g95
ssg83
g3603
sg76
(lp3610
S'author'
p3611
asbag69
(g90
g71
NtRp3612
(dp3613
g74
(dp3614
g101
g102
ssg83
g3603
sg76
(lp3615
S':'
asbag69
(g90
g71
NtRp3616
(dp3617
g74
(dp3618
sg83
g3603
sg76
(lp3619
g69
(g70
g71
NtRp3620
(dp3621
g74
(dp3622
g82
I4
ssg83
g3616
sg76
(lp3623
S'Kaique da Silva <kaique.developer@gmail.com>'
p3624
asbasbasbag69
(g85
g71
NtRp3625
(dp3626
g74
(dp3627
sg83
g3599
sg76
(lp3628
g69
(g90
g71
NtRp3629
(dp3630
g74
(dp3631
g94
g95
ssg83
g3625
sg76
(lp3632
S'copyright'
p3633
asbag69
(g90
g71
NtRp3634
(dp3635
g74
(dp3636
g101
g102
ssg83
g3625
sg76
(lp3637
S':'
asbag69
(g90
g71
NtRp3638
(dp3639
g74
(dp3640
sg83
g3625
sg76
(lp3641
g69
(g70
g71
NtRp3642
(dp3643
g74
(dp3644
g82
I4
ssg83
g3638
sg76
(lp3645
S'Copyright 2012'
p3646
asbasbasbag69
(g85
g71
NtRp3647
(dp3648
g74
(dp3649
sg83
g3599
sg76
(lp3650
g69
(g90
g71
NtRp3651
(dp3652
g74
(dp3653
g94
g95
ssg83
g3647
sg76
(lp3654
S'description'
p3655
asbag69
(g90
g71
NtRp3656
(dp3657
g74
(dp3658
g101
g102
ssg83
g3647
sg76
(lp3659
S':'
asbag69
(g90
g71
NtRp3660
(dp3661
g74
(dp3662
sg83
g3647
sg76
(lp3663
g69
(g70
g71
NtRp3664
(dp3665
g74
(dp3666
g82
I4
ssg83
g3660
sg76
(lp3667
S'Challenge app'
p3668
asbasbasbag69
(g85
g71
NtRp3669
(dp3670
g74
(dp3671
sg83
g3599
sg76
(lp3672
g69
(g90
g71
NtRp3673
(dp3674
g74
(dp3675
g94
g95
ssg83
g3669
sg76
(lp3676
S'generator'
p3677
asbag69
(g90
g71
NtRp3678
(dp3679
g74
(dp3680
g101
g102
ssg83
g3669
sg76
(lp3681
S':'
asbag69
(g90
g71
NtRp3682
(dp3683
g74
(dp3684
sg83
g3669
sg76
(lp3685
g69
(g70
g71
NtRp3686
(dp3687
g74
(dp3688
g82
I4
ssg83
g3682
sg76
(lp3689
S'Web2py Web Framework'
p3690
asbasbasbag69
(g85
g71
NtRp3691
(dp3692
g74
(dp3693
sg83
g3599
sg76
(lp3694
g69
(g90
g71
NtRp3695
(dp3696
g74
(dp3697
g94
g95
ssg83
g3691
sg76
(lp3698
S'keywords'
p3699
asbag69
(g90
g71
NtRp3700
(dp3701
g74
(dp3702
g101
g102
ssg83
g3691
sg76
(lp3703
S':'
asbag69
(g90
g71
NtRp3704
(dp3705
g74
(dp3706
sg83
g3691
sg76
(lp3707
g69
(g70
g71
NtRp3708
(dp3709
g74
(dp3710
g82
I4
ssg83
g3704
sg76
(lp3711
S'BBB, votes, challenge'
p3712
asbasbasbasbasbasbasbag69
(g85
g71
NtRp3713
(dp3714
g74
(dp3715
sg83
g2839
sg76
(lp3716
g69
(g90
g71
NtRp3717
(dp3718
g74
(dp3719
g94
g95
ssg83
g3713
sg76
(lp3720
S'postprocessing'
p3721
asbag69
(g90
g71
NtRp3722
(dp3723
g74
(dp3724
g101
g102
ssg83
g3713
sg76
(lp3725
S':'
asbag69
(g90
g71
NtRp3726
(dp3727
g74
(dp3728
sg83
g3713
sg76
(lp3729
g69
(g70
g71
NtRp3730
(dp3731
g74
(dp3732
g82
I5
ssg83
g3726
sg76
(lp3733
g69
(g78
g71
NtRp3734
(dp3735
g74
(dp3736
g82
I4
ssg83
Nsg76
(lp3737
sbasbasbasbag69
(g85
g71
NtRp3738
(dp3739
g74
(dp3740
sg83
g2839
sg76
(lp3741
g69
(g90
g71
NtRp3742
(dp3743
g74
(dp3744
g94
g95
ssg83
g3738
sg76
(lp3745
S'session_file'
p3746
asbag69
(g90
g71
NtRp3747
(dp3748
g74
(dp3749
g101
g102
ssg83
g3738
sg76
(lp3750
S':'
asbag69
(g90
g71
NtRp3751
(dp3752
g74
(dp3753
sg83
g3738
sg76
(lp3754
g69
(g70
g71
NtRp3755
(dp3756
g74
(dp3757
g82
I5
ssg83
g3751
sg76
(lp3758
S"<open file '/home/kaique/Projects/web/big-votes/web2py/applications/bigvotes/sessions/127.0.0.1-72286364-99c3-4aae-95dc-f33a83b4d6f1', mode 'rb+' at 0xb0472cd8>"
p3759
asbasbasbag69
(g85
g71
NtRp3760
(dp3761
g74
(dp3762
sg83
g2839
sg76
(lp3763
g69
(g90
g71
NtRp3764
(dp3765
g74
(dp3766
g94
g95
ssg83
g3760
sg76
(lp3767
S'session_filename'
p3768
asbag69
(g90
g71
NtRp3769
(dp3770
g74
(dp3771
g101
g102
ssg83
g3760
sg76
(lp3772
S':'
asbag69
(g90
g71
NtRp3773
(dp3774
g74
(dp3775
sg83
g3760
sg76
(lp3776
g69
(g70
g71
NtRp3777
(dp3778
g74
(dp3779
g82
I5
ssg83
g3773
sg76
(lp3780
S'/home/kaique/Projects/web/big-votes/web2py/applications/bigvotes/sessions/127.0.0.1-72286364-99c3-4aae-95dc-f33a83b4d6f1'
p3781
asbasbasbag69
(g85
g71
NtRp3782
(dp3783
g74
(dp3784
sg83
g2839
sg76
(lp3785
g69
(g90
g71
NtRp3786
(dp3787
g74
(dp3788
g94
g95
ssg83
g3782
sg76
(lp3789
S'session_id'
p3790
asbag69
(g90
g71
NtRp3791
(dp3792
g74
(dp3793
g101
g102
ssg83
g3782
sg76
(lp3794
S':'
asbag69
(g90
g71
NtRp3795
(dp3796
g74
(dp3797
sg83
g3782
sg76
(lp3798
g69
(g70
g71
NtRp3799
(dp3800
g74
(dp3801
g82
I5
ssg83
g3795
sg76
(lp3802
S'127.0.0.1-72286364-99c3-4aae-95dc-f33a83b4d6f1'
p3803
asbasbasbag69
(g85
g71
NtRp3804
(dp3805
g74
(dp3806
sg83
g2839
sg76
(lp3807
g69
(g90
g71
NtRp3808
(dp3809
g74
(dp3810
g94
g95
ssg83
g3804
sg76
(lp3811
S'session_id_name'
p3812
asbag69
(g90
g71
NtRp3813
(dp3814
g74
(dp3815
g101
g102
ssg83
g3804
sg76
(lp3816
S':'
asbag69
(g90
g71
NtRp3817
(dp3818
g74
(dp3819
sg83
g3804
sg76
(lp3820
g69
(g70
g71
NtRp3821
(dp3822
g74
(dp3823
g82
I5
ssg83
g3817
sg76
(lp3824
g2896
asbasbasbag69
(g85
g71
NtRp3825
(dp3826
g74
(dp3827
sg83
g2839
sg76
(lp3828
g69
(g90
g71
NtRp3829
(dp3830
g74
(dp3831
g94
g95
ssg83
g3825
sg76
(lp3832
S'session_locked'
p3833
asbag69
(g90
g71
NtRp3834
(dp3835
g74
(dp3836
g101
g102
ssg83
g3825
sg76
(lp3837
S':'
asbag69
(g90
g71
NtRp3838
(dp3839
g74
(dp3840
sg83
g3825
sg76
(lp3841
g69
(g70
g71
NtRp3842
(dp3843
g74
(dp3844
g82
I5
ssg83
g3838
sg76
(lp3845
g1461
asbasbasbag69
(g85
g71
NtRp3846
(dp3847
g74
(dp3848
sg83
g2839
sg76
(lp3849
g69
(g90
g71
NtRp3850
(dp3851
g74
(dp3852
g94
g95
ssg83
g3846
sg76
(lp3853
S'session_new'
p3854
asbag69
(g90
g71
NtRp3855
(dp3856
g74
(dp3857
g101
g102
ssg83
g3846
sg76
(lp3858
S':'
asbag69
(g90
g71
NtRp3859
(dp3860
g74
(dp3861
sg83
g3846
sg76
(lp3862
g69
(g70
g71
NtRp3863
(dp3864
g74
(dp3865
g82
I5
ssg83
g3859
sg76
(lp3866
g112
asbasbasbag69
(g85
g71
NtRp3867
(dp3868
g74
(dp3869
sg83
g2839
sg76
(lp3870
g69
(g90
g71
NtRp3871
(dp3872
g74
(dp3873
g94
g95
ssg83
g3867
sg76
(lp3874
S'status'
p3875
asbag69
(g90
g71
NtRp3876
(dp3877
g74
(dp3878
g101
g102
ssg83
g3867
sg76
(lp3879
S':'
asbag69
(g90
g71
NtRp3880
(dp3881
g74
(dp3882
sg83
g3867
sg76
(lp3883
g69
(g70
g71
NtRp3884
(dp3885
g74
(dp3886
g82
I5
ssg83
g3880
sg76
(lp3887
S'200'
p3888
asbasbasbag69
(g85
g71
NtRp3889
(dp3890
g74
(dp3891
sg83
g2839
sg76
(lp3892
g69
(g90
g71
NtRp3893
(dp3894
g74
(dp3895
g94
g95
ssg83
g3889
sg76
(lp3896
S'subtitle'
p3897
asbag69
(g90
g71
NtRp3898
(dp3899
g74
(dp3900
g101
g102
ssg83
g3889
sg76
(lp3901
S':'
asbag69
(g90
g71
NtRp3902
(dp3903
g74
(dp3904
sg83
g3889
sg76
(lp3905
g69
(g70
g71
NtRp3906
(dp3907
g74
(dp3908
g82
I5
ssg83
g3902
sg76
(lp3909
S'A simple chanllenge'
p3910
asbasbasbag69
(g85
g71
NtRp3911
(dp3912
g74
(dp3913
sg83
g2839
sg76
(lp3914
g69
(g90
g71
NtRp3915
(dp3916
g74
(dp3917
g94
g95
ssg83
g3911
sg76
(lp3918
S'title'
p3919
asbag69
(g90
g71
NtRp3920
(dp3921
g74
(dp3922
g101
g102
ssg83
g3911
sg76
(lp3923
S':'
asbag69
(g90
g71
NtRp3924
(dp3925
g74
(dp3926
sg83
g3911
sg76
(lp3927
g69
(g70
g71
NtRp3928
(dp3929
g74
(dp3930
g82
I5
ssg83
g3924
sg76
(lp3931
S'Big Votes'
p3932
asbasbasbag69
(g85
g71
NtRp3933
(dp3934
g74
(dp3935
sg83
g2839
sg76
(lp3936
g69
(g90
g71
NtRp3937
(dp3938
g74
(dp3939
g94
g95
ssg83
g3933
sg76
(lp3940
g2125
asbag69
(g90
g71
NtRp3941
(dp3942
g74
(dp3943
g101
g102
ssg83
g3933
sg76
(lp3944
S':'
asbag69
(g90
g71
NtRp3945
(dp3946
g74
(dp3947
sg83
g3933
sg76
(lp3948
g69
(g70
g71
NtRp3949
(dp3950
g74
(dp3951
g82
I5
ssg83
g3945
sg76
(lp3952
g2138
asbasbasbag69
(g85
g71
NtRp3953
(dp3954
g74
(dp3955
sg83
g2839
sg76
(lp3956
g69
(g90
g71
NtRp3957
(dp3958
g74
(dp3959
g94
g95
ssg83
g3953
sg76
(lp3960
S'view'
p3961
asbag69
(g90
g71
NtRp3962
(dp3963
g74
(dp3964
g101
g102
ssg83
g3953
sg76
(lp3965
S':'
asbag69
(g90
g71
NtRp3966
(dp3967
g74
(dp3968
sg83
g3953
sg76
(lp3969
g69
(g70
g71
NtRp3970
(dp3971
g74
(dp3972
g82
I5
ssg83
g3966
sg76
(lp3973
S'member/index.html'
p3974
asbasbasbasbasbsS'locals'
p3975
(dp3976
g4
S"'/home/kaique/Projects/web/big-votes/web2py/applications/bigvotes/controllers/member.py'"
p3977
sg6
S"'# -*- coding: utf-8 -*-\\nfrom bigvotes import Mem...embers\\n\\t}\\nresponse._vars=response._caller(index)\\n'"
p3978
sssS'traceback'
p3979
S'Traceback (most recent call last):\n  File "/home/kaique/Projects/web/big-votes/web2py/gluon/restricted.py", line 204, in restricted\n    ccode = compile2(code,layer)\n  File "/home/kaique/Projects/web/big-votes/web2py/gluon/restricted.py", line 189, in compile2\n    return compile(code.rstrip().replace(\'\\r\\n\',\'\\n\')+\'\\n\', layer, \'exec\')\n  File "/home/kaique/Projects/web/big-votes/web2py/applications/bigvotes/controllers/member.py", line 17\n    db.member.id == int( args[0] ) and\nSyntaxError: keyword can\'t be an expression\n'
p3980
s.