(dp1
S'output'
p2
S"<type 'exceptions.IndentationError'> unindent does not match any outer indentation level (vote.py, line 51)"
p3
sS'layer'
p4
S'/home/kaique/Projects/web/big-votes/web2py/applications/bigvotes/controllers/vote.py'
p5
sS'code'
p6
S"# -*- coding: utf-8 -*-\nfrom bigvotes import Votes\nimport datetime\n\ndef index():\n\targs = request.args\n\tclient_ip = request.client\n\tnow = datetime.datetime.now\n\telapsed_time = datetime.timedelta( seconds = 60*5 )\n\toutput = False\n\n\tif args and len( args ) > 0 and client_ip:\n\t\tvoting = Votes(db).getActives( int( args[0] ) ).first()\n\t\t\n\t\tconsult = Votes(db).consult({\n\t\t\t'vote_id': args[0],\n\t\t\t'vote_ip': client_ip,\n\t\t})\n\n\t\tif now() > ( consult.vote_register + elapsed_time ):\n\t\t\tmembers = {}\n\t\t\t# Profile of members in the score\n\t\t\tmembers['profile'] = Votes(db).getScore( args[0] )\n\t\t\t# Score of members\n\t\t\tmembers['scores'] = [ members['profile'][member]['score'] for member in members['profile'] ]\n\t\t\t# Max score to eliminate\n\t\t\tmembers['max_score'] = max( members['scores'] )\n\t\t\t# Min score\n\t\t\tmembers['min_score'] = min( members['scores'] )\n\t\t\t# Members is tied\n\t\t\tmembers['tied'] = ( members['max_score'] == members['min_score'] )\n\t\t\t# Id of members in the profile score\n\t\t\tmembers['ids'] = [ int( member ) for member in members['profile'] ]\n\t\t\t# Names of members\n\t\t\tmembers['names'] = [ member['name'] for member in members['profile'] ]\n\t\t\t# Id of eliminated member\n\t\t\tmembers['eliminated'] = {\n\t\t\t\t'id': members['ids'][ members['scores'].index( members['max_score'] ) ],\n\t\t\t\t'name': members['names'][ members['scores'].index( members['max_score'] ) ],\n\t\t\t} \n\n\t\t\tif members:\n\t\t\t\tif now() > voting['start_at'] and now() < voting['end_at']:\n\t\t\t\t\toutput = Votes(db).newVote( { 'vote': args[0], 'member': args[1] } )\n\t\t\t\t\t\n\t\t\t\t\tif output:\n\t\t\t\t\t\tsession.vote_message = T('Voted in %(name)s' % ( members['profile'].get( int( args[1] ) ) ) )\n\t\t\tif now() > voting['start_at'] and now() > voting['end_at']:\n\t\t\t\t\tsession.vote_message = T('Voting complete, %(name)s was eliminated!' % ( members['eliminated'] ) )\n\n\t\t\t\tif session.vote_message:\n\t\t\t\t\tredirect( URL('default', 'index', args=['result']) )\n\treturn {}\t\n\ndef result():\n\tpass\nresponse._vars=response._caller(index)\n"
p7
sS'snapshot'
p8
(dp9
S'exception'
p10
(dp11
S'__getslice__'
p12
S"<method-wrapper '__getslice__' of exceptions.IndentationError object>"
p13
sS'text'
p14
S"'\\t\\t\\t\\tif session.vote_message:\\n'"
p15
sS'__str__'
p16
S"<method-wrapper '__str__' of exceptions.IndentationError object>"
p17
sS'__reduce__'
p18
S'<built-in method __reduce__ of exceptions.IndentationError object>'
p19
sS'__dict__'
p20
S'{}'
p21
sS'__sizeof__'
p22
S'<built-in method __sizeof__ of exceptions.IndentationError object>'
p23
sS'__init__'
p24
S"<method-wrapper '__init__' of exceptions.IndentationError object>"
p25
sS'__setattr__'
p26
S"<method-wrapper '__setattr__' of exceptions.IndentationError object>"
p27
sS'__reduce_ex__'
p28
S'<built-in method __reduce_ex__ of exceptions.IndentationError object>'
p29
sS'__new__'
p30
S'<built-in method __new__ of type object>'
p31
sS'__format__'
p32
S'<built-in method __format__ of exceptions.IndentationError object>'
p33
sS'__class__'
p34
S"<type 'exceptions.IndentationError'>"
p35
sS'filename'
p36
S"'/home/kaique/Projects/web/big-votes/web2py/applications/bigvotes/controllers/vote.py'"
p37
sS'lineno'
p38
S'51'
p39
sS'msg'
p40
S"'unindent does not match any outer indentation level'"
p41
sS'__doc__'
p42
S"'Improper indentation.'"
p43
sS'__getitem__'
p44
S"<method-wrapper '__getitem__' of exceptions.IndentationError object>"
p45
sS'__setstate__'
p46
S'<built-in method __setstate__ of exceptions.IndentationError object>'
p47
sS'__getattribute__'
p48
S"<method-wrapper '__getattribute__' of exceptions.IndentationError object>"
p49
sS'print_file_and_line'
p50
S'None'
p51
sS'args'
p52
S"('unindent does not match any outer indentation level', ('/home/kaique/Projects/web/big-votes/web2py/applications/bigvotes/controllers/vote.py', 51, 29, '\\t\\t\\t\\tif session.vote_message:\\n'))"
p53
sS'__subclasshook__'
p54
S'<built-in method __subclasshook__ of type object>'
p55
sS'offset'
p56
S'29'
p57
sS'__unicode__'
p58
S'<built-in method __unicode__ of exceptions.IndentationError object>'
p59
sS'__delattr__'
p60
S"<method-wrapper '__delattr__' of exceptions.IndentationError object>"
p61
sS'__repr__'
p62
S"<method-wrapper '__repr__' of exceptions.IndentationError object>"
p63
sS'__hash__'
p64
S"<method-wrapper '__hash__' of exceptions.IndentationError object>"
p65
ssS'evalue'
p66
S'unindent does not match any outer indentation level (vote.py, line 51)'
p67
sS'request'
p68
ccopy_reg
_reconstructor
p69
(cgluon.html
BEAUTIFY
p70
c__builtin__
object
p71
NtRp72
(dp73
S'attributes'
p74
(dp75
sS'components'
p76
(lp77
g69
(cgluon.html
TABLE
p78
g71
NtRp79
(dp80
g74
(dp81
S'level'
p82
I5
ssS'parent'
p83
Nsg76
(lp84
g69
(cgluon.html
TR
p85
g71
NtRp86
(dp87
g74
(dp88
sg83
g79
sg76
(lp89
g69
(cgluon.html
TD
p90
g71
NtRp91
(dp92
g74
(dp93
S'_style'
p94
S'font-weight:bold;vertical-align:top'
p95
ssg83
g86
sg76
(lp96
S'ajax'
p97
asbag69
(g90
g71
NtRp98
(dp99
g74
(dp100
S'_valign'
p101
S'top'
p102
ssg83
g86
sg76
(lp103
S':'
asbag69
(g90
g71
NtRp104
(dp105
g74
(dp106
sg83
g86
sg76
(lp107
g69
(g70
g71
NtRp108
(dp109
g74
(dp110
g82
I5
ssg83
g104
sg76
(lp111
S'False'
p112
asbasbasbag69
(g85
g71
NtRp113
(dp114
g74
(dp115
sg83
g79
sg76
(lp116
g69
(g90
g71
NtRp117
(dp118
g74
(dp119
g94
g95
ssg83
g113
sg76
(lp120
S'application'
p121
asbag69
(g90
g71
NtRp122
(dp123
g74
(dp124
g101
g102
ssg83
g113
sg76
(lp125
S':'
asbag69
(g90
g71
NtRp126
(dp127
g74
(dp128
sg83
g113
sg76
(lp129
g69
(g70
g71
NtRp130
(dp131
g74
(dp132
g82
I5
ssg83
g126
sg76
(lp133
S'bigvotes'
p134
asbasbasbag69
(g85
g71
NtRp135
(dp136
g74
(dp137
sg83
g79
sg76
(lp138
g69
(g90
g71
NtRp139
(dp140
g74
(dp141
g94
g95
ssg83
g135
sg76
(lp142
g52
asbag69
(g90
g71
NtRp143
(dp144
g74
(dp145
g101
g102
ssg83
g135
sg76
(lp146
S':'
asbag69
(g90
g71
NtRp147
(dp148
g74
(dp149
sg83
g135
sg76
(lp150
g69
(g70
g71
NtRp151
(dp152
g74
(dp153
g82
I5
ssg83
g147
sg76
(lp154
g69
(g78
g71
NtRp155
(dp156
g74
(dp157
g82
I4
ssg83
Nsg76
(lp158
g69
(g85
g71
NtRp159
(dp160
g74
(dp161
sg83
g155
sg76
(lp162
g69
(g90
g71
NtRp163
(dp164
g74
(dp165
sg83
g159
sg76
(lp166
g69
(g70
g71
NtRp167
(dp168
g74
(dp169
g82
I4
ssg83
g163
sg76
(lp170
S'1'
asbasbasbag69
(g85
g71
NtRp171
(dp172
g74
(dp173
sg83
g155
sg76
(lp174
g69
(g90
g71
NtRp175
(dp176
g74
(dp177
sg83
g171
sg76
(lp178
g69
(g70
g71
NtRp179
(dp180
g74
(dp181
g82
I4
ssg83
g175
sg76
(lp182
S'2'
asbasbasbasbasbasbasbag69
(g85
g71
NtRp183
(dp184
g74
(dp185
sg83
g79
sg76
(lp186
g69
(g90
g71
NtRp187
(dp188
g74
(dp189
g94
g95
ssg83
g183
sg76
(lp190
S'body'
p191
asbag69
(g90
g71
NtRp192
(dp193
g74
(dp194
g101
g102
ssg83
g183
sg76
(lp195
S':'
asbag69
(g90
g71
NtRp196
(dp197
g74
(dp198
sg83
g183
sg76
(lp199
g69
(g70
g71
NtRp200
(dp201
g74
(dp202
g82
I5
ssg83
g196
sg76
(lp203
S'<cStringIO.StringO object at 0xa3be3e0>'
p204
asbasbasbag69
(g85
g71
NtRp205
(dp206
g74
(dp207
sg83
g79
sg76
(lp208
g69
(g90
g71
NtRp209
(dp210
g74
(dp211
g94
g95
ssg83
g205
sg76
(lp212
S'client'
p213
asbag69
(g90
g71
NtRp214
(dp215
g74
(dp216
g101
g102
ssg83
g205
sg76
(lp217
S':'
asbag69
(g90
g71
NtRp218
(dp219
g74
(dp220
sg83
g205
sg76
(lp221
g69
(g70
g71
NtRp222
(dp223
g74
(dp224
g82
I5
ssg83
g218
sg76
(lp225
S'127.0.0.1'
p226
asbasbasbag69
(g85
g71
NtRp227
(dp228
g74
(dp229
sg83
g79
sg76
(lp230
g69
(g90
g71
NtRp231
(dp232
g74
(dp233
g94
g95
ssg83
g227
sg76
(lp234
S'controller'
p235
asbag69
(g90
g71
NtRp236
(dp237
g74
(dp238
g101
g102
ssg83
g227
sg76
(lp239
S':'
asbag69
(g90
g71
NtRp240
(dp241
g74
(dp242
sg83
g227
sg76
(lp243
g69
(g70
g71
NtRp244
(dp245
g74
(dp246
g82
I5
ssg83
g240
sg76
(lp247
S'vote'
p248
asbasbasbag69
(g85
g71
NtRp249
(dp250
g74
(dp251
sg83
g79
sg76
(lp252
g69
(g90
g71
NtRp253
(dp254
g74
(dp255
g94
g95
ssg83
g249
sg76
(lp256
S'cookies'
p257
asbag69
(g90
g71
NtRp258
(dp259
g74
(dp260
g101
g102
ssg83
g249
sg76
(lp261
S':'
asbag69
(g90
g71
NtRp262
(dp263
g74
(dp264
sg83
g249
sg76
(lp265
g69
(g70
g71
NtRp266
(dp267
g74
(dp268
g82
I5
ssg83
g262
sg76
(lp269
g69
(g78
g71
NtRp270
(dp271
g74
(dp272
g82
I4
ssg83
Nsg76
(lp273
g69
(g85
g71
NtRp274
(dp275
g74
(dp276
sg83
g270
sg76
(lp277
g69
(g90
g71
NtRp278
(dp279
g74
(dp280
g94
g95
ssg83
g274
sg76
(lp281
S'session_id_admin'
p282
asbag69
(g90
g71
NtRp283
(dp284
g74
(dp285
g101
g102
ssg83
g274
sg76
(lp286
S':'
asbag69
(g90
g71
NtRp287
(dp288
g74
(dp289
sg83
g274
sg76
(lp290
g69
(g70
g71
NtRp291
(dp292
g74
(dp293
g82
I4
ssg83
g287
sg76
(lp294
g69
(g78
g71
NtRp295
(dp296
g74
(dp297
g82
I3
ssg83
Nsg76
(lp298
g69
(g85
g71
NtRp299
(dp300
g74
(dp301
sg83
g295
sg76
(lp302
g69
(g90
g71
NtRp303
(dp304
g74
(dp305
g94
g95
ssg83
g299
sg76
(lp306
S'comment'
p307
asbag69
(g90
g71
NtRp308
(dp309
g74
(dp310
g101
g102
ssg83
g299
sg76
(lp311
S':'
asbag69
(g90
g71
NtRp312
(dp313
g74
(dp314
sg83
g299
sg76
(lp315
g69
(g70
g71
NtRp316
(dp317
g74
(dp318
g82
I3
ssg83
g312
sg76
(lp319
S''
asbasbasbag69
(g85
g71
NtRp320
(dp321
g74
(dp322
sg83
g295
sg76
(lp323
g69
(g90
g71
NtRp324
(dp325
g74
(dp326
g94
g95
ssg83
g320
sg76
(lp327
S'domain'
p328
asbag69
(g90
g71
NtRp329
(dp330
g74
(dp331
g101
g102
ssg83
g320
sg76
(lp332
S':'
asbag69
(g90
g71
NtRp333
(dp334
g74
(dp335
sg83
g320
sg76
(lp336
g69
(g70
g71
NtRp337
(dp338
g74
(dp339
g82
I3
ssg83
g333
sg76
(lp340
S''
asbasbasbag69
(g85
g71
NtRp341
(dp342
g74
(dp343
sg83
g295
sg76
(lp344
g69
(g90
g71
NtRp345
(dp346
g74
(dp347
g94
g95
ssg83
g341
sg76
(lp348
S'expires'
p349
asbag69
(g90
g71
NtRp350
(dp351
g74
(dp352
g101
g102
ssg83
g341
sg76
(lp353
S':'
asbag69
(g90
g71
NtRp354
(dp355
g74
(dp356
sg83
g341
sg76
(lp357
g69
(g70
g71
NtRp358
(dp359
g74
(dp360
g82
I3
ssg83
g354
sg76
(lp361
S''
asbasbasbag69
(g85
g71
NtRp362
(dp363
g74
(dp364
sg83
g295
sg76
(lp365
g69
(g90
g71
NtRp366
(dp367
g74
(dp368
g94
g95
ssg83
g362
sg76
(lp369
S'httponly'
p370
asbag69
(g90
g71
NtRp371
(dp372
g74
(dp373
g101
g102
ssg83
g362
sg76
(lp374
S':'
asbag69
(g90
g71
NtRp375
(dp376
g74
(dp377
sg83
g362
sg76
(lp378
g69
(g70
g71
NtRp379
(dp380
g74
(dp381
g82
I3
ssg83
g375
sg76
(lp382
S''
asbasbasbag69
(g85
g71
NtRp383
(dp384
g74
(dp385
sg83
g295
sg76
(lp386
g69
(g90
g71
NtRp387
(dp388
g74
(dp389
g94
g95
ssg83
g383
sg76
(lp390
S'max-age'
p391
asbag69
(g90
g71
NtRp392
(dp393
g74
(dp394
g101
g102
ssg83
g383
sg76
(lp395
S':'
asbag69
(g90
g71
NtRp396
(dp397
g74
(dp398
sg83
g383
sg76
(lp399
g69
(g70
g71
NtRp400
(dp401
g74
(dp402
g82
I3
ssg83
g396
sg76
(lp403
S''
asbasbasbag69
(g85
g71
NtRp404
(dp405
g74
(dp406
sg83
g295
sg76
(lp407
g69
(g90
g71
NtRp408
(dp409
g74
(dp410
g94
g95
ssg83
g404
sg76
(lp411
S'path'
p412
asbag69
(g90
g71
NtRp413
(dp414
g74
(dp415
g101
g102
ssg83
g404
sg76
(lp416
S':'
asbag69
(g90
g71
NtRp417
(dp418
g74
(dp419
sg83
g404
sg76
(lp420
g69
(g70
g71
NtRp421
(dp422
g74
(dp423
g82
I3
ssg83
g417
sg76
(lp424
S''
asbasbasbag69
(g85
g71
NtRp425
(dp426
g74
(dp427
sg83
g295
sg76
(lp428
g69
(g90
g71
NtRp429
(dp430
g74
(dp431
g94
g95
ssg83
g425
sg76
(lp432
S'secure'
p433
asbag69
(g90
g71
NtRp434
(dp435
g74
(dp436
g101
g102
ssg83
g425
sg76
(lp437
S':'
asbag69
(g90
g71
NtRp438
(dp439
g74
(dp440
sg83
g425
sg76
(lp441
g69
(g70
g71
NtRp442
(dp443
g74
(dp444
g82
I3
ssg83
g438
sg76
(lp445
S''
asbasbasbag69
(g85
g71
NtRp446
(dp447
g74
(dp448
sg83
g295
sg76
(lp449
g69
(g90
g71
NtRp450
(dp451
g74
(dp452
g94
g95
ssg83
g446
sg76
(lp453
S'version'
p454
asbag69
(g90
g71
NtRp455
(dp456
g74
(dp457
g101
g102
ssg83
g446
sg76
(lp458
S':'
asbag69
(g90
g71
NtRp459
(dp460
g74
(dp461
sg83
g446
sg76
(lp462
g69
(g70
g71
NtRp463
(dp464
g74
(dp465
g82
I3
ssg83
g459
sg76
(lp466
S''
asbasbasbasbasbasbasbag69
(g85
g71
NtRp467
(dp468
g74
(dp469
sg83
g270
sg76
(lp470
g69
(g90
g71
NtRp471
(dp472
g74
(dp473
g94
g95
ssg83
g467
sg76
(lp474
S'session_id_bigvotes'
p475
asbag69
(g90
g71
NtRp476
(dp477
g74
(dp478
g101
g102
ssg83
g467
sg76
(lp479
S':'
asbag69
(g90
g71
NtRp480
(dp481
g74
(dp482
sg83
g467
sg76
(lp483
g69
(g70
g71
NtRp484
(dp485
g74
(dp486
g82
I4
ssg83
g480
sg76
(lp487
g69
(g78
g71
NtRp488
(dp489
g74
(dp490
g82
I3
ssg83
Nsg76
(lp491
g69
(g85
g71
NtRp492
(dp493
g74
(dp494
sg83
g488
sg76
(lp495
g69
(g90
g71
NtRp496
(dp497
g74
(dp498
g94
g95
ssg83
g492
sg76
(lp499
g307
asbag69
(g90
g71
NtRp500
(dp501
g74
(dp502
g101
g102
ssg83
g492
sg76
(lp503
S':'
asbag69
(g90
g71
NtRp504
(dp505
g74
(dp506
sg83
g492
sg76
(lp507
g69
(g70
g71
NtRp508
(dp509
g74
(dp510
g82
I3
ssg83
g504
sg76
(lp511
S''
asbasbasbag69
(g85
g71
NtRp512
(dp513
g74
(dp514
sg83
g488
sg76
(lp515
g69
(g90
g71
NtRp516
(dp517
g74
(dp518
g94
g95
ssg83
g512
sg76
(lp519
g328
asbag69
(g90
g71
NtRp520
(dp521
g74
(dp522
g101
g102
ssg83
g512
sg76
(lp523
S':'
asbag69
(g90
g71
NtRp524
(dp525
g74
(dp526
sg83
g512
sg76
(lp527
g69
(g70
g71
NtRp528
(dp529
g74
(dp530
g82
I3
ssg83
g524
sg76
(lp531
S''
asbasbasbag69
(g85
g71
NtRp532
(dp533
g74
(dp534
sg83
g488
sg76
(lp535
g69
(g90
g71
NtRp536
(dp537
g74
(dp538
g94
g95
ssg83
g532
sg76
(lp539
g349
asbag69
(g90
g71
NtRp540
(dp541
g74
(dp542
g101
g102
ssg83
g532
sg76
(lp543
S':'
asbag69
(g90
g71
NtRp544
(dp545
g74
(dp546
sg83
g532
sg76
(lp547
g69
(g70
g71
NtRp548
(dp549
g74
(dp550
g82
I3
ssg83
g544
sg76
(lp551
S''
asbasbasbag69
(g85
g71
NtRp552
(dp553
g74
(dp554
sg83
g488
sg76
(lp555
g69
(g90
g71
NtRp556
(dp557
g74
(dp558
g94
g95
ssg83
g552
sg76
(lp559
g370
asbag69
(g90
g71
NtRp560
(dp561
g74
(dp562
g101
g102
ssg83
g552
sg76
(lp563
S':'
asbag69
(g90
g71
NtRp564
(dp565
g74
(dp566
sg83
g552
sg76
(lp567
g69
(g70
g71
NtRp568
(dp569
g74
(dp570
g82
I3
ssg83
g564
sg76
(lp571
S''
asbasbasbag69
(g85
g71
NtRp572
(dp573
g74
(dp574
sg83
g488
sg76
(lp575
g69
(g90
g71
NtRp576
(dp577
g74
(dp578
g94
g95
ssg83
g572
sg76
(lp579
g391
asbag69
(g90
g71
NtRp580
(dp581
g74
(dp582
g101
g102
ssg83
g572
sg76
(lp583
S':'
asbag69
(g90
g71
NtRp584
(dp585
g74
(dp586
sg83
g572
sg76
(lp587
g69
(g70
g71
NtRp588
(dp589
g74
(dp590
g82
I3
ssg83
g584
sg76
(lp591
S''
asbasbasbag69
(g85
g71
NtRp592
(dp593
g74
(dp594
sg83
g488
sg76
(lp595
g69
(g90
g71
NtRp596
(dp597
g74
(dp598
g94
g95
ssg83
g592
sg76
(lp599
g412
asbag69
(g90
g71
NtRp600
(dp601
g74
(dp602
g101
g102
ssg83
g592
sg76
(lp603
S':'
asbag69
(g90
g71
NtRp604
(dp605
g74
(dp606
sg83
g592
sg76
(lp607
g69
(g70
g71
NtRp608
(dp609
g74
(dp610
g82
I3
ssg83
g604
sg76
(lp611
S''
asbasbasbag69
(g85
g71
NtRp612
(dp613
g74
(dp614
sg83
g488
sg76
(lp615
g69
(g90
g71
NtRp616
(dp617
g74
(dp618
g94
g95
ssg83
g612
sg76
(lp619
g433
asbag69
(g90
g71
NtRp620
(dp621
g74
(dp622
g101
g102
ssg83
g612
sg76
(lp623
S':'
asbag69
(g90
g71
NtRp624
(dp625
g74
(dp626
sg83
g612
sg76
(lp627
g69
(g70
g71
NtRp628
(dp629
g74
(dp630
g82
I3
ssg83
g624
sg76
(lp631
S''
asbasbasbag69
(g85
g71
NtRp632
(dp633
g74
(dp634
sg83
g488
sg76
(lp635
g69
(g90
g71
NtRp636
(dp637
g74
(dp638
g94
g95
ssg83
g632
sg76
(lp639
g454
asbag69
(g90
g71
NtRp640
(dp641
g74
(dp642
g101
g102
ssg83
g632
sg76
(lp643
S':'
asbag69
(g90
g71
NtRp644
(dp645
g74
(dp646
sg83
g632
sg76
(lp647
g69
(g70
g71
NtRp648
(dp649
g74
(dp650
g82
I3
ssg83
g644
sg76
(lp651
S''
asbasbasbasbasbasbasbag69
(g85
g71
NtRp652
(dp653
g74
(dp654
sg83
g270
sg76
(lp655
g69
(g90
g71
NtRp656
(dp657
g74
(dp658
g94
g95
ssg83
g652
sg76
(lp659
S'session_id_welcome'
p660
asbag69
(g90
g71
NtRp661
(dp662
g74
(dp663
g101
g102
ssg83
g652
sg76
(lp664
S':'
asbag69
(g90
g71
NtRp665
(dp666
g74
(dp667
sg83
g652
sg76
(lp668
g69
(g70
g71
NtRp669
(dp670
g74
(dp671
g82
I4
ssg83
g665
sg76
(lp672
g69
(g78
g71
NtRp673
(dp674
g74
(dp675
g82
I3
ssg83
Nsg76
(lp676
g69
(g85
g71
NtRp677
(dp678
g74
(dp679
sg83
g673
sg76
(lp680
g69
(g90
g71
NtRp681
(dp682
g74
(dp683
g94
g95
ssg83
g677
sg76
(lp684
g307
asbag69
(g90
g71
NtRp685
(dp686
g74
(dp687
g101
g102
ssg83
g677
sg76
(lp688
S':'
asbag69
(g90
g71
NtRp689
(dp690
g74
(dp691
sg83
g677
sg76
(lp692
g69
(g70
g71
NtRp693
(dp694
g74
(dp695
g82
I3
ssg83
g689
sg76
(lp696
S''
asbasbasbag69
(g85
g71
NtRp697
(dp698
g74
(dp699
sg83
g673
sg76
(lp700
g69
(g90
g71
NtRp701
(dp702
g74
(dp703
g94
g95
ssg83
g697
sg76
(lp704
g328
asbag69
(g90
g71
NtRp705
(dp706
g74
(dp707
g101
g102
ssg83
g697
sg76
(lp708
S':'
asbag69
(g90
g71
NtRp709
(dp710
g74
(dp711
sg83
g697
sg76
(lp712
g69
(g70
g71
NtRp713
(dp714
g74
(dp715
g82
I3
ssg83
g709
sg76
(lp716
S''
asbasbasbag69
(g85
g71
NtRp717
(dp718
g74
(dp719
sg83
g673
sg76
(lp720
g69
(g90
g71
NtRp721
(dp722
g74
(dp723
g94
g95
ssg83
g717
sg76
(lp724
g349
asbag69
(g90
g71
NtRp725
(dp726
g74
(dp727
g101
g102
ssg83
g717
sg76
(lp728
S':'
asbag69
(g90
g71
NtRp729
(dp730
g74
(dp731
sg83
g717
sg76
(lp732
g69
(g70
g71
NtRp733
(dp734
g74
(dp735
g82
I3
ssg83
g729
sg76
(lp736
S''
asbasbasbag69
(g85
g71
NtRp737
(dp738
g74
(dp739
sg83
g673
sg76
(lp740
g69
(g90
g71
NtRp741
(dp742
g74
(dp743
g94
g95
ssg83
g737
sg76
(lp744
g370
asbag69
(g90
g71
NtRp745
(dp746
g74
(dp747
g101
g102
ssg83
g737
sg76
(lp748
S':'
asbag69
(g90
g71
NtRp749
(dp750
g74
(dp751
sg83
g737
sg76
(lp752
g69
(g70
g71
NtRp753
(dp754
g74
(dp755
g82
I3
ssg83
g749
sg76
(lp756
S''
asbasbasbag69
(g85
g71
NtRp757
(dp758
g74
(dp759
sg83
g673
sg76
(lp760
g69
(g90
g71
NtRp761
(dp762
g74
(dp763
g94
g95
ssg83
g757
sg76
(lp764
g391
asbag69
(g90
g71
NtRp765
(dp766
g74
(dp767
g101
g102
ssg83
g757
sg76
(lp768
S':'
asbag69
(g90
g71
NtRp769
(dp770
g74
(dp771
sg83
g757
sg76
(lp772
g69
(g70
g71
NtRp773
(dp774
g74
(dp775
g82
I3
ssg83
g769
sg76
(lp776
S''
asbasbasbag69
(g85
g71
NtRp777
(dp778
g74
(dp779
sg83
g673
sg76
(lp780
g69
(g90
g71
NtRp781
(dp782
g74
(dp783
g94
g95
ssg83
g777
sg76
(lp784
g412
asbag69
(g90
g71
NtRp785
(dp786
g74
(dp787
g101
g102
ssg83
g777
sg76
(lp788
S':'
asbag69
(g90
g71
NtRp789
(dp790
g74
(dp791
sg83
g777
sg76
(lp792
g69
(g70
g71
NtRp793
(dp794
g74
(dp795
g82
I3
ssg83
g789
sg76
(lp796
S''
asbasbasbag69
(g85
g71
NtRp797
(dp798
g74
(dp799
sg83
g673
sg76
(lp800
g69
(g90
g71
NtRp801
(dp802
g74
(dp803
g94
g95
ssg83
g797
sg76
(lp804
g433
asbag69
(g90
g71
NtRp805
(dp806
g74
(dp807
g101
g102
ssg83
g797
sg76
(lp808
S':'
asbag69
(g90
g71
NtRp809
(dp810
g74
(dp811
sg83
g797
sg76
(lp812
g69
(g70
g71
NtRp813
(dp814
g74
(dp815
g82
I3
ssg83
g809
sg76
(lp816
S''
asbasbasbag69
(g85
g71
NtRp817
(dp818
g74
(dp819
sg83
g673
sg76
(lp820
g69
(g90
g71
NtRp821
(dp822
g74
(dp823
g94
g95
ssg83
g817
sg76
(lp824
g454
asbag69
(g90
g71
NtRp825
(dp826
g74
(dp827
g101
g102
ssg83
g817
sg76
(lp828
S':'
asbag69
(g90
g71
NtRp829
(dp830
g74
(dp831
sg83
g817
sg76
(lp832
g69
(g70
g71
NtRp833
(dp834
g74
(dp835
g82
I3
ssg83
g829
sg76
(lp836
S''
asbasbasbasbasbasbasbasbasbasbasbag69
(g85
g71
NtRp837
(dp838
g74
(dp839
sg83
g79
sg76
(lp840
g69
(g90
g71
NtRp841
(dp842
g74
(dp843
g94
g95
ssg83
g837
sg76
(lp844
S'env'
p845
asbag69
(g90
g71
NtRp846
(dp847
g74
(dp848
g101
g102
ssg83
g837
sg76
(lp849
S':'
asbag69
(g90
g71
NtRp850
(dp851
g74
(dp852
sg83
g837
sg76
(lp853
g69
(g70
g71
NtRp854
(dp855
g74
(dp856
g82
I5
ssg83
g850
sg76
(lp857
g69
(g78
g71
NtRp858
(dp859
g74
(dp860
g82
I4
ssg83
Nsg76
(lp861
g69
(g85
g71
NtRp862
(dp863
g74
(dp864
sg83
g858
sg76
(lp865
g69
(g90
g71
NtRp866
(dp867
g74
(dp868
g94
g95
ssg83
g862
sg76
(lp869
S'app_folders'
p870
asbag69
(g90
g71
NtRp871
(dp872
g74
(dp873
g101
g102
ssg83
g862
sg76
(lp874
S':'
asbag69
(g90
g71
NtRp875
(dp876
g74
(dp877
sg83
g862
sg76
(lp878
g69
(g70
g71
NtRp879
(dp880
g74
(dp881
g82
I4
ssg83
g875
sg76
(lp882
S"set(['/home/kaique/Projects/web/big-votes/web2py/applications/bigvotes/', '/home/kaique/Projects/web/big-votes/web2py/applications/admin/'])"
p883
asbasbasbag69
(g85
g71
NtRp884
(dp885
g74
(dp886
sg83
g858
sg76
(lp887
g69
(g90
g71
NtRp888
(dp889
g74
(dp890
g94
g95
ssg83
g884
sg76
(lp891
S'applications_parent'
p892
asbag69
(g90
g71
NtRp893
(dp894
g74
(dp895
g101
g102
ssg83
g884
sg76
(lp896
S':'
asbag69
(g90
g71
NtRp897
(dp898
g74
(dp899
sg83
g884
sg76
(lp900
g69
(g70
g71
NtRp901
(dp902
g74
(dp903
g82
I4
ssg83
g897
sg76
(lp904
S'/home/kaique/Projects/web/big-votes/web2py'
p905
asbasbasbag69
(g85
g71
NtRp906
(dp907
g74
(dp908
sg83
g858
sg76
(lp909
g69
(g90
g71
NtRp910
(dp911
g74
(dp912
g94
g95
ssg83
g906
sg76
(lp913
S'cmd_args'
p914
asbag69
(g90
g71
NtRp915
(dp916
g74
(dp917
g101
g102
ssg83
g906
sg76
(lp918
S':'
asbag69
(g90
g71
NtRp919
(dp920
g74
(dp921
sg83
g906
sg76
(lp922
g69
(g70
g71
NtRp923
(dp924
g74
(dp925
g82
I4
ssg83
g919
sg76
(lp926
g69
(g78
g71
NtRp927
(dp928
g74
(dp929
g82
I3
ssg83
Nsg76
(lp930
sbasbasbasbag69
(g85
g71
NtRp931
(dp932
g74
(dp933
sg83
g858
sg76
(lp934
g69
(g90
g71
NtRp935
(dp936
g74
(dp937
g94
g95
ssg83
g931
sg76
(lp938
S'cmd_options'
p939
asbag69
(g90
g71
NtRp940
(dp941
g74
(dp942
g101
g102
ssg83
g931
sg76
(lp943
S':'
asbag69
(g90
g71
NtRp944
(dp945
g74
(dp946
sg83
g931
sg76
(lp947
g69
(g70
g71
NtRp948
(dp949
g74
(dp950
g82
I4
ssg83
g944
sg76
(lp951
S"<Values at 0xa0749ec: {'verbose': False, 'ip': '127.0.0.1', 'shutdown_timeout': 5, 'taskbar': False, 'nocron': False, 'pid_filename': 'httpserver.pid', 'maxthreads': None, 'softcron': False, 'server_name': 'main', 'bpython': False, 'nogui': False, 'port': 8000, 'extcron': False, 'debuglevel': 30, 'test': None, 'folder': '/home/kaique/Projects/web/big-votes/web2py', 'config': '', 'import_models': False, 'winservice': '', 'shell': None, 'run': '', 'log_filename': 'httpserver.log', 'args': [''], 'socket_timeout': 5, 'ssl_ca_certificate': None, 'scheduler': None, 'profiler_filename': None, 'ssl_private_key': '', 'password': 'dev', 'request_queue_size': 5, 'ssl_certificate': '', 'cronjob': False, 'numthreads': None, 'quiet': False, 'interfaces': None, 'minthreads': None, 'timeout': 10, 'plain': False, 'nobanner': False}>"
p952
asbasbasbag69
(g85
g71
NtRp953
(dp954
g74
(dp955
sg83
g858
sg76
(lp956
g69
(g90
g71
NtRp957
(dp958
g74
(dp959
g94
g95
ssg83
g953
sg76
(lp960
S'db_sessions'
p961
asbag69
(g90
g71
NtRp962
(dp963
g74
(dp964
g101
g102
ssg83
g953
sg76
(lp965
S':'
asbag69
(g90
g71
NtRp966
(dp967
g74
(dp968
sg83
g953
sg76
(lp969
g69
(g70
g71
NtRp970
(dp971
g74
(dp972
g82
I4
ssg83
g966
sg76
(lp973
S'set([])'
p974
asbasbasbag69
(g85
g71
NtRp975
(dp976
g74
(dp977
sg83
g858
sg76
(lp978
g69
(g90
g71
NtRp979
(dp980
g74
(dp981
g94
g95
ssg83
g975
sg76
(lp982
S'debugging'
p983
asbag69
(g90
g71
NtRp984
(dp985
g74
(dp986
g101
g102
ssg83
g975
sg76
(lp987
S':'
asbag69
(g90
g71
NtRp988
(dp989
g74
(dp990
sg83
g975
sg76
(lp991
g69
(g70
g71
NtRp992
(dp993
g74
(dp994
g82
I4
ssg83
g988
sg76
(lp995
g112
asbasbasbag69
(g85
g71
NtRp996
(dp997
g74
(dp998
sg83
g858
sg76
(lp999
g69
(g90
g71
NtRp1000
(dp1001
g74
(dp1002
g94
g95
ssg83
g996
sg76
(lp1003
S'gluon_parent'
p1004
asbag69
(g90
g71
NtRp1005
(dp1006
g74
(dp1007
g101
g102
ssg83
g996
sg76
(lp1008
S':'
asbag69
(g90
g71
NtRp1009
(dp1010
g74
(dp1011
sg83
g996
sg76
(lp1012
g69
(g70
g71
NtRp1013
(dp1014
g74
(dp1015
g82
I4
ssg83
g1009
sg76
(lp1016
S'/home/kaique/Projects/web/big-votes/web2py'
p1017
asbasbasbag69
(g85
g71
NtRp1018
(dp1019
g74
(dp1020
sg83
g858
sg76
(lp1021
g69
(g90
g71
NtRp1022
(dp1023
g74
(dp1024
g94
g95
ssg83
g1018
sg76
(lp1025
S'http_accept'
p1026
asbag69
(g90
g71
NtRp1027
(dp1028
g74
(dp1029
g101
g102
ssg83
g1018
sg76
(lp1030
S':'
asbag69
(g90
g71
NtRp1031
(dp1032
g74
(dp1033
sg83
g1018
sg76
(lp1034
g69
(g70
g71
NtRp1035
(dp1036
g74
(dp1037
g82
I4
ssg83
g1031
sg76
(lp1038
S'text/html,application/xhtml+xml,application/xml;q=0.9,*/*;q=0.8'
p1039
asbasbasbag69
(g85
g71
NtRp1040
(dp1041
g74
(dp1042
sg83
g858
sg76
(lp1043
g69
(g90
g71
NtRp1044
(dp1045
g74
(dp1046
g94
g95
ssg83
g1040
sg76
(lp1047
S'http_accept_encoding'
p1048
asbag69
(g90
g71
NtRp1049
(dp1050
g74
(dp1051
g101
g102
ssg83
g1040
sg76
(lp1052
S':'
asbag69
(g90
g71
NtRp1053
(dp1054
g74
(dp1055
sg83
g1040
sg76
(lp1056
g69
(g70
g71
NtRp1057
(dp1058
g74
(dp1059
g82
I4
ssg83
g1053
sg76
(lp1060
S'gzip, deflate'
p1061
asbasbasbag69
(g85
g71
NtRp1062
(dp1063
g74
(dp1064
sg83
g858
sg76
(lp1065
g69
(g90
g71
NtRp1066
(dp1067
g74
(dp1068
g94
g95
ssg83
g1062
sg76
(lp1069
S'http_accept_language'
p1070
asbag69
(g90
g71
NtRp1071
(dp1072
g74
(dp1073
g101
g102
ssg83
g1062
sg76
(lp1074
S':'
asbag69
(g90
g71
NtRp1075
(dp1076
g74
(dp1077
sg83
g1062
sg76
(lp1078
g69
(g70
g71
NtRp1079
(dp1080
g74
(dp1081
g82
I4
ssg83
g1075
sg76
(lp1082
S'en-us,en;q=0.5'
p1083
asbasbasbag69
(g85
g71
NtRp1084
(dp1085
g74
(dp1086
sg83
g858
sg76
(lp1087
g69
(g90
g71
NtRp1088
(dp1089
g74
(dp1090
g94
g95
ssg83
g1084
sg76
(lp1091
S'http_cache_control'
p1092
asbag69
(g90
g71
NtRp1093
(dp1094
g74
(dp1095
g101
g102
ssg83
g1084
sg76
(lp1096
S':'
asbag69
(g90
g71
NtRp1097
(dp1098
g74
(dp1099
sg83
g1084
sg76
(lp1100
g69
(g70
g71
NtRp1101
(dp1102
g74
(dp1103
g82
I4
ssg83
g1097
sg76
(lp1104
S'max-age=0'
p1105
asbasbasbag69
(g85
g71
NtRp1106
(dp1107
g74
(dp1108
sg83
g858
sg76
(lp1109
g69
(g90
g71
NtRp1110
(dp1111
g74
(dp1112
g94
g95
ssg83
g1106
sg76
(lp1113
S'http_connection'
p1114
asbag69
(g90
g71
NtRp1115
(dp1116
g74
(dp1117
g101
g102
ssg83
g1106
sg76
(lp1118
S':'
asbag69
(g90
g71
NtRp1119
(dp1120
g74
(dp1121
sg83
g1106
sg76
(lp1122
g69
(g70
g71
NtRp1123
(dp1124
g74
(dp1125
g82
I4
ssg83
g1119
sg76
(lp1126
S'keep-alive'
p1127
asbasbasbag69
(g85
g71
NtRp1128
(dp1129
g74
(dp1130
sg83
g858
sg76
(lp1131
g69
(g90
g71
NtRp1132
(dp1133
g74
(dp1134
g94
g95
ssg83
g1128
sg76
(lp1135
S'http_cookie'
p1136
asbag69
(g90
g71
NtRp1137
(dp1138
g74
(dp1139
g101
g102
ssg83
g1128
sg76
(lp1140
S':'
asbag69
(g90
g71
NtRp1141
(dp1142
g74
(dp1143
sg83
g1128
sg76
(lp1144
g69
(g70
g71
NtRp1145
(dp1146
g74
(dp1147
g82
I4
ssg83
g1141
sg76
(lp1148
S'session_id_welcome=127.0.0.1-2ecfa9c2-5112-46c3-a61d-d3ed2a022cb8; session_id_admin=127.0.0.1-bbb3d6a0-08e9-48b9-b2e9-87a0603316cc; session_id_bigvotes=127.0.0.1-72286364-99c3-4aae-95dc-f33a83b4d6f1'
p1149
asbasbasbag69
(g85
g71
NtRp1150
(dp1151
g74
(dp1152
sg83
g858
sg76
(lp1153
g69
(g90
g71
NtRp1154
(dp1155
g74
(dp1156
g94
g95
ssg83
g1150
sg76
(lp1157
S'http_host'
p1158
asbag69
(g90
g71
NtRp1159
(dp1160
g74
(dp1161
g101
g102
ssg83
g1150
sg76
(lp1162
S':'
asbag69
(g90
g71
NtRp1163
(dp1164
g74
(dp1165
sg83
g1150
sg76
(lp1166
g69
(g70
g71
NtRp1167
(dp1168
g74
(dp1169
g82
I4
ssg83
g1163
sg76
(lp1170
S'localhost:8000'
p1171
asbasbasbag69
(g85
g71
NtRp1172
(dp1173
g74
(dp1174
sg83
g858
sg76
(lp1175
g69
(g90
g71
NtRp1176
(dp1177
g74
(dp1178
g94
g95
ssg83
g1172
sg76
(lp1179
S'http_referer'
p1180
asbag69
(g90
g71
NtRp1181
(dp1182
g74
(dp1183
g101
g102
ssg83
g1172
sg76
(lp1184
S':'
asbag69
(g90
g71
NtRp1185
(dp1186
g74
(dp1187
sg83
g1172
sg76
(lp1188
g69
(g70
g71
NtRp1189
(dp1190
g74
(dp1191
g82
I4
ssg83
g1185
sg76
(lp1192
S'http://localhost:8000/bigvotes/default/index/result'
p1193
asbasbasbag69
(g85
g71
NtRp1194
(dp1195
g74
(dp1196
sg83
g858
sg76
(lp1197
g69
(g90
g71
NtRp1198
(dp1199
g74
(dp1200
g94
g95
ssg83
g1194
sg76
(lp1201
S'http_user_agent'
p1202
asbag69
(g90
g71
NtRp1203
(dp1204
g74
(dp1205
g101
g102
ssg83
g1194
sg76
(lp1206
S':'
asbag69
(g90
g71
NtRp1207
(dp1208
g74
(dp1209
sg83
g1194
sg76
(lp1210
g69
(g70
g71
NtRp1211
(dp1212
g74
(dp1213
g82
I4
ssg83
g1207
sg76
(lp1214
S'Mozilla/5.0 (X11; Linux i686; rv:12.0) Gecko/20100101 Firefox/12.0'
p1215
asbasbasbag69
(g85
g71
NtRp1216
(dp1217
g74
(dp1218
sg83
g858
sg76
(lp1219
g69
(g90
g71
NtRp1220
(dp1221
g74
(dp1222
g94
g95
ssg83
g1216
sg76
(lp1223
S'is_jython'
p1224
asbag69
(g90
g71
NtRp1225
(dp1226
g74
(dp1227
g101
g102
ssg83
g1216
sg76
(lp1228
S':'
asbag69
(g90
g71
NtRp1229
(dp1230
g74
(dp1231
sg83
g1216
sg76
(lp1232
g69
(g70
g71
NtRp1233
(dp1234
g74
(dp1235
g82
I4
ssg83
g1229
sg76
(lp1236
g112
asbasbasbag69
(g85
g71
NtRp1237
(dp1238
g74
(dp1239
sg83
g858
sg76
(lp1240
g69
(g90
g71
NtRp1241
(dp1242
g74
(dp1243
g94
g95
ssg83
g1237
sg76
(lp1244
S'is_pypy'
p1245
asbag69
(g90
g71
NtRp1246
(dp1247
g74
(dp1248
g101
g102
ssg83
g1237
sg76
(lp1249
S':'
asbag69
(g90
g71
NtRp1250
(dp1251
g74
(dp1252
sg83
g1237
sg76
(lp1253
g69
(g70
g71
NtRp1254
(dp1255
g74
(dp1256
g82
I4
ssg83
g1250
sg76
(lp1257
g112
asbasbasbag69
(g85
g71
NtRp1258
(dp1259
g74
(dp1260
sg83
g858
sg76
(lp1261
g69
(g90
g71
NtRp1262
(dp1263
g74
(dp1264
g94
g95
ssg83
g1258
sg76
(lp1265
S'path_info'
p1266
asbag69
(g90
g71
NtRp1267
(dp1268
g74
(dp1269
g101
g102
ssg83
g1258
sg76
(lp1270
S':'
asbag69
(g90
g71
NtRp1271
(dp1272
g74
(dp1273
sg83
g1258
sg76
(lp1274
g69
(g70
g71
NtRp1275
(dp1276
g74
(dp1277
g82
I4
ssg83
g1271
sg76
(lp1278
S'/bigvotes/vote/index/1/2'
p1279
asbasbasbag69
(g85
g71
NtRp1280
(dp1281
g74
(dp1282
sg83
g858
sg76
(lp1283
g69
(g90
g71
NtRp1284
(dp1285
g74
(dp1286
g94
g95
ssg83
g1280
sg76
(lp1287
S'query_string'
p1288
asbag69
(g90
g71
NtRp1289
(dp1290
g74
(dp1291
g101
g102
ssg83
g1280
sg76
(lp1292
S':'
asbag69
(g90
g71
NtRp1293
(dp1294
g74
(dp1295
sg83
g1280
sg76
(lp1296
g69
(g70
g71
NtRp1297
(dp1298
g74
(dp1299
g82
I4
ssg83
g1293
sg76
(lp1300
S''
asbasbasbag69
(g85
g71
NtRp1301
(dp1302
g74
(dp1303
sg83
g858
sg76
(lp1304
g69
(g90
g71
NtRp1305
(dp1306
g74
(dp1307
g94
g95
ssg83
g1301
sg76
(lp1308
S'remote_addr'
p1309
asbag69
(g90
g71
NtRp1310
(dp1311
g74
(dp1312
g101
g102
ssg83
g1301
sg76
(lp1313
S':'
asbag69
(g90
g71
NtRp1314
(dp1315
g74
(dp1316
sg83
g1301
sg76
(lp1317
g69
(g70
g71
NtRp1318
(dp1319
g74
(dp1320
g82
I4
ssg83
g1314
sg76
(lp1321
g226
asbasbasbag69
(g85
g71
NtRp1322
(dp1323
g74
(dp1324
sg83
g858
sg76
(lp1325
g69
(g90
g71
NtRp1326
(dp1327
g74
(dp1328
g94
g95
ssg83
g1322
sg76
(lp1329
S'remote_port'
p1330
asbag69
(g90
g71
NtRp1331
(dp1332
g74
(dp1333
g101
g102
ssg83
g1322
sg76
(lp1334
S':'
asbag69
(g90
g71
NtRp1335
(dp1336
g74
(dp1337
sg83
g1322
sg76
(lp1338
g69
(g70
g71
NtRp1339
(dp1340
g74
(dp1341
g82
I4
ssg83
g1335
sg76
(lp1342
S'59864'
p1343
asbasbasbag69
(g85
g71
NtRp1344
(dp1345
g74
(dp1346
sg83
g858
sg76
(lp1347
g69
(g90
g71
NtRp1348
(dp1349
g74
(dp1350
g94
g95
ssg83
g1344
sg76
(lp1351
S'request_method'
p1352
asbag69
(g90
g71
NtRp1353
(dp1354
g74
(dp1355
g101
g102
ssg83
g1344
sg76
(lp1356
S':'
asbag69
(g90
g71
NtRp1357
(dp1358
g74
(dp1359
sg83
g1344
sg76
(lp1360
g69
(g70
g71
NtRp1361
(dp1362
g74
(dp1363
g82
I4
ssg83
g1357
sg76
(lp1364
S'GET'
p1365
asbasbasbag69
(g85
g71
NtRp1366
(dp1367
g74
(dp1368
sg83
g858
sg76
(lp1369
g69
(g90
g71
NtRp1370
(dp1371
g74
(dp1372
g94
g95
ssg83
g1366
sg76
(lp1373
S'request_uri'
p1374
asbag69
(g90
g71
NtRp1375
(dp1376
g74
(dp1377
g101
g102
ssg83
g1366
sg76
(lp1378
S':'
asbag69
(g90
g71
NtRp1379
(dp1380
g74
(dp1381
sg83
g1366
sg76
(lp1382
g69
(g70
g71
NtRp1383
(dp1384
g74
(dp1385
g82
I4
ssg83
g1379
sg76
(lp1386
g1279
asbasbasbag69
(g85
g71
NtRp1387
(dp1388
g74
(dp1389
sg83
g858
sg76
(lp1390
g69
(g90
g71
NtRp1391
(dp1392
g74
(dp1393
g94
g95
ssg83
g1387
sg76
(lp1394
S'script_name'
p1395
asbag69
(g90
g71
NtRp1396
(dp1397
g74
(dp1398
g101
g102
ssg83
g1387
sg76
(lp1399
S':'
asbag69
(g90
g71
NtRp1400
(dp1401
g74
(dp1402
sg83
g1387
sg76
(lp1403
g69
(g70
g71
NtRp1404
(dp1405
g74
(dp1406
g82
I4
ssg83
g1400
sg76
(lp1407
S''
asbasbasbag69
(g85
g71
NtRp1408
(dp1409
g74
(dp1410
sg83
g858
sg76
(lp1411
g69
(g90
g71
NtRp1412
(dp1413
g74
(dp1414
g94
g95
ssg83
g1408
sg76
(lp1415
S'server_name'
p1416
asbag69
(g90
g71
NtRp1417
(dp1418
g74
(dp1419
g101
g102
ssg83
g1408
sg76
(lp1420
S':'
asbag69
(g90
g71
NtRp1421
(dp1422
g74
(dp1423
sg83
g1408
sg76
(lp1424
g69
(g70
g71
NtRp1425
(dp1426
g74
(dp1427
g82
I4
ssg83
g1421
sg76
(lp1428
S'main'
p1429
asbasbasbag69
(g85
g71
NtRp1430
(dp1431
g74
(dp1432
sg83
g858
sg76
(lp1433
g69
(g90
g71
NtRp1434
(dp1435
g74
(dp1436
g94
g95
ssg83
g1430
sg76
(lp1437
S'server_port'
p1438
asbag69
(g90
g71
NtRp1439
(dp1440
g74
(dp1441
g101
g102
ssg83
g1430
sg76
(lp1442
S':'
asbag69
(g90
g71
NtRp1443
(dp1444
g74
(dp1445
sg83
g1430
sg76
(lp1446
g69
(g70
g71
NtRp1447
(dp1448
g74
(dp1449
g82
I4
ssg83
g1443
sg76
(lp1450
S'8000'
p1451
asbasbasbag69
(g85
g71
NtRp1452
(dp1453
g74
(dp1454
sg83
g858
sg76
(lp1455
g69
(g90
g71
NtRp1456
(dp1457
g74
(dp1458
g94
g95
ssg83
g1452
sg76
(lp1459
S'server_protocol'
p1460
asbag69
(g90
g71
NtRp1461
(dp1462
g74
(dp1463
g101
g102
ssg83
g1452
sg76
(lp1464
S':'
asbag69
(g90
g71
NtRp1465
(dp1466
g74
(dp1467
sg83
g1452
sg76
(lp1468
g69
(g70
g71
NtRp1469
(dp1470
g74
(dp1471
g82
I4
ssg83
g1465
sg76
(lp1472
S'HTTP/1.1'
p1473
asbasbasbag69
(g85
g71
NtRp1474
(dp1475
g74
(dp1476
sg83
g858
sg76
(lp1477
g69
(g90
g71
NtRp1478
(dp1479
g74
(dp1480
g94
g95
ssg83
g1474
sg76
(lp1481
S'server_software'
p1482
asbag69
(g90
g71
NtRp1483
(dp1484
g74
(dp1485
g101
g102
ssg83
g1474
sg76
(lp1486
S':'
asbag69
(g90
g71
NtRp1487
(dp1488
g74
(dp1489
sg83
g1474
sg76
(lp1490
g69
(g70
g71
NtRp1491
(dp1492
g74
(dp1493
g82
I4
ssg83
g1487
sg76
(lp1494
S'Rocket 1.2.4'
p1495
asbasbasbag69
(g85
g71
NtRp1496
(dp1497
g74
(dp1498
sg83
g858
sg76
(lp1499
g69
(g90
g71
NtRp1500
(dp1501
g74
(dp1502
g94
g95
ssg83
g1496
sg76
(lp1503
S'web2py_crontype'
p1504
asbag69
(g90
g71
NtRp1505
(dp1506
g74
(dp1507
g101
g102
ssg83
g1496
sg76
(lp1508
S':'
asbag69
(g90
g71
NtRp1509
(dp1510
g74
(dp1511
sg83
g1496
sg76
(lp1512
g69
(g70
g71
NtRp1513
(dp1514
g74
(dp1515
g82
I4
ssg83
g1509
sg76
(lp1516
S'hard'
p1517
asbasbasbag69
(g85
g71
NtRp1518
(dp1519
g74
(dp1520
sg83
g858
sg76
(lp1521
g69
(g90
g71
NtRp1522
(dp1523
g74
(dp1524
g94
g95
ssg83
g1518
sg76
(lp1525
S'web2py_original_uri'
p1526
asbag69
(g90
g71
NtRp1527
(dp1528
g74
(dp1529
g101
g102
ssg83
g1518
sg76
(lp1530
S':'
asbag69
(g90
g71
NtRp1531
(dp1532
g74
(dp1533
sg83
g1518
sg76
(lp1534
g69
(g70
g71
NtRp1535
(dp1536
g74
(dp1537
g82
I4
ssg83
g1531
sg76
(lp1538
g1279
asbasbasbag69
(g85
g71
NtRp1539
(dp1540
g74
(dp1541
sg83
g858
sg76
(lp1542
g69
(g90
g71
NtRp1543
(dp1544
g74
(dp1545
g94
g95
ssg83
g1539
sg76
(lp1546
S'web2py_path'
p1547
asbag69
(g90
g71
NtRp1548
(dp1549
g74
(dp1550
g101
g102
ssg83
g1539
sg76
(lp1551
S':'
asbag69
(g90
g71
NtRp1552
(dp1553
g74
(dp1554
sg83
g1539
sg76
(lp1555
g69
(g70
g71
NtRp1556
(dp1557
g74
(dp1558
g82
I4
ssg83
g1552
sg76
(lp1559
g905
asbasbasbag69
(g85
g71
NtRp1560
(dp1561
g74
(dp1562
sg83
g858
sg76
(lp1563
g69
(g90
g71
NtRp1564
(dp1565
g74
(dp1566
g94
g95
ssg83
g1560
sg76
(lp1567
S'web2py_version'
p1568
asbag69
(g90
g71
NtRp1569
(dp1570
g74
(dp1571
g101
g102
ssg83
g1560
sg76
(lp1572
S':'
asbag69
(g90
g71
NtRp1573
(dp1574
g74
(dp1575
sg83
g1560
sg76
(lp1576
g69
(g70
g71
NtRp1577
(dp1578
g74
(dp1579
g82
I4
ssg83
g1573
sg76
(lp1580
g69
(g78
g71
NtRp1581
(dp1582
g74
(dp1583
g82
I3
ssg83
Nsg76
(lp1584
g69
(g85
g71
NtRp1585
(dp1586
g74
(dp1587
sg83
g1581
sg76
(lp1588
g69
(g90
g71
NtRp1589
(dp1590
g74
(dp1591
sg83
g1585
sg76
(lp1592
g69
(g70
g71
NtRp1593
(dp1594
g74
(dp1595
g82
I3
ssg83
g1589
sg76
(lp1596
S'1'
asbasbasbag69
(g85
g71
NtRp1597
(dp1598
g74
(dp1599
sg83
g1581
sg76
(lp1600
g69
(g90
g71
NtRp1601
(dp1602
g74
(dp1603
sg83
g1597
sg76
(lp1604
g69
(g70
g71
NtRp1605
(dp1606
g74
(dp1607
g82
I3
ssg83
g1601
sg76
(lp1608
S'99'
p1609
asbasbasbag69
(g85
g71
NtRp1610
(dp1611
g74
(dp1612
sg83
g1581
sg76
(lp1613
g69
(g90
g71
NtRp1614
(dp1615
g74
(dp1616
sg83
g1610
sg76
(lp1617
g69
(g70
g71
NtRp1618
(dp1619
g74
(dp1620
g82
I3
ssg83
g1614
sg76
(lp1621
S'7'
asbasbasbag69
(g85
g71
NtRp1622
(dp1623
g74
(dp1624
sg83
g1581
sg76
(lp1625
g69
(g90
g71
NtRp1626
(dp1627
g74
(dp1628
sg83
g1622
sg76
(lp1629
g69
(g70
g71
NtRp1630
(dp1631
g74
(dp1632
g82
I3
ssg83
g1626
sg76
(lp1633
S'datetime.datetime(2012, 3, 4, 22, 12, 8)'
p1634
asbasbasbag69
(g85
g71
NtRp1635
(dp1636
g74
(dp1637
sg83
g1581
sg76
(lp1638
g69
(g90
g71
NtRp1639
(dp1640
g74
(dp1641
sg83
g1635
sg76
(lp1642
g69
(g70
g71
NtRp1643
(dp1644
g74
(dp1645
g82
I3
ssg83
g1639
sg76
(lp1646
S'stable'
p1647
asbasbasbasbasbasbasbag69
(g85
g71
NtRp1648
(dp1649
g74
(dp1650
sg83
g858
sg76
(lp1651
g69
(g90
g71
NtRp1652
(dp1653
g74
(dp1654
g94
g95
ssg83
g1648
sg76
(lp1655
S'wsgi_errors'
p1656
asbag69
(g90
g71
NtRp1657
(dp1658
g74
(dp1659
g101
g102
ssg83
g1648
sg76
(lp1660
S':'
asbag69
(g90
g71
NtRp1661
(dp1662
g74
(dp1663
sg83
g1648
sg76
(lp1664
g69
(g70
g71
NtRp1665
(dp1666
g74
(dp1667
g82
I4
ssg83
g1661
sg76
(lp1668
S"<open file '<stderr>', mode 'w' at 0xb78a20d0>"
p1669
asbasbasbag69
(g85
g71
NtRp1670
(dp1671
g74
(dp1672
sg83
g858
sg76
(lp1673
g69
(g90
g71
NtRp1674
(dp1675
g74
(dp1676
g94
g95
ssg83
g1670
sg76
(lp1677
S'wsgi_file_wrapper'
p1678
asbag69
(g90
g71
NtRp1679
(dp1680
g74
(dp1681
g101
g102
ssg83
g1670
sg76
(lp1682
S':'
asbag69
(g90
g71
NtRp1683
(dp1684
g74
(dp1685
sg83
g1670
sg76
(lp1686
g69
(g70
g71
NtRp1687
(dp1688
g74
(dp1689
g82
I4
ssg83
g1683
sg76
(lp1690
S'<class wsgiref.util.FileWrapper at 0xa04be6c>'
p1691
asbasbasbag69
(g85
g71
NtRp1692
(dp1693
g74
(dp1694
sg83
g858
sg76
(lp1695
g69
(g90
g71
NtRp1696
(dp1697
g74
(dp1698
g94
g95
ssg83
g1692
sg76
(lp1699
S'wsgi_input'
p1700
asbag69
(g90
g71
NtRp1701
(dp1702
g74
(dp1703
g101
g102
ssg83
g1692
sg76
(lp1704
S':'
asbag69
(g90
g71
NtRp1705
(dp1706
g74
(dp1707
sg83
g1692
sg76
(lp1708
g69
(g70
g71
NtRp1709
(dp1710
g74
(dp1711
g82
I4
ssg83
g1705
sg76
(lp1712
S'<socket._fileobject object at 0xb032146c>'
p1713
asbasbasbag69
(g85
g71
NtRp1714
(dp1715
g74
(dp1716
sg83
g858
sg76
(lp1717
g69
(g90
g71
NtRp1718
(dp1719
g74
(dp1720
g94
g95
ssg83
g1714
sg76
(lp1721
S'wsgi_multiprocess'
p1722
asbag69
(g90
g71
NtRp1723
(dp1724
g74
(dp1725
g101
g102
ssg83
g1714
sg76
(lp1726
S':'
asbag69
(g90
g71
NtRp1727
(dp1728
g74
(dp1729
sg83
g1714
sg76
(lp1730
g69
(g70
g71
NtRp1731
(dp1732
g74
(dp1733
g82
I4
ssg83
g1727
sg76
(lp1734
g112
asbasbasbag69
(g85
g71
NtRp1735
(dp1736
g74
(dp1737
sg83
g858
sg76
(lp1738
g69
(g90
g71
NtRp1739
(dp1740
g74
(dp1741
g94
g95
ssg83
g1735
sg76
(lp1742
S'wsgi_multithread'
p1743
asbag69
(g90
g71
NtRp1744
(dp1745
g74
(dp1746
g101
g102
ssg83
g1735
sg76
(lp1747
S':'
asbag69
(g90
g71
NtRp1748
(dp1749
g74
(dp1750
sg83
g1735
sg76
(lp1751
g69
(g70
g71
NtRp1752
(dp1753
g74
(dp1754
g82
I4
ssg83
g1748
sg76
(lp1755
S'True'
p1756
asbasbasbag69
(g85
g71
NtRp1757
(dp1758
g74
(dp1759
sg83
g858
sg76
(lp1760
g69
(g90
g71
NtRp1761
(dp1762
g74
(dp1763
g94
g95
ssg83
g1757
sg76
(lp1764
S'wsgi_run_once'
p1765
asbag69
(g90
g71
NtRp1766
(dp1767
g74
(dp1768
g101
g102
ssg83
g1757
sg76
(lp1769
S':'
asbag69
(g90
g71
NtRp1770
(dp1771
g74
(dp1772
sg83
g1757
sg76
(lp1773
g69
(g70
g71
NtRp1774
(dp1775
g74
(dp1776
g82
I4
ssg83
g1770
sg76
(lp1777
g112
asbasbasbag69
(g85
g71
NtRp1778
(dp1779
g74
(dp1780
sg83
g858
sg76
(lp1781
g69
(g90
g71
NtRp1782
(dp1783
g74
(dp1784
g94
g95
ssg83
g1778
sg76
(lp1785
S'wsgi_url_scheme'
p1786
asbag69
(g90
g71
NtRp1787
(dp1788
g74
(dp1789
g101
g102
ssg83
g1778
sg76
(lp1790
S':'
asbag69
(g90
g71
NtRp1791
(dp1792
g74
(dp1793
sg83
g1778
sg76
(lp1794
g69
(g70
g71
NtRp1795
(dp1796
g74
(dp1797
g82
I4
ssg83
g1791
sg76
(lp1798
S'http'
p1799
asbasbasbag69
(g85
g71
NtRp1800
(dp1801
g74
(dp1802
sg83
g858
sg76
(lp1803
g69
(g90
g71
NtRp1804
(dp1805
g74
(dp1806
g94
g95
ssg83
g1800
sg76
(lp1807
S'wsgi_version'
p1808
asbag69
(g90
g71
NtRp1809
(dp1810
g74
(dp1811
g101
g102
ssg83
g1800
sg76
(lp1812
S':'
asbag69
(g90
g71
NtRp1813
(dp1814
g74
(dp1815
sg83
g1800
sg76
(lp1816
g69
(g70
g71
NtRp1817
(dp1818
g74
(dp1819
g82
I4
ssg83
g1813
sg76
(lp1820
g69
(g78
g71
NtRp1821
(dp1822
g74
(dp1823
g82
I3
ssg83
Nsg76
(lp1824
g69
(g85
g71
NtRp1825
(dp1826
g74
(dp1827
sg83
g1821
sg76
(lp1828
g69
(g90
g71
NtRp1829
(dp1830
g74
(dp1831
sg83
g1825
sg76
(lp1832
g69
(g70
g71
NtRp1833
(dp1834
g74
(dp1835
g82
I3
ssg83
g1829
sg76
(lp1836
S'1'
asbasbasbag69
(g85
g71
NtRp1837
(dp1838
g74
(dp1839
sg83
g1821
sg76
(lp1840
g69
(g90
g71
NtRp1841
(dp1842
g74
(dp1843
sg83
g1837
sg76
(lp1844
g69
(g70
g71
NtRp1845
(dp1846
g74
(dp1847
g82
I3
ssg83
g1841
sg76
(lp1848
S'0'
asbasbasbasbasbasbasbasbasbasbasbag69
(g85
g71
NtRp1849
(dp1850
g74
(dp1851
sg83
g79
sg76
(lp1852
g69
(g90
g71
NtRp1853
(dp1854
g74
(dp1855
g94
g95
ssg83
g1849
sg76
(lp1856
S'extension'
p1857
asbag69
(g90
g71
NtRp1858
(dp1859
g74
(dp1860
g101
g102
ssg83
g1849
sg76
(lp1861
S':'
asbag69
(g90
g71
NtRp1862
(dp1863
g74
(dp1864
sg83
g1849
sg76
(lp1865
g69
(g70
g71
NtRp1866
(dp1867
g74
(dp1868
g82
I5
ssg83
g1862
sg76
(lp1869
S'html'
p1870
asbasbasbag69
(g85
g71
NtRp1871
(dp1872
g74
(dp1873
sg83
g79
sg76
(lp1874
g69
(g90
g71
NtRp1875
(dp1876
g74
(dp1877
g94
g95
ssg83
g1871
sg76
(lp1878
S'folder'
p1879
asbag69
(g90
g71
NtRp1880
(dp1881
g74
(dp1882
g101
g102
ssg83
g1871
sg76
(lp1883
S':'
asbag69
(g90
g71
NtRp1884
(dp1885
g74
(dp1886
sg83
g1871
sg76
(lp1887
g69
(g70
g71
NtRp1888
(dp1889
g74
(dp1890
g82
I5
ssg83
g1884
sg76
(lp1891
S'/home/kaique/Projects/web/big-votes/web2py/applications/bigvotes/'
p1892
asbasbasbag69
(g85
g71
NtRp1893
(dp1894
g74
(dp1895
sg83
g79
sg76
(lp1896
g69
(g90
g71
NtRp1897
(dp1898
g74
(dp1899
g94
g95
ssg83
g1893
sg76
(lp1900
S'function'
p1901
asbag69
(g90
g71
NtRp1902
(dp1903
g74
(dp1904
g101
g102
ssg83
g1893
sg76
(lp1905
S':'
asbag69
(g90
g71
NtRp1906
(dp1907
g74
(dp1908
sg83
g1893
sg76
(lp1909
g69
(g70
g71
NtRp1910
(dp1911
g74
(dp1912
g82
I5
ssg83
g1906
sg76
(lp1913
S'index'
p1914
asbasbasbag69
(g85
g71
NtRp1915
(dp1916
g74
(dp1917
sg83
g79
sg76
(lp1918
g69
(g90
g71
NtRp1919
(dp1920
g74
(dp1921
g94
g95
ssg83
g1915
sg76
(lp1922
S'get_vars'
p1923
asbag69
(g90
g71
NtRp1924
(dp1925
g74
(dp1926
g101
g102
ssg83
g1915
sg76
(lp1927
S':'
asbag69
(g90
g71
NtRp1928
(dp1929
g74
(dp1930
sg83
g1915
sg76
(lp1931
g69
(g70
g71
NtRp1932
(dp1933
g74
(dp1934
g82
I5
ssg83
g1928
sg76
(lp1935
g69
(g78
g71
NtRp1936
(dp1937
g74
(dp1938
g82
I4
ssg83
Nsg76
(lp1939
sbasbasbasbag69
(g85
g71
NtRp1940
(dp1941
g74
(dp1942
sg83
g79
sg76
(lp1943
g69
(g90
g71
NtRp1944
(dp1945
g74
(dp1946
g94
g95
ssg83
g1940
sg76
(lp1947
S'global_settings'
p1948
asbag69
(g90
g71
NtRp1949
(dp1950
g74
(dp1951
g101
g102
ssg83
g1940
sg76
(lp1952
S':'
asbag69
(g90
g71
NtRp1953
(dp1954
g74
(dp1955
sg83
g1940
sg76
(lp1956
g69
(g70
g71
NtRp1957
(dp1958
g74
(dp1959
g82
I5
ssg83
g1953
sg76
(lp1960
g69
(g78
g71
NtRp1961
(dp1962
g74
(dp1963
g82
I4
ssg83
Nsg76
(lp1964
g69
(g85
g71
NtRp1965
(dp1966
g74
(dp1967
sg83
g1961
sg76
(lp1968
g69
(g90
g71
NtRp1969
(dp1970
g74
(dp1971
g94
g95
ssg83
g1965
sg76
(lp1972
g870
asbag69
(g90
g71
NtRp1973
(dp1974
g74
(dp1975
g101
g102
ssg83
g1965
sg76
(lp1976
S':'
asbag69
(g90
g71
NtRp1977
(dp1978
g74
(dp1979
sg83
g1965
sg76
(lp1980
g69
(g70
g71
NtRp1981
(dp1982
g74
(dp1983
g82
I4
ssg83
g1977
sg76
(lp1984
S"set(['/home/kaique/Projects/web/big-votes/web2py/applications/bigvotes/', '/home/kaique/Projects/web/big-votes/web2py/applications/admin/'])"
p1985
asbasbasbag69
(g85
g71
NtRp1986
(dp1987
g74
(dp1988
sg83
g1961
sg76
(lp1989
g69
(g90
g71
NtRp1990
(dp1991
g74
(dp1992
g94
g95
ssg83
g1986
sg76
(lp1993
g892
asbag69
(g90
g71
NtRp1994
(dp1995
g74
(dp1996
g101
g102
ssg83
g1986
sg76
(lp1997
S':'
asbag69
(g90
g71
NtRp1998
(dp1999
g74
(dp2000
sg83
g1986
sg76
(lp2001
g69
(g70
g71
NtRp2002
(dp2003
g74
(dp2004
g82
I4
ssg83
g1998
sg76
(lp2005
g905
asbasbasbag69
(g85
g71
NtRp2006
(dp2007
g74
(dp2008
sg83
g1961
sg76
(lp2009
g69
(g90
g71
NtRp2010
(dp2011
g74
(dp2012
g94
g95
ssg83
g2006
sg76
(lp2013
g914
asbag69
(g90
g71
NtRp2014
(dp2015
g74
(dp2016
g101
g102
ssg83
g2006
sg76
(lp2017
S':'
asbag69
(g90
g71
NtRp2018
(dp2019
g74
(dp2020
sg83
g2006
sg76
(lp2021
g69
(g70
g71
NtRp2022
(dp2023
g74
(dp2024
g82
I4
ssg83
g2018
sg76
(lp2025
g69
(g78
g71
NtRp2026
(dp2027
g74
(dp2028
g82
I3
ssg83
Nsg76
(lp2029
sbasbasbasbag69
(g85
g71
NtRp2030
(dp2031
g74
(dp2032
sg83
g1961
sg76
(lp2033
g69
(g90
g71
NtRp2034
(dp2035
g74
(dp2036
g94
g95
ssg83
g2030
sg76
(lp2037
g939
asbag69
(g90
g71
NtRp2038
(dp2039
g74
(dp2040
g101
g102
ssg83
g2030
sg76
(lp2041
S':'
asbag69
(g90
g71
NtRp2042
(dp2043
g74
(dp2044
sg83
g2030
sg76
(lp2045
g69
(g70
g71
NtRp2046
(dp2047
g74
(dp2048
g82
I4
ssg83
g2042
sg76
(lp2049
S"<Values at 0xa0749ec: {'verbose': False, 'ip': '127.0.0.1', 'shutdown_timeout': 5, 'taskbar': False, 'nocron': False, 'pid_filename': 'httpserver.pid', 'maxthreads': None, 'softcron': False, 'server_name': 'main', 'bpython': False, 'nogui': False, 'port': 8000, 'extcron': False, 'debuglevel': 30, 'test': None, 'folder': '/home/kaique/Projects/web/big-votes/web2py', 'config': '', 'import_models': False, 'winservice': '', 'shell': None, 'run': '', 'log_filename': 'httpserver.log', 'args': [''], 'socket_timeout': 5, 'ssl_ca_certificate': None, 'scheduler': None, 'profiler_filename': None, 'ssl_private_key': '', 'password': 'dev', 'request_queue_size': 5, 'ssl_certificate': '', 'cronjob': False, 'numthreads': None, 'quiet': False, 'interfaces': None, 'minthreads': None, 'timeout': 10, 'plain': False, 'nobanner': False}>"
p2050
asbasbasbag69
(g85
g71
NtRp2051
(dp2052
g74
(dp2053
sg83
g1961
sg76
(lp2054
g69
(g90
g71
NtRp2055
(dp2056
g74
(dp2057
g94
g95
ssg83
g2051
sg76
(lp2058
g961
asbag69
(g90
g71
NtRp2059
(dp2060
g74
(dp2061
g101
g102
ssg83
g2051
sg76
(lp2062
S':'
asbag69
(g90
g71
NtRp2063
(dp2064
g74
(dp2065
sg83
g2051
sg76
(lp2066
g69
(g70
g71
NtRp2067
(dp2068
g74
(dp2069
g82
I4
ssg83
g2063
sg76
(lp2070
S'set([])'
p2071
asbasbasbag69
(g85
g71
NtRp2072
(dp2073
g74
(dp2074
sg83
g1961
sg76
(lp2075
g69
(g90
g71
NtRp2076
(dp2077
g74
(dp2078
g94
g95
ssg83
g2072
sg76
(lp2079
g983
asbag69
(g90
g71
NtRp2080
(dp2081
g74
(dp2082
g101
g102
ssg83
g2072
sg76
(lp2083
S':'
asbag69
(g90
g71
NtRp2084
(dp2085
g74
(dp2086
sg83
g2072
sg76
(lp2087
g69
(g70
g71
NtRp2088
(dp2089
g74
(dp2090
g82
I4
ssg83
g2084
sg76
(lp2091
g112
asbasbasbag69
(g85
g71
NtRp2092
(dp2093
g74
(dp2094
sg83
g1961
sg76
(lp2095
g69
(g90
g71
NtRp2096
(dp2097
g74
(dp2098
g94
g95
ssg83
g2092
sg76
(lp2099
g1004
asbag69
(g90
g71
NtRp2100
(dp2101
g74
(dp2102
g101
g102
ssg83
g2092
sg76
(lp2103
S':'
asbag69
(g90
g71
NtRp2104
(dp2105
g74
(dp2106
sg83
g2092
sg76
(lp2107
g69
(g70
g71
NtRp2108
(dp2109
g74
(dp2110
g82
I4
ssg83
g2104
sg76
(lp2111
g1017
asbasbasbag69
(g85
g71
NtRp2112
(dp2113
g74
(dp2114
sg83
g1961
sg76
(lp2115
g69
(g90
g71
NtRp2116
(dp2117
g74
(dp2118
g94
g95
ssg83
g2112
sg76
(lp2119
g1224
asbag69
(g90
g71
NtRp2120
(dp2121
g74
(dp2122
g101
g102
ssg83
g2112
sg76
(lp2123
S':'
asbag69
(g90
g71
NtRp2124
(dp2125
g74
(dp2126
sg83
g2112
sg76
(lp2127
g69
(g70
g71
NtRp2128
(dp2129
g74
(dp2130
g82
I4
ssg83
g2124
sg76
(lp2131
g112
asbasbasbag69
(g85
g71
NtRp2132
(dp2133
g74
(dp2134
sg83
g1961
sg76
(lp2135
g69
(g90
g71
NtRp2136
(dp2137
g74
(dp2138
g94
g95
ssg83
g2132
sg76
(lp2139
g1245
asbag69
(g90
g71
NtRp2140
(dp2141
g74
(dp2142
g101
g102
ssg83
g2132
sg76
(lp2143
S':'
asbag69
(g90
g71
NtRp2144
(dp2145
g74
(dp2146
sg83
g2132
sg76
(lp2147
g69
(g70
g71
NtRp2148
(dp2149
g74
(dp2150
g82
I4
ssg83
g2144
sg76
(lp2151
g112
asbasbasbag69
(g85
g71
NtRp2152
(dp2153
g74
(dp2154
sg83
g1961
sg76
(lp2155
g69
(g90
g71
NtRp2156
(dp2157
g74
(dp2158
g94
g95
ssg83
g2152
sg76
(lp2159
g1504
asbag69
(g90
g71
NtRp2160
(dp2161
g74
(dp2162
g101
g102
ssg83
g2152
sg76
(lp2163
S':'
asbag69
(g90
g71
NtRp2164
(dp2165
g74
(dp2166
sg83
g2152
sg76
(lp2167
g69
(g70
g71
NtRp2168
(dp2169
g74
(dp2170
g82
I4
ssg83
g2164
sg76
(lp2171
g1517
asbasbasbag69
(g85
g71
NtRp2172
(dp2173
g74
(dp2174
sg83
g1961
sg76
(lp2175
g69
(g90
g71
NtRp2176
(dp2177
g74
(dp2178
g94
g95
ssg83
g2172
sg76
(lp2179
g1568
asbag69
(g90
g71
NtRp2180
(dp2181
g74
(dp2182
g101
g102
ssg83
g2172
sg76
(lp2183
S':'
asbag69
(g90
g71
NtRp2184
(dp2185
g74
(dp2186
sg83
g2172
sg76
(lp2187
g69
(g70
g71
NtRp2188
(dp2189
g74
(dp2190
g82
I4
ssg83
g2184
sg76
(lp2191
g69
(g78
g71
NtRp2192
(dp2193
g74
(dp2194
g82
I3
ssg83
Nsg76
(lp2195
g69
(g85
g71
NtRp2196
(dp2197
g74
(dp2198
sg83
g2192
sg76
(lp2199
g69
(g90
g71
NtRp2200
(dp2201
g74
(dp2202
sg83
g2196
sg76
(lp2203
g69
(g70
g71
NtRp2204
(dp2205
g74
(dp2206
g82
I3
ssg83
g2200
sg76
(lp2207
S'1'
asbasbasbag69
(g85
g71
NtRp2208
(dp2209
g74
(dp2210
sg83
g2192
sg76
(lp2211
g69
(g90
g71
NtRp2212
(dp2213
g74
(dp2214
sg83
g2208
sg76
(lp2215
g69
(g70
g71
NtRp2216
(dp2217
g74
(dp2218
g82
I3
ssg83
g2212
sg76
(lp2219
S'99'
p2220
asbasbasbag69
(g85
g71
NtRp2221
(dp2222
g74
(dp2223
sg83
g2192
sg76
(lp2224
g69
(g90
g71
NtRp2225
(dp2226
g74
(dp2227
sg83
g2221
sg76
(lp2228
g69
(g70
g71
NtRp2229
(dp2230
g74
(dp2231
g82
I3
ssg83
g2225
sg76
(lp2232
S'7'
asbasbasbag69
(g85
g71
NtRp2233
(dp2234
g74
(dp2235
sg83
g2192
sg76
(lp2236
g69
(g90
g71
NtRp2237
(dp2238
g74
(dp2239
sg83
g2233
sg76
(lp2240
g69
(g70
g71
NtRp2241
(dp2242
g74
(dp2243
g82
I3
ssg83
g2237
sg76
(lp2244
S'datetime.datetime(2012, 3, 4, 22, 12, 8)'
p2245
asbasbasbag69
(g85
g71
NtRp2246
(dp2247
g74
(dp2248
sg83
g2192
sg76
(lp2249
g69
(g90
g71
NtRp2250
(dp2251
g74
(dp2252
sg83
g2246
sg76
(lp2253
g69
(g70
g71
NtRp2254
(dp2255
g74
(dp2256
g82
I3
ssg83
g2250
sg76
(lp2257
g1647
asbasbasbasbasbasbasbasbasbasbasbag69
(g85
g71
NtRp2258
(dp2259
g74
(dp2260
sg83
g79
sg76
(lp2261
g69
(g90
g71
NtRp2262
(dp2263
g74
(dp2264
g94
g95
ssg83
g2258
sg76
(lp2265
S'is_https'
p2266
asbag69
(g90
g71
NtRp2267
(dp2268
g74
(dp2269
g101
g102
ssg83
g2258
sg76
(lp2270
S':'
asbag69
(g90
g71
NtRp2271
(dp2272
g74
(dp2273
sg83
g2258
sg76
(lp2274
g69
(g70
g71
NtRp2275
(dp2276
g74
(dp2277
g82
I5
ssg83
g2271
sg76
(lp2278
g112
asbasbasbag69
(g85
g71
NtRp2279
(dp2280
g74
(dp2281
sg83
g79
sg76
(lp2282
g69
(g90
g71
NtRp2283
(dp2284
g74
(dp2285
g94
g95
ssg83
g2279
sg76
(lp2286
S'is_local'
p2287
asbag69
(g90
g71
NtRp2288
(dp2289
g74
(dp2290
g101
g102
ssg83
g2279
sg76
(lp2291
S':'
asbag69
(g90
g71
NtRp2292
(dp2293
g74
(dp2294
sg83
g2279
sg76
(lp2295
g69
(g70
g71
NtRp2296
(dp2297
g74
(dp2298
g82
I5
ssg83
g2292
sg76
(lp2299
g1756
asbasbasbag69
(g85
g71
NtRp2300
(dp2301
g74
(dp2302
sg83
g79
sg76
(lp2303
g69
(g90
g71
NtRp2304
(dp2305
g74
(dp2306
g94
g95
ssg83
g2300
sg76
(lp2307
S'is_restful'
p2308
asbag69
(g90
g71
NtRp2309
(dp2310
g74
(dp2311
g101
g102
ssg83
g2300
sg76
(lp2312
S':'
asbag69
(g90
g71
NtRp2313
(dp2314
g74
(dp2315
sg83
g2300
sg76
(lp2316
g69
(g70
g71
NtRp2317
(dp2318
g74
(dp2319
g82
I5
ssg83
g2313
sg76
(lp2320
g112
asbasbasbag69
(g85
g71
NtRp2321
(dp2322
g74
(dp2323
sg83
g79
sg76
(lp2324
g69
(g90
g71
NtRp2325
(dp2326
g74
(dp2327
g94
g95
ssg83
g2321
sg76
(lp2328
S'now'
p2329
asbag69
(g90
g71
NtRp2330
(dp2331
g74
(dp2332
g101
g102
ssg83
g2321
sg76
(lp2333
S':'
asbag69
(g90
g71
NtRp2334
(dp2335
g74
(dp2336
sg83
g2321
sg76
(lp2337
g69
(g70
g71
NtRp2338
(dp2339
g74
(dp2340
g82
I5
ssg83
g2334
sg76
(lp2341
S'datetime.datetime(2012, 5, 21, 23, 38, 12, 312752)'
p2342
asbasbasbag69
(g85
g71
NtRp2343
(dp2344
g74
(dp2345
sg83
g79
sg76
(lp2346
g69
(g90
g71
NtRp2347
(dp2348
g74
(dp2349
g94
g95
ssg83
g2343
sg76
(lp2350
S'post_vars'
p2351
asbag69
(g90
g71
NtRp2352
(dp2353
g74
(dp2354
g101
g102
ssg83
g2343
sg76
(lp2355
S':'
asbag69
(g90
g71
NtRp2356
(dp2357
g74
(dp2358
sg83
g2343
sg76
(lp2359
g69
(g70
g71
NtRp2360
(dp2361
g74
(dp2362
g82
I5
ssg83
g2356
sg76
(lp2363
g69
(g78
g71
NtRp2364
(dp2365
g74
(dp2366
g82
I4
ssg83
Nsg76
(lp2367
sbasbasbasbag69
(g85
g71
NtRp2368
(dp2369
g74
(dp2370
sg83
g79
sg76
(lp2371
g69
(g90
g71
NtRp2372
(dp2373
g74
(dp2374
g94
g95
ssg83
g2368
sg76
(lp2375
S'raw_args'
p2376
asbag69
(g90
g71
NtRp2377
(dp2378
g74
(dp2379
g101
g102
ssg83
g2368
sg76
(lp2380
S':'
asbag69
(g90
g71
NtRp2381
(dp2382
g74
(dp2383
sg83
g2368
sg76
(lp2384
g69
(g70
g71
NtRp2385
(dp2386
g74
(dp2387
g82
I5
ssg83
g2381
sg76
(lp2388
S'1/2'
p2389
asbasbasbag69
(g85
g71
NtRp2390
(dp2391
g74
(dp2392
sg83
g79
sg76
(lp2393
g69
(g90
g71
NtRp2394
(dp2395
g74
(dp2396
g94
g95
ssg83
g2390
sg76
(lp2397
S'url'
p2398
asbag69
(g90
g71
NtRp2399
(dp2400
g74
(dp2401
g101
g102
ssg83
g2390
sg76
(lp2402
S':'
asbag69
(g90
g71
NtRp2403
(dp2404
g74
(dp2405
sg83
g2390
sg76
(lp2406
g69
(g70
g71
NtRp2407
(dp2408
g74
(dp2409
g82
I5
ssg83
g2403
sg76
(lp2410
S'/bigvotes/vote/index/1/2'
p2411
asbasbasbag69
(g85
g71
NtRp2412
(dp2413
g74
(dp2414
sg83
g79
sg76
(lp2415
g69
(g90
g71
NtRp2416
(dp2417
g74
(dp2418
g94
g95
ssg83
g2412
sg76
(lp2419
S'utcnow'
p2420
asbag69
(g90
g71
NtRp2421
(dp2422
g74
(dp2423
g101
g102
ssg83
g2412
sg76
(lp2424
S':'
asbag69
(g90
g71
NtRp2425
(dp2426
g74
(dp2427
sg83
g2412
sg76
(lp2428
g69
(g70
g71
NtRp2429
(dp2430
g74
(dp2431
g82
I5
ssg83
g2425
sg76
(lp2432
S'datetime.datetime(2012, 5, 22, 2, 38, 12, 312776)'
p2433
asbasbasbag69
(g85
g71
NtRp2434
(dp2435
g74
(dp2436
sg83
g79
sg76
(lp2437
g69
(g90
g71
NtRp2438
(dp2439
g74
(dp2440
g94
g95
ssg83
g2434
sg76
(lp2441
S'uuid'
p2442
asbag69
(g90
g71
NtRp2443
(dp2444
g74
(dp2445
g101
g102
ssg83
g2434
sg76
(lp2446
S':'
asbag69
(g90
g71
NtRp2447
(dp2448
g74
(dp2449
sg83
g2434
sg76
(lp2450
g69
(g70
g71
NtRp2451
(dp2452
g74
(dp2453
g82
I5
ssg83
g2447
sg76
(lp2454
S'bigvotes/127.0.0.1.2012-05-21.23-38-12.cd3377ca-aca1-410a-898f-1bde2942afc9'
p2455
asbasbasbag69
(g85
g71
NtRp2456
(dp2457
g74
(dp2458
sg83
g79
sg76
(lp2459
g69
(g90
g71
NtRp2460
(dp2461
g74
(dp2462
g94
g95
ssg83
g2456
sg76
(lp2463
S'vars'
p2464
asbag69
(g90
g71
NtRp2465
(dp2466
g74
(dp2467
g101
g102
ssg83
g2456
sg76
(lp2468
S':'
asbag69
(g90
g71
NtRp2469
(dp2470
g74
(dp2471
sg83
g2456
sg76
(lp2472
g69
(g70
g71
NtRp2473
(dp2474
g74
(dp2475
g82
I5
ssg83
g2469
sg76
(lp2476
g69
(g78
g71
NtRp2477
(dp2478
g74
(dp2479
g82
I4
ssg83
Nsg76
(lp2480
sbasbasbasbag69
(g85
g71
NtRp2481
(dp2482
g74
(dp2483
sg83
g79
sg76
(lp2484
g69
(g90
g71
NtRp2485
(dp2486
g74
(dp2487
g94
g95
ssg83
g2481
sg76
(lp2488
S'wsgi'
p2489
asbag69
(g90
g71
NtRp2490
(dp2491
g74
(dp2492
g101
g102
ssg83
g2481
sg76
(lp2493
S':'
asbag69
(g90
g71
NtRp2494
(dp2495
g74
(dp2496
sg83
g2481
sg76
(lp2497
g69
(g70
g71
NtRp2498
(dp2499
g74
(dp2500
g82
I5
ssg83
g2494
sg76
(lp2501
g69
(g78
g71
NtRp2502
(dp2503
g74
(dp2504
g82
I4
ssg83
Nsg76
(lp2505
g69
(g85
g71
NtRp2506
(dp2507
g74
(dp2508
sg83
g2502
sg76
(lp2509
g69
(g90
g71
NtRp2510
(dp2511
g74
(dp2512
g94
g95
ssg83
g2506
sg76
(lp2513
S'environ'
p2514
asbag69
(g90
g71
NtRp2515
(dp2516
g74
(dp2517
g101
g102
ssg83
g2506
sg76
(lp2518
S':'
asbag69
(g90
g71
NtRp2519
(dp2520
g74
(dp2521
sg83
g2506
sg76
(lp2522
g69
(g70
g71
NtRp2523
(dp2524
g74
(dp2525
g82
I4
ssg83
g2519
sg76
(lp2526
g69
(g78
g71
NtRp2527
(dp2528
g74
(dp2529
g82
I3
ssg83
Nsg76
(lp2530
g69
(g85
g71
NtRp2531
(dp2532
g74
(dp2533
sg83
g2527
sg76
(lp2534
g69
(g90
g71
NtRp2535
(dp2536
g74
(dp2537
g94
g95
ssg83
g2531
sg76
(lp2538
S'HTTP_ACCEPT'
p2539
asbag69
(g90
g71
NtRp2540
(dp2541
g74
(dp2542
g101
g102
ssg83
g2531
sg76
(lp2543
S':'
asbag69
(g90
g71
NtRp2544
(dp2545
g74
(dp2546
sg83
g2531
sg76
(lp2547
g69
(g70
g71
NtRp2548
(dp2549
g74
(dp2550
g82
I3
ssg83
g2544
sg76
(lp2551
g1039
asbasbasbag69
(g85
g71
NtRp2552
(dp2553
g74
(dp2554
sg83
g2527
sg76
(lp2555
g69
(g90
g71
NtRp2556
(dp2557
g74
(dp2558
g94
g95
ssg83
g2552
sg76
(lp2559
S'HTTP_ACCEPT_ENCODING'
p2560
asbag69
(g90
g71
NtRp2561
(dp2562
g74
(dp2563
g101
g102
ssg83
g2552
sg76
(lp2564
S':'
asbag69
(g90
g71
NtRp2565
(dp2566
g74
(dp2567
sg83
g2552
sg76
(lp2568
g69
(g70
g71
NtRp2569
(dp2570
g74
(dp2571
g82
I3
ssg83
g2565
sg76
(lp2572
g1061
asbasbasbag69
(g85
g71
NtRp2573
(dp2574
g74
(dp2575
sg83
g2527
sg76
(lp2576
g69
(g90
g71
NtRp2577
(dp2578
g74
(dp2579
g94
g95
ssg83
g2573
sg76
(lp2580
S'HTTP_ACCEPT_LANGUAGE'
p2581
asbag69
(g90
g71
NtRp2582
(dp2583
g74
(dp2584
g101
g102
ssg83
g2573
sg76
(lp2585
S':'
asbag69
(g90
g71
NtRp2586
(dp2587
g74
(dp2588
sg83
g2573
sg76
(lp2589
g69
(g70
g71
NtRp2590
(dp2591
g74
(dp2592
g82
I3
ssg83
g2586
sg76
(lp2593
g1083
asbasbasbag69
(g85
g71
NtRp2594
(dp2595
g74
(dp2596
sg83
g2527
sg76
(lp2597
g69
(g90
g71
NtRp2598
(dp2599
g74
(dp2600
g94
g95
ssg83
g2594
sg76
(lp2601
S'HTTP_CACHE_CONTROL'
p2602
asbag69
(g90
g71
NtRp2603
(dp2604
g74
(dp2605
g101
g102
ssg83
g2594
sg76
(lp2606
S':'
asbag69
(g90
g71
NtRp2607
(dp2608
g74
(dp2609
sg83
g2594
sg76
(lp2610
g69
(g70
g71
NtRp2611
(dp2612
g74
(dp2613
g82
I3
ssg83
g2607
sg76
(lp2614
g1105
asbasbasbag69
(g85
g71
NtRp2615
(dp2616
g74
(dp2617
sg83
g2527
sg76
(lp2618
g69
(g90
g71
NtRp2619
(dp2620
g74
(dp2621
g94
g95
ssg83
g2615
sg76
(lp2622
S'HTTP_CONNECTION'
p2623
asbag69
(g90
g71
NtRp2624
(dp2625
g74
(dp2626
g101
g102
ssg83
g2615
sg76
(lp2627
S':'
asbag69
(g90
g71
NtRp2628
(dp2629
g74
(dp2630
sg83
g2615
sg76
(lp2631
g69
(g70
g71
NtRp2632
(dp2633
g74
(dp2634
g82
I3
ssg83
g2628
sg76
(lp2635
g1127
asbasbasbag69
(g85
g71
NtRp2636
(dp2637
g74
(dp2638
sg83
g2527
sg76
(lp2639
g69
(g90
g71
NtRp2640
(dp2641
g74
(dp2642
g94
g95
ssg83
g2636
sg76
(lp2643
S'HTTP_COOKIE'
p2644
asbag69
(g90
g71
NtRp2645
(dp2646
g74
(dp2647
g101
g102
ssg83
g2636
sg76
(lp2648
S':'
asbag69
(g90
g71
NtRp2649
(dp2650
g74
(dp2651
sg83
g2636
sg76
(lp2652
g69
(g70
g71
NtRp2653
(dp2654
g74
(dp2655
g82
I3
ssg83
g2649
sg76
(lp2656
g1149
asbasbasbag69
(g85
g71
NtRp2657
(dp2658
g74
(dp2659
sg83
g2527
sg76
(lp2660
g69
(g90
g71
NtRp2661
(dp2662
g74
(dp2663
g94
g95
ssg83
g2657
sg76
(lp2664
S'HTTP_HOST'
p2665
asbag69
(g90
g71
NtRp2666
(dp2667
g74
(dp2668
g101
g102
ssg83
g2657
sg76
(lp2669
S':'
asbag69
(g90
g71
NtRp2670
(dp2671
g74
(dp2672
sg83
g2657
sg76
(lp2673
g69
(g70
g71
NtRp2674
(dp2675
g74
(dp2676
g82
I3
ssg83
g2670
sg76
(lp2677
g1171
asbasbasbag69
(g85
g71
NtRp2678
(dp2679
g74
(dp2680
sg83
g2527
sg76
(lp2681
g69
(g90
g71
NtRp2682
(dp2683
g74
(dp2684
g94
g95
ssg83
g2678
sg76
(lp2685
S'HTTP_REFERER'
p2686
asbag69
(g90
g71
NtRp2687
(dp2688
g74
(dp2689
g101
g102
ssg83
g2678
sg76
(lp2690
S':'
asbag69
(g90
g71
NtRp2691
(dp2692
g74
(dp2693
sg83
g2678
sg76
(lp2694
g69
(g70
g71
NtRp2695
(dp2696
g74
(dp2697
g82
I3
ssg83
g2691
sg76
(lp2698
g1193
asbasbasbag69
(g85
g71
NtRp2699
(dp2700
g74
(dp2701
sg83
g2527
sg76
(lp2702
g69
(g90
g71
NtRp2703
(dp2704
g74
(dp2705
g94
g95
ssg83
g2699
sg76
(lp2706
S'HTTP_USER_AGENT'
p2707
asbag69
(g90
g71
NtRp2708
(dp2709
g74
(dp2710
g101
g102
ssg83
g2699
sg76
(lp2711
S':'
asbag69
(g90
g71
NtRp2712
(dp2713
g74
(dp2714
sg83
g2699
sg76
(lp2715
g69
(g70
g71
NtRp2716
(dp2717
g74
(dp2718
g82
I3
ssg83
g2712
sg76
(lp2719
g1215
asbasbasbag69
(g85
g71
NtRp2720
(dp2721
g74
(dp2722
sg83
g2527
sg76
(lp2723
g69
(g90
g71
NtRp2724
(dp2725
g74
(dp2726
g94
g95
ssg83
g2720
sg76
(lp2727
S'PATH_INFO'
p2728
asbag69
(g90
g71
NtRp2729
(dp2730
g74
(dp2731
g101
g102
ssg83
g2720
sg76
(lp2732
S':'
asbag69
(g90
g71
NtRp2733
(dp2734
g74
(dp2735
sg83
g2720
sg76
(lp2736
g69
(g70
g71
NtRp2737
(dp2738
g74
(dp2739
g82
I3
ssg83
g2733
sg76
(lp2740
g1279
asbasbasbag69
(g85
g71
NtRp2741
(dp2742
g74
(dp2743
sg83
g2527
sg76
(lp2744
g69
(g90
g71
NtRp2745
(dp2746
g74
(dp2747
g94
g95
ssg83
g2741
sg76
(lp2748
S'QUERY_STRING'
p2749
asbag69
(g90
g71
NtRp2750
(dp2751
g74
(dp2752
g101
g102
ssg83
g2741
sg76
(lp2753
S':'
asbag69
(g90
g71
NtRp2754
(dp2755
g74
(dp2756
sg83
g2741
sg76
(lp2757
g69
(g70
g71
NtRp2758
(dp2759
g74
(dp2760
g82
I3
ssg83
g2754
sg76
(lp2761
S''
asbasbasbag69
(g85
g71
NtRp2762
(dp2763
g74
(dp2764
sg83
g2527
sg76
(lp2765
g69
(g90
g71
NtRp2766
(dp2767
g74
(dp2768
g94
g95
ssg83
g2762
sg76
(lp2769
S'REMOTE_ADDR'
p2770
asbag69
(g90
g71
NtRp2771
(dp2772
g74
(dp2773
g101
g102
ssg83
g2762
sg76
(lp2774
S':'
asbag69
(g90
g71
NtRp2775
(dp2776
g74
(dp2777
sg83
g2762
sg76
(lp2778
g69
(g70
g71
NtRp2779
(dp2780
g74
(dp2781
g82
I3
ssg83
g2775
sg76
(lp2782
g226
asbasbasbag69
(g85
g71
NtRp2783
(dp2784
g74
(dp2785
sg83
g2527
sg76
(lp2786
g69
(g90
g71
NtRp2787
(dp2788
g74
(dp2789
g94
g95
ssg83
g2783
sg76
(lp2790
S'REMOTE_PORT'
p2791
asbag69
(g90
g71
NtRp2792
(dp2793
g74
(dp2794
g101
g102
ssg83
g2783
sg76
(lp2795
S':'
asbag69
(g90
g71
NtRp2796
(dp2797
g74
(dp2798
sg83
g2783
sg76
(lp2799
g69
(g70
g71
NtRp2800
(dp2801
g74
(dp2802
g82
I3
ssg83
g2796
sg76
(lp2803
g1343
asbasbasbag69
(g85
g71
NtRp2804
(dp2805
g74
(dp2806
sg83
g2527
sg76
(lp2807
g69
(g90
g71
NtRp2808
(dp2809
g74
(dp2810
g94
g95
ssg83
g2804
sg76
(lp2811
S'REQUEST_METHOD'
p2812
asbag69
(g90
g71
NtRp2813
(dp2814
g74
(dp2815
g101
g102
ssg83
g2804
sg76
(lp2816
S':'
asbag69
(g90
g71
NtRp2817
(dp2818
g74
(dp2819
sg83
g2804
sg76
(lp2820
g69
(g70
g71
NtRp2821
(dp2822
g74
(dp2823
g82
I3
ssg83
g2817
sg76
(lp2824
g1365
asbasbasbag69
(g85
g71
NtRp2825
(dp2826
g74
(dp2827
sg83
g2527
sg76
(lp2828
g69
(g90
g71
NtRp2829
(dp2830
g74
(dp2831
g94
g95
ssg83
g2825
sg76
(lp2832
S'REQUEST_URI'
p2833
asbag69
(g90
g71
NtRp2834
(dp2835
g74
(dp2836
g101
g102
ssg83
g2825
sg76
(lp2837
S':'
asbag69
(g90
g71
NtRp2838
(dp2839
g74
(dp2840
sg83
g2825
sg76
(lp2841
g69
(g70
g71
NtRp2842
(dp2843
g74
(dp2844
g82
I3
ssg83
g2838
sg76
(lp2845
g1279
asbasbasbag69
(g85
g71
NtRp2846
(dp2847
g74
(dp2848
sg83
g2527
sg76
(lp2849
g69
(g90
g71
NtRp2850
(dp2851
g74
(dp2852
g94
g95
ssg83
g2846
sg76
(lp2853
S'SCRIPT_NAME'
p2854
asbag69
(g90
g71
NtRp2855
(dp2856
g74
(dp2857
g101
g102
ssg83
g2846
sg76
(lp2858
S':'
asbag69
(g90
g71
NtRp2859
(dp2860
g74
(dp2861
sg83
g2846
sg76
(lp2862
g69
(g70
g71
NtRp2863
(dp2864
g74
(dp2865
g82
I3
ssg83
g2859
sg76
(lp2866
S''
asbasbasbag69
(g85
g71
NtRp2867
(dp2868
g74
(dp2869
sg83
g2527
sg76
(lp2870
g69
(g90
g71
NtRp2871
(dp2872
g74
(dp2873
g94
g95
ssg83
g2867
sg76
(lp2874
S'SERVER_NAME'
p2875
asbag69
(g90
g71
NtRp2876
(dp2877
g74
(dp2878
g101
g102
ssg83
g2867
sg76
(lp2879
S':'
asbag69
(g90
g71
NtRp2880
(dp2881
g74
(dp2882
sg83
g2867
sg76
(lp2883
g69
(g70
g71
NtRp2884
(dp2885
g74
(dp2886
g82
I3
ssg83
g2880
sg76
(lp2887
g1429
asbasbasbag69
(g85
g71
NtRp2888
(dp2889
g74
(dp2890
sg83
g2527
sg76
(lp2891
g69
(g90
g71
NtRp2892
(dp2893
g74
(dp2894
g94
g95
ssg83
g2888
sg76
(lp2895
S'SERVER_PORT'
p2896
asbag69
(g90
g71
NtRp2897
(dp2898
g74
(dp2899
g101
g102
ssg83
g2888
sg76
(lp2900
S':'
asbag69
(g90
g71
NtRp2901
(dp2902
g74
(dp2903
sg83
g2888
sg76
(lp2904
g69
(g70
g71
NtRp2905
(dp2906
g74
(dp2907
g82
I3
ssg83
g2901
sg76
(lp2908
g1451
asbasbasbag69
(g85
g71
NtRp2909
(dp2910
g74
(dp2911
sg83
g2527
sg76
(lp2912
g69
(g90
g71
NtRp2913
(dp2914
g74
(dp2915
g94
g95
ssg83
g2909
sg76
(lp2916
S'SERVER_PROTOCOL'
p2917
asbag69
(g90
g71
NtRp2918
(dp2919
g74
(dp2920
g101
g102
ssg83
g2909
sg76
(lp2921
S':'
asbag69
(g90
g71
NtRp2922
(dp2923
g74
(dp2924
sg83
g2909
sg76
(lp2925
g69
(g70
g71
NtRp2926
(dp2927
g74
(dp2928
g82
I3
ssg83
g2922
sg76
(lp2929
g1473
asbasbasbag69
(g85
g71
NtRp2930
(dp2931
g74
(dp2932
sg83
g2527
sg76
(lp2933
g69
(g90
g71
NtRp2934
(dp2935
g74
(dp2936
g94
g95
ssg83
g2930
sg76
(lp2937
S'SERVER_SOFTWARE'
p2938
asbag69
(g90
g71
NtRp2939
(dp2940
g74
(dp2941
g101
g102
ssg83
g2930
sg76
(lp2942
S':'
asbag69
(g90
g71
NtRp2943
(dp2944
g74
(dp2945
sg83
g2930
sg76
(lp2946
g69
(g70
g71
NtRp2947
(dp2948
g74
(dp2949
g82
I3
ssg83
g2943
sg76
(lp2950
g1495
asbasbasbag69
(g85
g71
NtRp2951
(dp2952
g74
(dp2953
sg83
g2527
sg76
(lp2954
g69
(g90
g71
NtRp2955
(dp2956
g74
(dp2957
g94
g95
ssg83
g2951
sg76
(lp2958
S'WEB2PY_ORIGINAL_URI'
p2959
asbag69
(g90
g71
NtRp2960
(dp2961
g74
(dp2962
g101
g102
ssg83
g2951
sg76
(lp2963
S':'
asbag69
(g90
g71
NtRp2964
(dp2965
g74
(dp2966
sg83
g2951
sg76
(lp2967
g69
(g70
g71
NtRp2968
(dp2969
g74
(dp2970
g82
I3
ssg83
g2964
sg76
(lp2971
g1279
asbasbasbag69
(g85
g71
NtRp2972
(dp2973
g74
(dp2974
sg83
g2527
sg76
(lp2975
g69
(g90
g71
NtRp2976
(dp2977
g74
(dp2978
g94
g95
ssg83
g2972
sg76
(lp2979
S'wsgi.errors'
p2980
asbag69
(g90
g71
NtRp2981
(dp2982
g74
(dp2983
g101
g102
ssg83
g2972
sg76
(lp2984
S':'
asbag69
(g90
g71
NtRp2985
(dp2986
g74
(dp2987
sg83
g2972
sg76
(lp2988
g69
(g70
g71
NtRp2989
(dp2990
g74
(dp2991
g82
I3
ssg83
g2985
sg76
(lp2992
S"<open file '<stderr>', mode 'w' at 0xb78a20d0>"
p2993
asbasbasbag69
(g85
g71
NtRp2994
(dp2995
g74
(dp2996
sg83
g2527
sg76
(lp2997
g69
(g90
g71
NtRp2998
(dp2999
g74
(dp3000
g94
g95
ssg83
g2994
sg76
(lp3001
S'wsgi.file_wrapper'
p3002
asbag69
(g90
g71
NtRp3003
(dp3004
g74
(dp3005
g101
g102
ssg83
g2994
sg76
(lp3006
S':'
asbag69
(g90
g71
NtRp3007
(dp3008
g74
(dp3009
sg83
g2994
sg76
(lp3010
g69
(g70
g71
NtRp3011
(dp3012
g74
(dp3013
g82
I3
ssg83
g3007
sg76
(lp3014
S'<class wsgiref.util.FileWrapper at 0xa04be6c>'
p3015
asbasbasbag69
(g85
g71
NtRp3016
(dp3017
g74
(dp3018
sg83
g2527
sg76
(lp3019
g69
(g90
g71
NtRp3020
(dp3021
g74
(dp3022
g94
g95
ssg83
g3016
sg76
(lp3023
S'wsgi.input'
p3024
asbag69
(g90
g71
NtRp3025
(dp3026
g74
(dp3027
g101
g102
ssg83
g3016
sg76
(lp3028
S':'
asbag69
(g90
g71
NtRp3029
(dp3030
g74
(dp3031
sg83
g3016
sg76
(lp3032
g69
(g70
g71
NtRp3033
(dp3034
g74
(dp3035
g82
I3
ssg83
g3029
sg76
(lp3036
S'<cStringIO.StringO object at 0xa3be3e0>'
p3037
asbasbasbag69
(g85
g71
NtRp3038
(dp3039
g74
(dp3040
sg83
g2527
sg76
(lp3041
g69
(g90
g71
NtRp3042
(dp3043
g74
(dp3044
g94
g95
ssg83
g3038
sg76
(lp3045
S'wsgi.multiprocess'
p3046
asbag69
(g90
g71
NtRp3047
(dp3048
g74
(dp3049
g101
g102
ssg83
g3038
sg76
(lp3050
S':'
asbag69
(g90
g71
NtRp3051
(dp3052
g74
(dp3053
sg83
g3038
sg76
(lp3054
g69
(g70
g71
NtRp3055
(dp3056
g74
(dp3057
g82
I3
ssg83
g3051
sg76
(lp3058
g112
asbasbasbag69
(g85
g71
NtRp3059
(dp3060
g74
(dp3061
sg83
g2527
sg76
(lp3062
g69
(g90
g71
NtRp3063
(dp3064
g74
(dp3065
g94
g95
ssg83
g3059
sg76
(lp3066
S'wsgi.multithread'
p3067
asbag69
(g90
g71
NtRp3068
(dp3069
g74
(dp3070
g101
g102
ssg83
g3059
sg76
(lp3071
S':'
asbag69
(g90
g71
NtRp3072
(dp3073
g74
(dp3074
sg83
g3059
sg76
(lp3075
g69
(g70
g71
NtRp3076
(dp3077
g74
(dp3078
g82
I3
ssg83
g3072
sg76
(lp3079
g1756
asbasbasbag69
(g85
g71
NtRp3080
(dp3081
g74
(dp3082
sg83
g2527
sg76
(lp3083
g69
(g90
g71
NtRp3084
(dp3085
g74
(dp3086
g94
g95
ssg83
g3080
sg76
(lp3087
S'wsgi.run_once'
p3088
asbag69
(g90
g71
NtRp3089
(dp3090
g74
(dp3091
g101
g102
ssg83
g3080
sg76
(lp3092
S':'
asbag69
(g90
g71
NtRp3093
(dp3094
g74
(dp3095
sg83
g3080
sg76
(lp3096
g69
(g70
g71
NtRp3097
(dp3098
g74
(dp3099
g82
I3
ssg83
g3093
sg76
(lp3100
g112
asbasbasbag69
(g85
g71
NtRp3101
(dp3102
g74
(dp3103
sg83
g2527
sg76
(lp3104
g69
(g90
g71
NtRp3105
(dp3106
g74
(dp3107
g94
g95
ssg83
g3101
sg76
(lp3108
S'wsgi.url_scheme'
p3109
asbag69
(g90
g71
NtRp3110
(dp3111
g74
(dp3112
g101
g102
ssg83
g3101
sg76
(lp3113
S':'
asbag69
(g90
g71
NtRp3114
(dp3115
g74
(dp3116
sg83
g3101
sg76
(lp3117
g69
(g70
g71
NtRp3118
(dp3119
g74
(dp3120
g82
I3
ssg83
g3114
sg76
(lp3121
g1799
asbasbasbag69
(g85
g71
NtRp3122
(dp3123
g74
(dp3124
sg83
g2527
sg76
(lp3125
g69
(g90
g71
NtRp3126
(dp3127
g74
(dp3128
g94
g95
ssg83
g3122
sg76
(lp3129
S'wsgi.version'
p3130
asbag69
(g90
g71
NtRp3131
(dp3132
g74
(dp3133
g101
g102
ssg83
g3122
sg76
(lp3134
S':'
asbag69
(g90
g71
NtRp3135
(dp3136
g74
(dp3137
sg83
g3122
sg76
(lp3138
g69
(g70
g71
NtRp3139
(dp3140
g74
(dp3141
g82
I3
ssg83
g3135
sg76
(lp3142
S'1'
asbasbasbasbasbasbasbasbasbasbasbasbasbsS'frames'
p3143
(lp3144
(dp3145
S'file'
p3146
S'/home/kaique/Projects/web/big-votes/web2py/gluon/restricted.py'
p3147
sS'dump'
p3148
(dp3149
S'code'
p3150
S"'# -*- coding: utf-8 -*-\\nfrom bigvotes import Vot...():\\n\\tpass\\nresponse._vars=response._caller(index)\\n'"
p3151
sS'layer'
p3152
S"'/home/kaique/Projects/web/big-votes/web2py/applications/bigvotes/controllers/vote.py'"
p3153
sS'global compile2'
p3154
S'<function compile2>'
p3155
sS'ccode'
p3156
S'undefined'
p3157
ssS'lnum'
p3158
I204
sS'lines'
p3159
(dp3160
I199
S"    environment['__name__'] = '__restricted__'"
p3161
sI200
S'    try:'
p3162
sI201
S'        if type(code) == types.CodeType:'
p3163
sI202
S'            ccode = code'
p3164
sI203
S'        else:'
p3165
sI204
S'            ccode = compile2(code,layer)'
p3166
sI205
S'        exec ccode in environment'
p3167
sI206
S'    except HTTP:'
p3168
sI207
S'        raise'
p3169
sI208
S'    except RestrictedError:'
p3170
ssS'call'
p3171
S"(code='# -*- coding: utf-8 -*-\\nfrom bigvotes import Vot...():\\n\\tpass\\nresponse._vars=response._caller(index)\\n', environment={'A': <class 'gluon.html.A'>, 'Auth': <class 'gluon.tools.Auth'>, 'B': <class 'gluon.html.B'>, 'BEAUTIFY': <class 'gluon.html.BEAUTIFY'>, 'BODY': <class 'gluon.html.BODY'>, 'BR': <class 'gluon.html.BR'>, 'BUTTON': <class 'gluon.html.BUTTON'>, 'CAT': <class 'gluon.html.CAT'>, 'CENTER': <class 'gluon.html.CENTER'>, 'CLEANUP': <class 'gluon.validators.CLEANUP'>, ...}, layer='/home/kaique/Projects/web/big-votes/web2py/applications/bigvotes/controllers/vote.py')"
p3172
sS'func'
p3173
S'restricted'
p3174
sa(dp3175
g3146
S'/home/kaique/Projects/web/big-votes/web2py/gluon/restricted.py'
p3176
sg3148
(dp3177
S'builtincompile'
p3178
S'<built-in function compile>'
p3179
sS'code'
p3180
S"'# -*- coding: utf-8 -*-\\nfrom bigvotes import Vot...():\\n\\tpass\\nresponse._vars=response._caller(index)\\n'"
p3181
sS'code.rstrip'
p3182
S'<built-in method rstrip of str object>'
p3183
sS').replace'
p3184
g3157
sS'layer'
p3185
S"'/home/kaique/Projects/web/big-votes/web2py/applications/bigvotes/controllers/vote.py'"
p3186
ssg3158
I189
sg3159
(dp3187
I192
S'    """'
p3188
sI193
S'    runs code in environment and returns the output. if an exception occurs'
p3189
sI184
S''
sI185
S'def compile2(code,layer):'
p3190
sI186
S'    """'
p3191
sI187
S"    The +'\\n' is necessary else compile fails when code ends in a comment."
p3192
sI188
S'    """'
p3193
sI189
S"    return compile(code.rstrip().replace('\\r\\n','\\n')+'\\n', layer, 'exec')"
p3194
sI190
S''
sI191
S"def restricted(code, environment=None, layer='Unknown'):"
p3195
ssg3171
S"(code='# -*- coding: utf-8 -*-\\nfrom bigvotes import Vot...():\\n\\tpass\\nresponse._vars=response._caller(index)\\n', layer='/home/kaique/Projects/web/big-votes/web2py/applications/bigvotes/controllers/vote.py')"
p3196
sg3173
S'compile2'
p3197
sasS'pyver'
p3198
S'Python 2.7.3: /usr/bin/python'
p3199
sS'session'
p3200
g69
(g70
g71
NtRp3201
(dp3202
g74
(dp3203
sg76
(lp3204
g69
(g78
g71
NtRp3205
(dp3206
g74
(dp3207
g82
I5
ssg83
Nsg76
(lp3208
g69
(g85
g71
NtRp3209
(dp3210
g74
(dp3211
sg83
g3205
sg76
(lp3212
g69
(g90
g71
NtRp3213
(dp3214
g74
(dp3215
g94
g95
ssg83
g3209
sg76
(lp3216
S'last_query'
p3217
asbag69
(g90
g71
NtRp3218
(dp3219
g74
(dp3220
g101
g102
ssg83
g3209
sg76
(lp3221
S':'
asbag69
(g90
g71
NtRp3222
(dp3223
g74
(dp3224
sg83
g3209
sg76
(lp3225
g69
(g70
g71
NtRp3226
(dp3227
g74
(dp3228
g82
I5
ssg83
g3222
sg76
(lp3229
S'db.voting.id>0'
p3230
asbasbasbag69
(g85
g71
NtRp3231
(dp3232
g74
(dp3233
sg83
g3205
sg76
(lp3234
g69
(g90
g71
NtRp3235
(dp3236
g74
(dp3237
g94
g95
ssg83
g3231
sg76
(lp3238
S'vote_message'
p3239
asbag69
(g90
g71
NtRp3240
(dp3241
g74
(dp3242
g101
g102
ssg83
g3231
sg76
(lp3243
S':'
asbag69
(g90
g71
NtRp3244
(dp3245
g74
(dp3246
sg83
g3231
sg76
(lp3247
g69
(g70
g71
NtRp3248
(dp3249
g74
(dp3250
g82
I5
ssg83
g3244
sg76
(lp3251
S''
asbasbasbasbasbsS'etype'
p3252
S"<type 'exceptions.IndentationError'>"
p3253
sS'date'
p3254
S'Mon May 21 23:38:12 2012'
p3255
sS'response'
p3256
g69
(g70
g71
NtRp3257
(dp3258
g74
(dp3259
sg76
(lp3260
g69
(g78
g71
NtRp3261
(dp3262
g74
(dp3263
g82
I5
ssg83
Nsg76
(lp3264
g69
(g85
g71
NtRp3265
(dp3266
g74
(dp3267
sg83
g3261
sg76
(lp3268
g69
(g90
g71
NtRp3269
(dp3270
g74
(dp3271
g94
g95
ssg83
g3265
sg76
(lp3272
g191
asbag69
(g90
g71
NtRp3273
(dp3274
g74
(dp3275
g101
g102
ssg83
g3265
sg76
(lp3276
S':'
asbag69
(g90
g71
NtRp3277
(dp3278
g74
(dp3279
sg83
g3265
sg76
(lp3280
g69
(g70
g71
NtRp3281
(dp3282
g74
(dp3283
g82
I5
ssg83
g3277
sg76
(lp3284
S'<cStringIO.StringO object at 0xa3a9680>'
p3285
asbasbasbag69
(g85
g71
NtRp3286
(dp3287
g74
(dp3288
sg83
g3261
sg76
(lp3289
g69
(g90
g71
NtRp3290
(dp3291
g74
(dp3292
g94
g95
ssg83
g3286
sg76
(lp3293
g257
asbag69
(g90
g71
NtRp3294
(dp3295
g74
(dp3296
g101
g102
ssg83
g3286
sg76
(lp3297
S':'
asbag69
(g90
g71
NtRp3298
(dp3299
g74
(dp3300
sg83
g3286
sg76
(lp3301
g69
(g70
g71
NtRp3302
(dp3303
g74
(dp3304
g82
I5
ssg83
g3298
sg76
(lp3305
g69
(g78
g71
NtRp3306
(dp3307
g74
(dp3308
g82
I4
ssg83
Nsg76
(lp3309
g69
(g85
g71
NtRp3310
(dp3311
g74
(dp3312
sg83
g3306
sg76
(lp3313
g69
(g90
g71
NtRp3314
(dp3315
g74
(dp3316
g94
g95
ssg83
g3310
sg76
(lp3317
S'session_id_bigvotes'
p3318
asbag69
(g90
g71
NtRp3319
(dp3320
g74
(dp3321
g101
g102
ssg83
g3310
sg76
(lp3322
S':'
asbag69
(g90
g71
NtRp3323
(dp3324
g74
(dp3325
sg83
g3310
sg76
(lp3326
g69
(g70
g71
NtRp3327
(dp3328
g74
(dp3329
g82
I4
ssg83
g3323
sg76
(lp3330
g69
(g78
g71
NtRp3331
(dp3332
g74
(dp3333
g82
I3
ssg83
Nsg76
(lp3334
g69
(g85
g71
NtRp3335
(dp3336
g74
(dp3337
sg83
g3331
sg76
(lp3338
g69
(g90
g71
NtRp3339
(dp3340
g74
(dp3341
g94
g95
ssg83
g3335
sg76
(lp3342
g307
asbag69
(g90
g71
NtRp3343
(dp3344
g74
(dp3345
g101
g102
ssg83
g3335
sg76
(lp3346
S':'
asbag69
(g90
g71
NtRp3347
(dp3348
g74
(dp3349
sg83
g3335
sg76
(lp3350
g69
(g70
g71
NtRp3351
(dp3352
g74
(dp3353
g82
I3
ssg83
g3347
sg76
(lp3354
S''
asbasbasbag69
(g85
g71
NtRp3355
(dp3356
g74
(dp3357
sg83
g3331
sg76
(lp3358
g69
(g90
g71
NtRp3359
(dp3360
g74
(dp3361
g94
g95
ssg83
g3355
sg76
(lp3362
g328
asbag69
(g90
g71
NtRp3363
(dp3364
g74
(dp3365
g101
g102
ssg83
g3355
sg76
(lp3366
S':'
asbag69
(g90
g71
NtRp3367
(dp3368
g74
(dp3369
sg83
g3355
sg76
(lp3370
g69
(g70
g71
NtRp3371
(dp3372
g74
(dp3373
g82
I3
ssg83
g3367
sg76
(lp3374
S''
asbasbasbag69
(g85
g71
NtRp3375
(dp3376
g74
(dp3377
sg83
g3331
sg76
(lp3378
g69
(g90
g71
NtRp3379
(dp3380
g74
(dp3381
g94
g95
ssg83
g3375
sg76
(lp3382
g349
asbag69
(g90
g71
NtRp3383
(dp3384
g74
(dp3385
g101
g102
ssg83
g3375
sg76
(lp3386
S':'
asbag69
(g90
g71
NtRp3387
(dp3388
g74
(dp3389
sg83
g3375
sg76
(lp3390
g69
(g70
g71
NtRp3391
(dp3392
g74
(dp3393
g82
I3
ssg83
g3387
sg76
(lp3394
S''
asbasbasbag69
(g85
g71
NtRp3395
(dp3396
g74
(dp3397
sg83
g3331
sg76
(lp3398
g69
(g90
g71
NtRp3399
(dp3400
g74
(dp3401
g94
g95
ssg83
g3395
sg76
(lp3402
g370
asbag69
(g90
g71
NtRp3403
(dp3404
g74
(dp3405
g101
g102
ssg83
g3395
sg76
(lp3406
S':'
asbag69
(g90
g71
NtRp3407
(dp3408
g74
(dp3409
sg83
g3395
sg76
(lp3410
g69
(g70
g71
NtRp3411
(dp3412
g74
(dp3413
g82
I3
ssg83
g3407
sg76
(lp3414
S''
asbasbasbag69
(g85
g71
NtRp3415
(dp3416
g74
(dp3417
sg83
g3331
sg76
(lp3418
g69
(g90
g71
NtRp3419
(dp3420
g74
(dp3421
g94
g95
ssg83
g3415
sg76
(lp3422
g391
asbag69
(g90
g71
NtRp3423
(dp3424
g74
(dp3425
g101
g102
ssg83
g3415
sg76
(lp3426
S':'
asbag69
(g90
g71
NtRp3427
(dp3428
g74
(dp3429
sg83
g3415
sg76
(lp3430
g69
(g70
g71
NtRp3431
(dp3432
g74
(dp3433
g82
I3
ssg83
g3427
sg76
(lp3434
S''
asbasbasbag69
(g85
g71
NtRp3435
(dp3436
g74
(dp3437
sg83
g3331
sg76
(lp3438
g69
(g90
g71
NtRp3439
(dp3440
g74
(dp3441
g94
g95
ssg83
g3435
sg76
(lp3442
g412
asbag69
(g90
g71
NtRp3443
(dp3444
g74
(dp3445
g101
g102
ssg83
g3435
sg76
(lp3446
S':'
asbag69
(g90
g71
NtRp3447
(dp3448
g74
(dp3449
sg83
g3435
sg76
(lp3450
g69
(g70
g71
NtRp3451
(dp3452
g74
(dp3453
g82
I3
ssg83
g3447
sg76
(lp3454
S'/'
asbasbasbag69
(g85
g71
NtRp3455
(dp3456
g74
(dp3457
sg83
g3331
sg76
(lp3458
g69
(g90
g71
NtRp3459
(dp3460
g74
(dp3461
g94
g95
ssg83
g3455
sg76
(lp3462
g433
asbag69
(g90
g71
NtRp3463
(dp3464
g74
(dp3465
g101
g102
ssg83
g3455
sg76
(lp3466
S':'
asbag69
(g90
g71
NtRp3467
(dp3468
g74
(dp3469
sg83
g3455
sg76
(lp3470
g69
(g70
g71
NtRp3471
(dp3472
g74
(dp3473
g82
I3
ssg83
g3467
sg76
(lp3474
S''
asbasbasbag69
(g85
g71
NtRp3475
(dp3476
g74
(dp3477
sg83
g3331
sg76
(lp3478
g69
(g90
g71
NtRp3479
(dp3480
g74
(dp3481
g94
g95
ssg83
g3475
sg76
(lp3482
g454
asbag69
(g90
g71
NtRp3483
(dp3484
g74
(dp3485
g101
g102
ssg83
g3475
sg76
(lp3486
S':'
asbag69
(g90
g71
NtRp3487
(dp3488
g74
(dp3489
sg83
g3475
sg76
(lp3490
g69
(g70
g71
NtRp3491
(dp3492
g74
(dp3493
g82
I3
ssg83
g3487
sg76
(lp3494
S''
asbasbasbasbasbasbasbasbasbasbasbag69
(g85
g71
NtRp3495
(dp3496
g74
(dp3497
sg83
g3261
sg76
(lp3498
g69
(g90
g71
NtRp3499
(dp3500
g74
(dp3501
g94
g95
ssg83
g3495
sg76
(lp3502
S'delimiters'
p3503
asbag69
(g90
g71
NtRp3504
(dp3505
g74
(dp3506
g101
g102
ssg83
g3495
sg76
(lp3507
S':'
asbag69
(g90
g71
NtRp3508
(dp3509
g74
(dp3510
sg83
g3495
sg76
(lp3511
g69
(g70
g71
NtRp3512
(dp3513
g74
(dp3514
g82
I5
ssg83
g3508
sg76
(lp3515
g69
(g78
g71
NtRp3516
(dp3517
g74
(dp3518
g82
I4
ssg83
Nsg76
(lp3519
g69
(g85
g71
NtRp3520
(dp3521
g74
(dp3522
sg83
g3516
sg76
(lp3523
g69
(g90
g71
NtRp3524
(dp3525
g74
(dp3526
sg83
g3520
sg76
(lp3527
g69
(g70
g71
NtRp3528
(dp3529
g74
(dp3530
g82
I4
ssg83
g3524
sg76
(lp3531
S'{{'
p3532
asbasbasbag69
(g85
g71
NtRp3533
(dp3534
g74
(dp3535
sg83
g3516
sg76
(lp3536
g69
(g90
g71
NtRp3537
(dp3538
g74
(dp3539
sg83
g3533
sg76
(lp3540
g69
(g70
g71
NtRp3541
(dp3542
g74
(dp3543
g82
I4
ssg83
g3537
sg76
(lp3544
S'}}'
p3545
asbasbasbasbasbasbasbag69
(g85
g71
NtRp3546
(dp3547
g74
(dp3548
sg83
g3261
sg76
(lp3549
g69
(g90
g71
NtRp3550
(dp3551
g74
(dp3552
g94
g95
ssg83
g3546
sg76
(lp3553
S'files'
p3554
asbag69
(g90
g71
NtRp3555
(dp3556
g74
(dp3557
g101
g102
ssg83
g3546
sg76
(lp3558
S':'
asbag69
(g90
g71
NtRp3559
(dp3560
g74
(dp3561
sg83
g3546
sg76
(lp3562
g69
(g70
g71
NtRp3563
(dp3564
g74
(dp3565
g82
I5
ssg83
g3559
sg76
(lp3566
g69
(g78
g71
NtRp3567
(dp3568
g74
(dp3569
g82
I4
ssg83
Nsg76
(lp3570
sbasbasbasbag69
(g85
g71
NtRp3571
(dp3572
g74
(dp3573
sg83
g3261
sg76
(lp3574
g69
(g90
g71
NtRp3575
(dp3576
g74
(dp3577
g94
g95
ssg83
g3571
sg76
(lp3578
S'flash'
p3579
asbag69
(g90
g71
NtRp3580
(dp3581
g74
(dp3582
g101
g102
ssg83
g3571
sg76
(lp3583
S':'
asbag69
(g90
g71
NtRp3584
(dp3585
g74
(dp3586
sg83
g3571
sg76
(lp3587
g69
(g70
g71
NtRp3588
(dp3589
g74
(dp3590
g82
I5
ssg83
g3584
sg76
(lp3591
S''
asbasbasbag69
(g85
g71
NtRp3592
(dp3593
g74
(dp3594
sg83
g3261
sg76
(lp3595
g69
(g90
g71
NtRp3596
(dp3597
g74
(dp3598
g94
g95
ssg83
g3592
sg76
(lp3599
S'generic_patterns'
p3600
asbag69
(g90
g71
NtRp3601
(dp3602
g74
(dp3603
g101
g102
ssg83
g3592
sg76
(lp3604
S':'
asbag69
(g90
g71
NtRp3605
(dp3606
g74
(dp3607
sg83
g3592
sg76
(lp3608
g69
(g70
g71
NtRp3609
(dp3610
g74
(dp3611
g82
I5
ssg83
g3605
sg76
(lp3612
g69
(g78
g71
NtRp3613
(dp3614
g74
(dp3615
g82
I4
ssg83
Nsg76
(lp3616
g69
(g85
g71
NtRp3617
(dp3618
g74
(dp3619
sg83
g3613
sg76
(lp3620
g69
(g90
g71
NtRp3621
(dp3622
g74
(dp3623
sg83
g3617
sg76
(lp3624
g69
(g70
g71
NtRp3625
(dp3626
g74
(dp3627
g82
I4
ssg83
g3621
sg76
(lp3628
S'*'
asbasbasbasbasbasbasbag69
(g85
g71
NtRp3629
(dp3630
g74
(dp3631
sg83
g3261
sg76
(lp3632
g69
(g90
g71
NtRp3633
(dp3634
g74
(dp3635
g94
g95
ssg83
g3629
sg76
(lp3636
S'headers'
p3637
asbag69
(g90
g71
NtRp3638
(dp3639
g74
(dp3640
g101
g102
ssg83
g3629
sg76
(lp3641
S':'
asbag69
(g90
g71
NtRp3642
(dp3643
g74
(dp3644
sg83
g3629
sg76
(lp3645
g69
(g70
g71
NtRp3646
(dp3647
g74
(dp3648
g82
I5
ssg83
g3642
sg76
(lp3649
g69
(g78
g71
NtRp3650
(dp3651
g74
(dp3652
g82
I4
ssg83
Nsg76
(lp3653
g69
(g85
g71
NtRp3654
(dp3655
g74
(dp3656
sg83
g3650
sg76
(lp3657
g69
(g90
g71
NtRp3658
(dp3659
g74
(dp3660
g94
g95
ssg83
g3654
sg76
(lp3661
S'Cache-Control'
p3662
asbag69
(g90
g71
NtRp3663
(dp3664
g74
(dp3665
g101
g102
ssg83
g3654
sg76
(lp3666
S':'
asbag69
(g90
g71
NtRp3667
(dp3668
g74
(dp3669
sg83
g3654
sg76
(lp3670
g69
(g70
g71
NtRp3671
(dp3672
g74
(dp3673
g82
I4
ssg83
g3667
sg76
(lp3674
S'no-store, no-cache, must-revalidate, post-check=0, pre-check=0'
p3675
asbasbasbag69
(g85
g71
NtRp3676
(dp3677
g74
(dp3678
sg83
g3650
sg76
(lp3679
g69
(g90
g71
NtRp3680
(dp3681
g74
(dp3682
g94
g95
ssg83
g3676
sg76
(lp3683
S'Content-Type'
p3684
asbag69
(g90
g71
NtRp3685
(dp3686
g74
(dp3687
g101
g102
ssg83
g3676
sg76
(lp3688
S':'
asbag69
(g90
g71
NtRp3689
(dp3690
g74
(dp3691
sg83
g3676
sg76
(lp3692
g69
(g70
g71
NtRp3693
(dp3694
g74
(dp3695
g82
I4
ssg83
g3689
sg76
(lp3696
S'text/html; charset=utf-8'
p3697
asbasbasbag69
(g85
g71
NtRp3698
(dp3699
g74
(dp3700
sg83
g3650
sg76
(lp3701
g69
(g90
g71
NtRp3702
(dp3703
g74
(dp3704
g94
g95
ssg83
g3698
sg76
(lp3705
S'Expires'
p3706
asbag69
(g90
g71
NtRp3707
(dp3708
g74
(dp3709
g101
g102
ssg83
g3698
sg76
(lp3710
S':'
asbag69
(g90
g71
NtRp3711
(dp3712
g74
(dp3713
sg83
g3698
sg76
(lp3714
g69
(g70
g71
NtRp3715
(dp3716
g74
(dp3717
g82
I4
ssg83
g3711
sg76
(lp3718
S'Tue, 22 May 2012 02:38:12 GMT'
p3719
asbasbasbag69
(g85
g71
NtRp3720
(dp3721
g74
(dp3722
sg83
g3650
sg76
(lp3723
g69
(g90
g71
NtRp3724
(dp3725
g74
(dp3726
g94
g95
ssg83
g3720
sg76
(lp3727
S'Pragma'
p3728
asbag69
(g90
g71
NtRp3729
(dp3730
g74
(dp3731
g101
g102
ssg83
g3720
sg76
(lp3732
S':'
asbag69
(g90
g71
NtRp3733
(dp3734
g74
(dp3735
sg83
g3720
sg76
(lp3736
g69
(g70
g71
NtRp3737
(dp3738
g74
(dp3739
g82
I4
ssg83
g3733
sg76
(lp3740
S'no-cache'
p3741
asbasbasbag69
(g85
g71
NtRp3742
(dp3743
g74
(dp3744
sg83
g3650
sg76
(lp3745
g69
(g90
g71
NtRp3746
(dp3747
g74
(dp3748
g94
g95
ssg83
g3742
sg76
(lp3749
S'X-Powered-By'
p3750
asbag69
(g90
g71
NtRp3751
(dp3752
g74
(dp3753
g101
g102
ssg83
g3742
sg76
(lp3754
S':'
asbag69
(g90
g71
NtRp3755
(dp3756
g74
(dp3757
sg83
g3742
sg76
(lp3758
g69
(g70
g71
NtRp3759
(dp3760
g74
(dp3761
g82
I4
ssg83
g3755
sg76
(lp3762
S'web2py'
p3763
asbasbasbasbasbasbasbag69
(g85
g71
NtRp3764
(dp3765
g74
(dp3766
sg83
g3261
sg76
(lp3767
g69
(g90
g71
NtRp3768
(dp3769
g74
(dp3770
g94
g95
ssg83
g3764
sg76
(lp3771
S'menu'
p3772
asbag69
(g90
g71
NtRp3773
(dp3774
g74
(dp3775
g101
g102
ssg83
g3764
sg76
(lp3776
S':'
asbag69
(g90
g71
NtRp3777
(dp3778
g74
(dp3779
sg83
g3764
sg76
(lp3780
g69
(g70
g71
NtRp3781
(dp3782
g74
(dp3783
g82
I5
ssg83
g3777
sg76
(lp3784
g69
(g78
g71
NtRp3785
(dp3786
g74
(dp3787
g82
I4
ssg83
Nsg76
(lp3788
g69
(g85
g71
NtRp3789
(dp3790
g74
(dp3791
sg83
g3785
sg76
(lp3792
g69
(g90
g71
NtRp3793
(dp3794
g74
(dp3795
sg83
g3789
sg76
(lp3796
g69
(g70
g71
NtRp3797
(dp3798
g74
(dp3799
g82
I4
ssg83
g3793
sg76
(lp3800
g69
(g78
g71
NtRp3801
(dp3802
g74
(dp3803
g82
I3
ssg83
Nsg76
(lp3804
g69
(g85
g71
NtRp3805
(dp3806
g74
(dp3807
sg83
g3801
sg76
(lp3808
g69
(g90
g71
NtRp3809
(dp3810
g74
(dp3811
sg83
g3805
sg76
(lp3812
g69
(g70
g71
NtRp3813
(dp3814
g74
(dp3815
g82
I3
ssg83
g3809
sg76
(lp3816
cgluon.languages
lazyT_unpickle
p3817
(S't\x05\x00\x00\x00Votes'
tRp3818
asbasbasbag69
(g85
g71
NtRp3819
(dp3820
g74
(dp3821
sg83
g3801
sg76
(lp3822
g69
(g90
g71
NtRp3823
(dp3824
g74
(dp3825
sg83
g3819
sg76
(lp3826
g69
(g70
g71
NtRp3827
(dp3828
g74
(dp3829
g82
I3
ssg83
g3823
sg76
(lp3830
g112
asbasbasbag69
(g85
g71
NtRp3831
(dp3832
g74
(dp3833
sg83
g3801
sg76
(lp3834
g69
(g90
g71
NtRp3835
(dp3836
g74
(dp3837
sg83
g3831
sg76
(lp3838
g69
(g70
g71
NtRp3839
(dp3840
g74
(dp3841
g82
I3
ssg83
g3835
sg76
(lp3842
S'/bigvotes/default/index'
p3843
asbasbasbag69
(g85
g71
NtRp3844
(dp3845
g74
(dp3846
sg83
g3801
sg76
(lp3847
g69
(g90
g71
NtRp3848
(dp3849
g74
(dp3850
sg83
g3844
sg76
(lp3851
g69
(g70
g71
NtRp3852
(dp3853
g74
(dp3854
g82
I3
ssg83
g3848
sg76
(lp3855
g69
(g78
g71
NtRp3856
(dp3857
g74
(dp3858
g82
I2
ssg83
Nsg76
(lp3859
sbasbasbasbasbasbasbasbag69
(g85
g71
NtRp3860
(dp3861
g74
(dp3862
sg83
g3785
sg76
(lp3863
g69
(g90
g71
NtRp3864
(dp3865
g74
(dp3866
sg83
g3860
sg76
(lp3867
g69
(g70
g71
NtRp3868
(dp3869
g74
(dp3870
g82
I4
ssg83
g3864
sg76
(lp3871
g69
(g78
g71
NtRp3872
(dp3873
g74
(dp3874
g82
I3
ssg83
Nsg76
(lp3875
g69
(g85
g71
NtRp3876
(dp3877
g74
(dp3878
sg83
g3872
sg76
(lp3879
g69
(g90
g71
NtRp3880
(dp3881
g74
(dp3882
sg83
g3876
sg76
(lp3883
g69
(g70
g71
NtRp3884
(dp3885
g74
(dp3886
g82
I3
ssg83
g3880
sg76
(lp3887
g3817
(S't\x07\x00\x00\x00Members'
tRp3888
asbasbasbag69
(g85
g71
NtRp3889
(dp3890
g74
(dp3891
sg83
g3872
sg76
(lp3892
g69
(g90
g71
NtRp3893
(dp3894
g74
(dp3895
sg83
g3889
sg76
(lp3896
g69
(g70
g71
NtRp3897
(dp3898
g74
(dp3899
g82
I3
ssg83
g3893
sg76
(lp3900
g112
asbasbasbag69
(g85
g71
NtRp3901
(dp3902
g74
(dp3903
sg83
g3872
sg76
(lp3904
g69
(g90
g71
NtRp3905
(dp3906
g74
(dp3907
sg83
g3901
sg76
(lp3908
g69
(g70
g71
NtRp3909
(dp3910
g74
(dp3911
g82
I3
ssg83
g3905
sg76
(lp3912
S'/bigvotes/member/index'
p3913
asbasbasbag69
(g85
g71
NtRp3914
(dp3915
g74
(dp3916
sg83
g3872
sg76
(lp3917
g69
(g90
g71
NtRp3918
(dp3919
g74
(dp3920
sg83
g3914
sg76
(lp3921
g69
(g70
g71
NtRp3922
(dp3923
g74
(dp3924
g82
I3
ssg83
g3918
sg76
(lp3925
g69
(g78
g71
NtRp3926
(dp3927
g74
(dp3928
g82
I2
ssg83
Nsg76
(lp3929
sbasbasbasbasbasbasbasbag69
(g85
g71
NtRp3930
(dp3931
g74
(dp3932
sg83
g3785
sg76
(lp3933
g69
(g90
g71
NtRp3934
(dp3935
g74
(dp3936
sg83
g3930
sg76
(lp3937
g69
(g70
g71
NtRp3938
(dp3939
g74
(dp3940
g82
I4
ssg83
g3934
sg76
(lp3941
g69
(g78
g71
NtRp3942
(dp3943
g74
(dp3944
g82
I3
ssg83
Nsg76
(lp3945
g69
(g85
g71
NtRp3946
(dp3947
g74
(dp3948
sg83
g3942
sg76
(lp3949
g69
(g90
g71
NtRp3950
(dp3951
g74
(dp3952
sg83
g3946
sg76
(lp3953
g69
(g70
g71
NtRp3954
(dp3955
g74
(dp3956
g82
I3
ssg83
g3950
sg76
(lp3957
g3817
(S's\x12\x00\x00\x00Members Eliminated'
tRp3958
asbasbasbag69
(g85
g71
NtRp3959
(dp3960
g74
(dp3961
sg83
g3942
sg76
(lp3962
g69
(g90
g71
NtRp3963
(dp3964
g74
(dp3965
sg83
g3959
sg76
(lp3966
g69
(g70
g71
NtRp3967
(dp3968
g74
(dp3969
g82
I3
ssg83
g3963
sg76
(lp3970
g112
asbasbasbag69
(g85
g71
NtRp3971
(dp3972
g74
(dp3973
sg83
g3942
sg76
(lp3974
g69
(g90
g71
NtRp3975
(dp3976
g74
(dp3977
sg83
g3971
sg76
(lp3978
g69
(g70
g71
NtRp3979
(dp3980
g74
(dp3981
g82
I3
ssg83
g3975
sg76
(lp3982
S'/bigvotes/member/eliminated'
p3983
asbasbasbag69
(g85
g71
NtRp3984
(dp3985
g74
(dp3986
sg83
g3942
sg76
(lp3987
g69
(g90
g71
NtRp3988
(dp3989
g74
(dp3990
sg83
g3984
sg76
(lp3991
g69
(g70
g71
NtRp3992
(dp3993
g74
(dp3994
g82
I3
ssg83
g3988
sg76
(lp3995
g69
(g78
g71
NtRp3996
(dp3997
g74
(dp3998
g82
I2
ssg83
Nsg76
(lp3999
sbasbasbasbasbasbasbasbasbasbasbasbag69
(g85
g71
NtRp4000
(dp4001
g74
(dp4002
sg83
g3261
sg76
(lp4003
g69
(g90
g71
NtRp4004
(dp4005
g74
(dp4006
g94
g95
ssg83
g4000
sg76
(lp4007
S'meta'
p4008
asbag69
(g90
g71
NtRp4009
(dp4010
g74
(dp4011
g101
g102
ssg83
g4000
sg76
(lp4012
S':'
asbag69
(g90
g71
NtRp4013
(dp4014
g74
(dp4015
sg83
g4000
sg76
(lp4016
g69
(g70
g71
NtRp4017
(dp4018
g74
(dp4019
g82
I5
ssg83
g4013
sg76
(lp4020
g69
(g78
g71
NtRp4021
(dp4022
g74
(dp4023
g82
I4
ssg83
Nsg76
(lp4024
g69
(g85
g71
NtRp4025
(dp4026
g74
(dp4027
sg83
g4021
sg76
(lp4028
g69
(g90
g71
NtRp4029
(dp4030
g74
(dp4031
g94
g95
ssg83
g4025
sg76
(lp4032
S'author'
p4033
asbag69
(g90
g71
NtRp4034
(dp4035
g74
(dp4036
g101
g102
ssg83
g4025
sg76
(lp4037
S':'
asbag69
(g90
g71
NtRp4038
(dp4039
g74
(dp4040
sg83
g4025
sg76
(lp4041
g69
(g70
g71
NtRp4042
(dp4043
g74
(dp4044
g82
I4
ssg83
g4038
sg76
(lp4045
S'Kaique da Silva <kaique.developer@gmail.com>'
p4046
asbasbasbag69
(g85
g71
NtRp4047
(dp4048
g74
(dp4049
sg83
g4021
sg76
(lp4050
g69
(g90
g71
NtRp4051
(dp4052
g74
(dp4053
g94
g95
ssg83
g4047
sg76
(lp4054
S'copyright'
p4055
asbag69
(g90
g71
NtRp4056
(dp4057
g74
(dp4058
g101
g102
ssg83
g4047
sg76
(lp4059
S':'
asbag69
(g90
g71
NtRp4060
(dp4061
g74
(dp4062
sg83
g4047
sg76
(lp4063
g69
(g70
g71
NtRp4064
(dp4065
g74
(dp4066
g82
I4
ssg83
g4060
sg76
(lp4067
S'Copyright 2012'
p4068
asbasbasbag69
(g85
g71
NtRp4069
(dp4070
g74
(dp4071
sg83
g4021
sg76
(lp4072
g69
(g90
g71
NtRp4073
(dp4074
g74
(dp4075
g94
g95
ssg83
g4069
sg76
(lp4076
S'description'
p4077
asbag69
(g90
g71
NtRp4078
(dp4079
g74
(dp4080
g101
g102
ssg83
g4069
sg76
(lp4081
S':'
asbag69
(g90
g71
NtRp4082
(dp4083
g74
(dp4084
sg83
g4069
sg76
(lp4085
g69
(g70
g71
NtRp4086
(dp4087
g74
(dp4088
g82
I4
ssg83
g4082
sg76
(lp4089
S'Challenge app'
p4090
asbasbasbag69
(g85
g71
NtRp4091
(dp4092
g74
(dp4093
sg83
g4021
sg76
(lp4094
g69
(g90
g71
NtRp4095
(dp4096
g74
(dp4097
g94
g95
ssg83
g4091
sg76
(lp4098
S'generator'
p4099
asbag69
(g90
g71
NtRp4100
(dp4101
g74
(dp4102
g101
g102
ssg83
g4091
sg76
(lp4103
S':'
asbag69
(g90
g71
NtRp4104
(dp4105
g74
(dp4106
sg83
g4091
sg76
(lp4107
g69
(g70
g71
NtRp4108
(dp4109
g74
(dp4110
g82
I4
ssg83
g4104
sg76
(lp4111
S'Web2py Web Framework'
p4112
asbasbasbag69
(g85
g71
NtRp4113
(dp4114
g74
(dp4115
sg83
g4021
sg76
(lp4116
g69
(g90
g71
NtRp4117
(dp4118
g74
(dp4119
g94
g95
ssg83
g4113
sg76
(lp4120
S'keywords'
p4121
asbag69
(g90
g71
NtRp4122
(dp4123
g74
(dp4124
g101
g102
ssg83
g4113
sg76
(lp4125
S':'
asbag69
(g90
g71
NtRp4126
(dp4127
g74
(dp4128
sg83
g4113
sg76
(lp4129
g69
(g70
g71
NtRp4130
(dp4131
g74
(dp4132
g82
I4
ssg83
g4126
sg76
(lp4133
S'BBB, votes, challenge'
p4134
asbasbasbasbasbasbasbag69
(g85
g71
NtRp4135
(dp4136
g74
(dp4137
sg83
g3261
sg76
(lp4138
g69
(g90
g71
NtRp4139
(dp4140
g74
(dp4141
g94
g95
ssg83
g4135
sg76
(lp4142
S'postprocessing'
p4143
asbag69
(g90
g71
NtRp4144
(dp4145
g74
(dp4146
g101
g102
ssg83
g4135
sg76
(lp4147
S':'
asbag69
(g90
g71
NtRp4148
(dp4149
g74
(dp4150
sg83
g4135
sg76
(lp4151
g69
(g70
g71
NtRp4152
(dp4153
g74
(dp4154
g82
I5
ssg83
g4148
sg76
(lp4155
g69
(g78
g71
NtRp4156
(dp4157
g74
(dp4158
g82
I4
ssg83
Nsg76
(lp4159
sbasbasbasbag69
(g85
g71
NtRp4160
(dp4161
g74
(dp4162
sg83
g3261
sg76
(lp4163
g69
(g90
g71
NtRp4164
(dp4165
g74
(dp4166
g94
g95
ssg83
g4160
sg76
(lp4167
S'session_file'
p4168
asbag69
(g90
g71
NtRp4169
(dp4170
g74
(dp4171
g101
g102
ssg83
g4160
sg76
(lp4172
S':'
asbag69
(g90
g71
NtRp4173
(dp4174
g74
(dp4175
sg83
g4160
sg76
(lp4176
g69
(g70
g71
NtRp4177
(dp4178
g74
(dp4179
g82
I5
ssg83
g4173
sg76
(lp4180
S"<open file '/home/kaique/Projects/web/big-votes/web2py/applications/bigvotes/sessions/127.0.0.1-72286364-99c3-4aae-95dc-f33a83b4d6f1', mode 'rb+' at 0xb0024650>"
p4181
asbasbasbag69
(g85
g71
NtRp4182
(dp4183
g74
(dp4184
sg83
g3261
sg76
(lp4185
g69
(g90
g71
NtRp4186
(dp4187
g74
(dp4188
g94
g95
ssg83
g4182
sg76
(lp4189
S'session_filename'
p4190
asbag69
(g90
g71
NtRp4191
(dp4192
g74
(dp4193
g101
g102
ssg83
g4182
sg76
(lp4194
S':'
asbag69
(g90
g71
NtRp4195
(dp4196
g74
(dp4197
sg83
g4182
sg76
(lp4198
g69
(g70
g71
NtRp4199
(dp4200
g74
(dp4201
g82
I5
ssg83
g4195
sg76
(lp4202
S'/home/kaique/Projects/web/big-votes/web2py/applications/bigvotes/sessions/127.0.0.1-72286364-99c3-4aae-95dc-f33a83b4d6f1'
p4203
asbasbasbag69
(g85
g71
NtRp4204
(dp4205
g74
(dp4206
sg83
g3261
sg76
(lp4207
g69
(g90
g71
NtRp4208
(dp4209
g74
(dp4210
g94
g95
ssg83
g4204
sg76
(lp4211
S'session_id'
p4212
asbag69
(g90
g71
NtRp4213
(dp4214
g74
(dp4215
g101
g102
ssg83
g4204
sg76
(lp4216
S':'
asbag69
(g90
g71
NtRp4217
(dp4218
g74
(dp4219
sg83
g4204
sg76
(lp4220
g69
(g70
g71
NtRp4221
(dp4222
g74
(dp4223
g82
I5
ssg83
g4217
sg76
(lp4224
S'127.0.0.1-72286364-99c3-4aae-95dc-f33a83b4d6f1'
p4225
asbasbasbag69
(g85
g71
NtRp4226
(dp4227
g74
(dp4228
sg83
g3261
sg76
(lp4229
g69
(g90
g71
NtRp4230
(dp4231
g74
(dp4232
g94
g95
ssg83
g4226
sg76
(lp4233
S'session_id_name'
p4234
asbag69
(g90
g71
NtRp4235
(dp4236
g74
(dp4237
g101
g102
ssg83
g4226
sg76
(lp4238
S':'
asbag69
(g90
g71
NtRp4239
(dp4240
g74
(dp4241
sg83
g4226
sg76
(lp4242
g69
(g70
g71
NtRp4243
(dp4244
g74
(dp4245
g82
I5
ssg83
g4239
sg76
(lp4246
g3318
asbasbasbag69
(g85
g71
NtRp4247
(dp4248
g74
(dp4249
sg83
g3261
sg76
(lp4250
g69
(g90
g71
NtRp4251
(dp4252
g74
(dp4253
g94
g95
ssg83
g4247
sg76
(lp4254
S'session_locked'
p4255
asbag69
(g90
g71
NtRp4256
(dp4257
g74
(dp4258
g101
g102
ssg83
g4247
sg76
(lp4259
S':'
asbag69
(g90
g71
NtRp4260
(dp4261
g74
(dp4262
sg83
g4247
sg76
(lp4263
g69
(g70
g71
NtRp4264
(dp4265
g74
(dp4266
g82
I5
ssg83
g4260
sg76
(lp4267
g1756
asbasbasbag69
(g85
g71
NtRp4268
(dp4269
g74
(dp4270
sg83
g3261
sg76
(lp4271
g69
(g90
g71
NtRp4272
(dp4273
g74
(dp4274
g94
g95
ssg83
g4268
sg76
(lp4275
S'session_new'
p4276
asbag69
(g90
g71
NtRp4277
(dp4278
g74
(dp4279
g101
g102
ssg83
g4268
sg76
(lp4280
S':'
asbag69
(g90
g71
NtRp4281
(dp4282
g74
(dp4283
sg83
g4268
sg76
(lp4284
g69
(g70
g71
NtRp4285
(dp4286
g74
(dp4287
g82
I5
ssg83
g4281
sg76
(lp4288
g112
asbasbasbag69
(g85
g71
NtRp4289
(dp4290
g74
(dp4291
sg83
g3261
sg76
(lp4292
g69
(g90
g71
NtRp4293
(dp4294
g74
(dp4295
g94
g95
ssg83
g4289
sg76
(lp4296
S'status'
p4297
asbag69
(g90
g71
NtRp4298
(dp4299
g74
(dp4300
g101
g102
ssg83
g4289
sg76
(lp4301
S':'
asbag69
(g90
g71
NtRp4302
(dp4303
g74
(dp4304
sg83
g4289
sg76
(lp4305
g69
(g70
g71
NtRp4306
(dp4307
g74
(dp4308
g82
I5
ssg83
g4302
sg76
(lp4309
S'200'
p4310
asbasbasbag69
(g85
g71
NtRp4311
(dp4312
g74
(dp4313
sg83
g3261
sg76
(lp4314
g69
(g90
g71
NtRp4315
(dp4316
g74
(dp4317
g94
g95
ssg83
g4311
sg76
(lp4318
S'subtitle'
p4319
asbag69
(g90
g71
NtRp4320
(dp4321
g74
(dp4322
g101
g102
ssg83
g4311
sg76
(lp4323
S':'
asbag69
(g90
g71
NtRp4324
(dp4325
g74
(dp4326
sg83
g4311
sg76
(lp4327
g69
(g70
g71
NtRp4328
(dp4329
g74
(dp4330
g82
I5
ssg83
g4324
sg76
(lp4331
S'A simple chanllenge'
p4332
asbasbasbag69
(g85
g71
NtRp4333
(dp4334
g74
(dp4335
sg83
g3261
sg76
(lp4336
g69
(g90
g71
NtRp4337
(dp4338
g74
(dp4339
g94
g95
ssg83
g4333
sg76
(lp4340
S'title'
p4341
asbag69
(g90
g71
NtRp4342
(dp4343
g74
(dp4344
g101
g102
ssg83
g4333
sg76
(lp4345
S':'
asbag69
(g90
g71
NtRp4346
(dp4347
g74
(dp4348
sg83
g4333
sg76
(lp4349
g69
(g70
g71
NtRp4350
(dp4351
g74
(dp4352
g82
I5
ssg83
g4346
sg76
(lp4353
S'Big Votes'
p4354
asbasbasbag69
(g85
g71
NtRp4355
(dp4356
g74
(dp4357
sg83
g3261
sg76
(lp4358
g69
(g90
g71
NtRp4359
(dp4360
g74
(dp4361
g94
g95
ssg83
g4355
sg76
(lp4362
g2442
asbag69
(g90
g71
NtRp4363
(dp4364
g74
(dp4365
g101
g102
ssg83
g4355
sg76
(lp4366
S':'
asbag69
(g90
g71
NtRp4367
(dp4368
g74
(dp4369
sg83
g4355
sg76
(lp4370
g69
(g70
g71
NtRp4371
(dp4372
g74
(dp4373
g82
I5
ssg83
g4367
sg76
(lp4374
g2455
asbasbasbag69
(g85
g71
NtRp4375
(dp4376
g74
(dp4377
sg83
g3261
sg76
(lp4378
g69
(g90
g71
NtRp4379
(dp4380
g74
(dp4381
g94
g95
ssg83
g4375
sg76
(lp4382
S'view'
p4383
asbag69
(g90
g71
NtRp4384
(dp4385
g74
(dp4386
g101
g102
ssg83
g4375
sg76
(lp4387
S':'
asbag69
(g90
g71
NtRp4388
(dp4389
g74
(dp4390
sg83
g4375
sg76
(lp4391
g69
(g70
g71
NtRp4392
(dp4393
g74
(dp4394
g82
I5
ssg83
g4388
sg76
(lp4395
S'vote/index.html'
p4396
asbasbasbasbasbsS'locals'
p4397
(dp4398
g4
S"'/home/kaique/Projects/web/big-votes/web2py/applications/bigvotes/controllers/vote.py'"
p4399
sg6
S"'# -*- coding: utf-8 -*-\\nfrom bigvotes import Vot...():\\n\\tpass\\nresponse._vars=response._caller(index)\\n'"
p4400
sssS'traceback'
p4401
S'Traceback (most recent call last):\n  File "/home/kaique/Projects/web/big-votes/web2py/gluon/restricted.py", line 204, in restricted\n    ccode = compile2(code,layer)\n  File "/home/kaique/Projects/web/big-votes/web2py/gluon/restricted.py", line 189, in compile2\n    return compile(code.rstrip().replace(\'\\r\\n\',\'\\n\')+\'\\n\', layer, \'exec\')\n  File "/home/kaique/Projects/web/big-votes/web2py/applications/bigvotes/controllers/vote.py", line 51\n    if session.vote_message:\n                           ^\nIndentationError: unindent does not match any outer indentation level\n'
p4402
s.