(dp1
S'output'
p2
S"<type 'exceptions.TypeError'> unsupported operand type(s) for &: 'int' and 'Field'"
p3
sS'layer'
p4
S'/home/kaique/Projects/web/big-votes/web2py/applications/bigvotes/controllers/member.py'
p5
sS'code'
p6
S"# -*- coding: utf-8 -*-\nfrom bigvotes import Members\n\ndef index():\n\tmembers = Members(db).getBy()\n\n\treturn {\n\t\t'members': members\n\t}\n\ndef profile():\n\targs = request.args\n\tmember = Members(db)\n\n\tif len( args ) > 0:\n\t\tmember = db(\n\t\t\tdb.member.id == int( args[0] ) &\n\t\t\tdb.member.status == 'active'\n\t\t).select().first()\n\n\treturn {\n\t\t'member': member\n\t}\n\ndef eliminated():\n\tmembers = Members(db).getBy(status = 'deactive')\n\n\treturn {\n\t\t'members': members\n\t}\nresponse._vars=response._caller(profile)\n"
p7
sS'snapshot'
p8
(dp9
S'exception'
p10
(dp11
S'__hash__'
p12
S"<method-wrapper '__hash__' of exceptions.TypeError object>"
p13
sS'__setattr__'
p14
S"<method-wrapper '__setattr__' of exceptions.TypeError object>"
p15
sS'__reduce_ex__'
p16
S'<built-in method __reduce_ex__ of exceptions.TypeError object>'
p17
sS'__getslice__'
p18
S"<method-wrapper '__getslice__' of exceptions.TypeError object>"
p19
sS'__getitem__'
p20
S"<method-wrapper '__getitem__' of exceptions.TypeError object>"
p21
sS'__setstate__'
p22
S'<built-in method __setstate__ of exceptions.TypeError object>'
p23
sS'__reduce__'
p24
S'<built-in method __reduce__ of exceptions.TypeError object>'
p25
sS'__str__'
p26
S"<method-wrapper '__str__' of exceptions.TypeError object>"
p27
sS'__format__'
p28
S'<built-in method __format__ of exceptions.TypeError object>'
p29
sS'__getattribute__'
p30
S"<method-wrapper '__getattribute__' of exceptions.TypeError object>"
p31
sS'__class__'
p32
S"<type 'exceptions.TypeError'>"
p33
sS'__unicode__'
p34
S'<built-in method __unicode__ of exceptions.TypeError object>'
p35
sS'__delattr__'
p36
S"<method-wrapper '__delattr__' of exceptions.TypeError object>"
p37
sS'__subclasshook__'
p38
S'<built-in method __subclasshook__ of type object>'
p39
sS'__repr__'
p40
S"<method-wrapper '__repr__' of exceptions.TypeError object>"
p41
sS'args'
p42
S'("unsupported operand type(s) for &: \'int\' and \'Field\'",)'
p43
sS'__dict__'
p44
S'{}'
p45
sS'__sizeof__'
p46
S'<built-in method __sizeof__ of exceptions.TypeError object>'
p47
sS'__doc__'
p48
S"'Inappropriate argument type.'"
p49
sS'__init__'
p50
S"<method-wrapper '__init__' of exceptions.TypeError object>"
p51
sS'__new__'
p52
S'<built-in method __new__ of type object>'
p53
ssS'evalue'
p54
S"unsupported operand type(s) for &: 'int' and 'Field'"
p55
sS'request'
p56
ccopy_reg
_reconstructor
p57
(cgluon.html
BEAUTIFY
p58
c__builtin__
object
p59
NtRp60
(dp61
S'attributes'
p62
(dp63
sS'components'
p64
(lp65
g57
(cgluon.html
TABLE
p66
g59
NtRp67
(dp68
g62
(dp69
S'level'
p70
I5
ssS'parent'
p71
Nsg64
(lp72
g57
(cgluon.html
TR
p73
g59
NtRp74
(dp75
g62
(dp76
sg71
g67
sg64
(lp77
g57
(cgluon.html
TD
p78
g59
NtRp79
(dp80
g62
(dp81
S'_style'
p82
S'font-weight:bold;vertical-align:top'
p83
ssg71
g74
sg64
(lp84
S'ajax'
p85
asbag57
(g78
g59
NtRp86
(dp87
g62
(dp88
S'_valign'
p89
S'top'
p90
ssg71
g74
sg64
(lp91
S':'
asbag57
(g78
g59
NtRp92
(dp93
g62
(dp94
sg71
g74
sg64
(lp95
g57
(g58
g59
NtRp96
(dp97
g62
(dp98
g70
I5
ssg71
g92
sg64
(lp99
S'False'
p100
asbasbasbag57
(g73
g59
NtRp101
(dp102
g62
(dp103
sg71
g67
sg64
(lp104
g57
(g78
g59
NtRp105
(dp106
g62
(dp107
g82
g83
ssg71
g101
sg64
(lp108
S'application'
p109
asbag57
(g78
g59
NtRp110
(dp111
g62
(dp112
g89
g90
ssg71
g101
sg64
(lp113
S':'
asbag57
(g78
g59
NtRp114
(dp115
g62
(dp116
sg71
g101
sg64
(lp117
g57
(g58
g59
NtRp118
(dp119
g62
(dp120
g70
I5
ssg71
g114
sg64
(lp121
S'bigvotes'
p122
asbasbasbag57
(g73
g59
NtRp123
(dp124
g62
(dp125
sg71
g67
sg64
(lp126
g57
(g78
g59
NtRp127
(dp128
g62
(dp129
g82
g83
ssg71
g123
sg64
(lp130
g42
asbag57
(g78
g59
NtRp131
(dp132
g62
(dp133
g89
g90
ssg71
g123
sg64
(lp134
S':'
asbag57
(g78
g59
NtRp135
(dp136
g62
(dp137
sg71
g123
sg64
(lp138
g57
(g58
g59
NtRp139
(dp140
g62
(dp141
g70
I5
ssg71
g135
sg64
(lp142
g57
(g66
g59
NtRp143
(dp144
g62
(dp145
g70
I4
ssg71
Nsg64
(lp146
g57
(g73
g59
NtRp147
(dp148
g62
(dp149
sg71
g143
sg64
(lp150
g57
(g78
g59
NtRp151
(dp152
g62
(dp153
sg71
g147
sg64
(lp154
g57
(g58
g59
NtRp155
(dp156
g62
(dp157
g70
I4
ssg71
g151
sg64
(lp158
S'2'
asbasbasbasbasbasbasbag57
(g73
g59
NtRp159
(dp160
g62
(dp161
sg71
g67
sg64
(lp162
g57
(g78
g59
NtRp163
(dp164
g62
(dp165
g82
g83
ssg71
g159
sg64
(lp166
S'body'
p167
asbag57
(g78
g59
NtRp168
(dp169
g62
(dp170
g89
g90
ssg71
g159
sg64
(lp171
S':'
asbag57
(g78
g59
NtRp172
(dp173
g62
(dp174
sg71
g159
sg64
(lp175
g57
(g58
g59
NtRp176
(dp177
g62
(dp178
g70
I5
ssg71
g172
sg64
(lp179
S'<cStringIO.StringO object at 0xb040fb20>'
p180
asbasbasbag57
(g73
g59
NtRp181
(dp182
g62
(dp183
sg71
g67
sg64
(lp184
g57
(g78
g59
NtRp185
(dp186
g62
(dp187
g82
g83
ssg71
g181
sg64
(lp188
S'client'
p189
asbag57
(g78
g59
NtRp190
(dp191
g62
(dp192
g89
g90
ssg71
g181
sg64
(lp193
S':'
asbag57
(g78
g59
NtRp194
(dp195
g62
(dp196
sg71
g181
sg64
(lp197
g57
(g58
g59
NtRp198
(dp199
g62
(dp200
g70
I5
ssg71
g194
sg64
(lp201
S'127.0.0.1'
p202
asbasbasbag57
(g73
g59
NtRp203
(dp204
g62
(dp205
sg71
g67
sg64
(lp206
g57
(g78
g59
NtRp207
(dp208
g62
(dp209
g82
g83
ssg71
g203
sg64
(lp210
S'controller'
p211
asbag57
(g78
g59
NtRp212
(dp213
g62
(dp214
g89
g90
ssg71
g203
sg64
(lp215
S':'
asbag57
(g78
g59
NtRp216
(dp217
g62
(dp218
sg71
g203
sg64
(lp219
g57
(g58
g59
NtRp220
(dp221
g62
(dp222
g70
I5
ssg71
g216
sg64
(lp223
S'member'
p224
asbasbasbag57
(g73
g59
NtRp225
(dp226
g62
(dp227
sg71
g67
sg64
(lp228
g57
(g78
g59
NtRp229
(dp230
g62
(dp231
g82
g83
ssg71
g225
sg64
(lp232
S'cookies'
p233
asbag57
(g78
g59
NtRp234
(dp235
g62
(dp236
g89
g90
ssg71
g225
sg64
(lp237
S':'
asbag57
(g78
g59
NtRp238
(dp239
g62
(dp240
sg71
g225
sg64
(lp241
g57
(g58
g59
NtRp242
(dp243
g62
(dp244
g70
I5
ssg71
g238
sg64
(lp245
g57
(g66
g59
NtRp246
(dp247
g62
(dp248
g70
I4
ssg71
Nsg64
(lp249
g57
(g73
g59
NtRp250
(dp251
g62
(dp252
sg71
g246
sg64
(lp253
g57
(g78
g59
NtRp254
(dp255
g62
(dp256
g82
g83
ssg71
g250
sg64
(lp257
S'session_id_admin'
p258
asbag57
(g78
g59
NtRp259
(dp260
g62
(dp261
g89
g90
ssg71
g250
sg64
(lp262
S':'
asbag57
(g78
g59
NtRp263
(dp264
g62
(dp265
sg71
g250
sg64
(lp266
g57
(g58
g59
NtRp267
(dp268
g62
(dp269
g70
I4
ssg71
g263
sg64
(lp270
g57
(g66
g59
NtRp271
(dp272
g62
(dp273
g70
I3
ssg71
Nsg64
(lp274
g57
(g73
g59
NtRp275
(dp276
g62
(dp277
sg71
g271
sg64
(lp278
g57
(g78
g59
NtRp279
(dp280
g62
(dp281
g82
g83
ssg71
g275
sg64
(lp282
S'comment'
p283
asbag57
(g78
g59
NtRp284
(dp285
g62
(dp286
g89
g90
ssg71
g275
sg64
(lp287
S':'
asbag57
(g78
g59
NtRp288
(dp289
g62
(dp290
sg71
g275
sg64
(lp291
g57
(g58
g59
NtRp292
(dp293
g62
(dp294
g70
I3
ssg71
g288
sg64
(lp295
S''
asbasbasbag57
(g73
g59
NtRp296
(dp297
g62
(dp298
sg71
g271
sg64
(lp299
g57
(g78
g59
NtRp300
(dp301
g62
(dp302
g82
g83
ssg71
g296
sg64
(lp303
S'domain'
p304
asbag57
(g78
g59
NtRp305
(dp306
g62
(dp307
g89
g90
ssg71
g296
sg64
(lp308
S':'
asbag57
(g78
g59
NtRp309
(dp310
g62
(dp311
sg71
g296
sg64
(lp312
g57
(g58
g59
NtRp313
(dp314
g62
(dp315
g70
I3
ssg71
g309
sg64
(lp316
S''
asbasbasbag57
(g73
g59
NtRp317
(dp318
g62
(dp319
sg71
g271
sg64
(lp320
g57
(g78
g59
NtRp321
(dp322
g62
(dp323
g82
g83
ssg71
g317
sg64
(lp324
S'expires'
p325
asbag57
(g78
g59
NtRp326
(dp327
g62
(dp328
g89
g90
ssg71
g317
sg64
(lp329
S':'
asbag57
(g78
g59
NtRp330
(dp331
g62
(dp332
sg71
g317
sg64
(lp333
g57
(g58
g59
NtRp334
(dp335
g62
(dp336
g70
I3
ssg71
g330
sg64
(lp337
S''
asbasbasbag57
(g73
g59
NtRp338
(dp339
g62
(dp340
sg71
g271
sg64
(lp341
g57
(g78
g59
NtRp342
(dp343
g62
(dp344
g82
g83
ssg71
g338
sg64
(lp345
S'httponly'
p346
asbag57
(g78
g59
NtRp347
(dp348
g62
(dp349
g89
g90
ssg71
g338
sg64
(lp350
S':'
asbag57
(g78
g59
NtRp351
(dp352
g62
(dp353
sg71
g338
sg64
(lp354
g57
(g58
g59
NtRp355
(dp356
g62
(dp357
g70
I3
ssg71
g351
sg64
(lp358
S''
asbasbasbag57
(g73
g59
NtRp359
(dp360
g62
(dp361
sg71
g271
sg64
(lp362
g57
(g78
g59
NtRp363
(dp364
g62
(dp365
g82
g83
ssg71
g359
sg64
(lp366
S'max-age'
p367
asbag57
(g78
g59
NtRp368
(dp369
g62
(dp370
g89
g90
ssg71
g359
sg64
(lp371
S':'
asbag57
(g78
g59
NtRp372
(dp373
g62
(dp374
sg71
g359
sg64
(lp375
g57
(g58
g59
NtRp376
(dp377
g62
(dp378
g70
I3
ssg71
g372
sg64
(lp379
S''
asbasbasbag57
(g73
g59
NtRp380
(dp381
g62
(dp382
sg71
g271
sg64
(lp383
g57
(g78
g59
NtRp384
(dp385
g62
(dp386
g82
g83
ssg71
g380
sg64
(lp387
S'path'
p388
asbag57
(g78
g59
NtRp389
(dp390
g62
(dp391
g89
g90
ssg71
g380
sg64
(lp392
S':'
asbag57
(g78
g59
NtRp393
(dp394
g62
(dp395
sg71
g380
sg64
(lp396
g57
(g58
g59
NtRp397
(dp398
g62
(dp399
g70
I3
ssg71
g393
sg64
(lp400
S''
asbasbasbag57
(g73
g59
NtRp401
(dp402
g62
(dp403
sg71
g271
sg64
(lp404
g57
(g78
g59
NtRp405
(dp406
g62
(dp407
g82
g83
ssg71
g401
sg64
(lp408
S'secure'
p409
asbag57
(g78
g59
NtRp410
(dp411
g62
(dp412
g89
g90
ssg71
g401
sg64
(lp413
S':'
asbag57
(g78
g59
NtRp414
(dp415
g62
(dp416
sg71
g401
sg64
(lp417
g57
(g58
g59
NtRp418
(dp419
g62
(dp420
g70
I3
ssg71
g414
sg64
(lp421
S''
asbasbasbag57
(g73
g59
NtRp422
(dp423
g62
(dp424
sg71
g271
sg64
(lp425
g57
(g78
g59
NtRp426
(dp427
g62
(dp428
g82
g83
ssg71
g422
sg64
(lp429
S'version'
p430
asbag57
(g78
g59
NtRp431
(dp432
g62
(dp433
g89
g90
ssg71
g422
sg64
(lp434
S':'
asbag57
(g78
g59
NtRp435
(dp436
g62
(dp437
sg71
g422
sg64
(lp438
g57
(g58
g59
NtRp439
(dp440
g62
(dp441
g70
I3
ssg71
g435
sg64
(lp442
S''
asbasbasbasbasbasbasbag57
(g73
g59
NtRp443
(dp444
g62
(dp445
sg71
g246
sg64
(lp446
g57
(g78
g59
NtRp447
(dp448
g62
(dp449
g82
g83
ssg71
g443
sg64
(lp450
S'session_id_bigvotes'
p451
asbag57
(g78
g59
NtRp452
(dp453
g62
(dp454
g89
g90
ssg71
g443
sg64
(lp455
S':'
asbag57
(g78
g59
NtRp456
(dp457
g62
(dp458
sg71
g443
sg64
(lp459
g57
(g58
g59
NtRp460
(dp461
g62
(dp462
g70
I4
ssg71
g456
sg64
(lp463
g57
(g66
g59
NtRp464
(dp465
g62
(dp466
g70
I3
ssg71
Nsg64
(lp467
g57
(g73
g59
NtRp468
(dp469
g62
(dp470
sg71
g464
sg64
(lp471
g57
(g78
g59
NtRp472
(dp473
g62
(dp474
g82
g83
ssg71
g468
sg64
(lp475
g283
asbag57
(g78
g59
NtRp476
(dp477
g62
(dp478
g89
g90
ssg71
g468
sg64
(lp479
S':'
asbag57
(g78
g59
NtRp480
(dp481
g62
(dp482
sg71
g468
sg64
(lp483
g57
(g58
g59
NtRp484
(dp485
g62
(dp486
g70
I3
ssg71
g480
sg64
(lp487
S''
asbasbasbag57
(g73
g59
NtRp488
(dp489
g62
(dp490
sg71
g464
sg64
(lp491
g57
(g78
g59
NtRp492
(dp493
g62
(dp494
g82
g83
ssg71
g488
sg64
(lp495
g304
asbag57
(g78
g59
NtRp496
(dp497
g62
(dp498
g89
g90
ssg71
g488
sg64
(lp499
S':'
asbag57
(g78
g59
NtRp500
(dp501
g62
(dp502
sg71
g488
sg64
(lp503
g57
(g58
g59
NtRp504
(dp505
g62
(dp506
g70
I3
ssg71
g500
sg64
(lp507
S''
asbasbasbag57
(g73
g59
NtRp508
(dp509
g62
(dp510
sg71
g464
sg64
(lp511
g57
(g78
g59
NtRp512
(dp513
g62
(dp514
g82
g83
ssg71
g508
sg64
(lp515
g325
asbag57
(g78
g59
NtRp516
(dp517
g62
(dp518
g89
g90
ssg71
g508
sg64
(lp519
S':'
asbag57
(g78
g59
NtRp520
(dp521
g62
(dp522
sg71
g508
sg64
(lp523
g57
(g58
g59
NtRp524
(dp525
g62
(dp526
g70
I3
ssg71
g520
sg64
(lp527
S''
asbasbasbag57
(g73
g59
NtRp528
(dp529
g62
(dp530
sg71
g464
sg64
(lp531
g57
(g78
g59
NtRp532
(dp533
g62
(dp534
g82
g83
ssg71
g528
sg64
(lp535
g346
asbag57
(g78
g59
NtRp536
(dp537
g62
(dp538
g89
g90
ssg71
g528
sg64
(lp539
S':'
asbag57
(g78
g59
NtRp540
(dp541
g62
(dp542
sg71
g528
sg64
(lp543
g57
(g58
g59
NtRp544
(dp545
g62
(dp546
g70
I3
ssg71
g540
sg64
(lp547
S''
asbasbasbag57
(g73
g59
NtRp548
(dp549
g62
(dp550
sg71
g464
sg64
(lp551
g57
(g78
g59
NtRp552
(dp553
g62
(dp554
g82
g83
ssg71
g548
sg64
(lp555
g367
asbag57
(g78
g59
NtRp556
(dp557
g62
(dp558
g89
g90
ssg71
g548
sg64
(lp559
S':'
asbag57
(g78
g59
NtRp560
(dp561
g62
(dp562
sg71
g548
sg64
(lp563
g57
(g58
g59
NtRp564
(dp565
g62
(dp566
g70
I3
ssg71
g560
sg64
(lp567
S''
asbasbasbag57
(g73
g59
NtRp568
(dp569
g62
(dp570
sg71
g464
sg64
(lp571
g57
(g78
g59
NtRp572
(dp573
g62
(dp574
g82
g83
ssg71
g568
sg64
(lp575
g388
asbag57
(g78
g59
NtRp576
(dp577
g62
(dp578
g89
g90
ssg71
g568
sg64
(lp579
S':'
asbag57
(g78
g59
NtRp580
(dp581
g62
(dp582
sg71
g568
sg64
(lp583
g57
(g58
g59
NtRp584
(dp585
g62
(dp586
g70
I3
ssg71
g580
sg64
(lp587
S''
asbasbasbag57
(g73
g59
NtRp588
(dp589
g62
(dp590
sg71
g464
sg64
(lp591
g57
(g78
g59
NtRp592
(dp593
g62
(dp594
g82
g83
ssg71
g588
sg64
(lp595
g409
asbag57
(g78
g59
NtRp596
(dp597
g62
(dp598
g89
g90
ssg71
g588
sg64
(lp599
S':'
asbag57
(g78
g59
NtRp600
(dp601
g62
(dp602
sg71
g588
sg64
(lp603
g57
(g58
g59
NtRp604
(dp605
g62
(dp606
g70
I3
ssg71
g600
sg64
(lp607
S''
asbasbasbag57
(g73
g59
NtRp608
(dp609
g62
(dp610
sg71
g464
sg64
(lp611
g57
(g78
g59
NtRp612
(dp613
g62
(dp614
g82
g83
ssg71
g608
sg64
(lp615
g430
asbag57
(g78
g59
NtRp616
(dp617
g62
(dp618
g89
g90
ssg71
g608
sg64
(lp619
S':'
asbag57
(g78
g59
NtRp620
(dp621
g62
(dp622
sg71
g608
sg64
(lp623
g57
(g58
g59
NtRp624
(dp625
g62
(dp626
g70
I3
ssg71
g620
sg64
(lp627
S''
asbasbasbasbasbasbasbasbasbasbasbag57
(g73
g59
NtRp628
(dp629
g62
(dp630
sg71
g67
sg64
(lp631
g57
(g78
g59
NtRp632
(dp633
g62
(dp634
g82
g83
ssg71
g628
sg64
(lp635
S'env'
p636
asbag57
(g78
g59
NtRp637
(dp638
g62
(dp639
g89
g90
ssg71
g628
sg64
(lp640
S':'
asbag57
(g78
g59
NtRp641
(dp642
g62
(dp643
sg71
g628
sg64
(lp644
g57
(g58
g59
NtRp645
(dp646
g62
(dp647
g70
I5
ssg71
g641
sg64
(lp648
g57
(g66
g59
NtRp649
(dp650
g62
(dp651
g70
I4
ssg71
Nsg64
(lp652
g57
(g73
g59
NtRp653
(dp654
g62
(dp655
sg71
g649
sg64
(lp656
g57
(g78
g59
NtRp657
(dp658
g62
(dp659
g82
g83
ssg71
g653
sg64
(lp660
S'app_folders'
p661
asbag57
(g78
g59
NtRp662
(dp663
g62
(dp664
g89
g90
ssg71
g653
sg64
(lp665
S':'
asbag57
(g78
g59
NtRp666
(dp667
g62
(dp668
sg71
g653
sg64
(lp669
g57
(g58
g59
NtRp670
(dp671
g62
(dp672
g70
I4
ssg71
g666
sg64
(lp673
S"set(['/home/kaique/Projects/web/big-votes/web2py/applications/bigvotes/'])"
p674
asbasbasbag57
(g73
g59
NtRp675
(dp676
g62
(dp677
sg71
g649
sg64
(lp678
g57
(g78
g59
NtRp679
(dp680
g62
(dp681
g82
g83
ssg71
g675
sg64
(lp682
S'applications_parent'
p683
asbag57
(g78
g59
NtRp684
(dp685
g62
(dp686
g89
g90
ssg71
g675
sg64
(lp687
S':'
asbag57
(g78
g59
NtRp688
(dp689
g62
(dp690
sg71
g675
sg64
(lp691
g57
(g58
g59
NtRp692
(dp693
g62
(dp694
g70
I4
ssg71
g688
sg64
(lp695
S'/home/kaique/Projects/web/big-votes/web2py'
p696
asbasbasbag57
(g73
g59
NtRp697
(dp698
g62
(dp699
sg71
g649
sg64
(lp700
g57
(g78
g59
NtRp701
(dp702
g62
(dp703
g82
g83
ssg71
g697
sg64
(lp704
S'cmd_args'
p705
asbag57
(g78
g59
NtRp706
(dp707
g62
(dp708
g89
g90
ssg71
g697
sg64
(lp709
S':'
asbag57
(g78
g59
NtRp710
(dp711
g62
(dp712
sg71
g697
sg64
(lp713
g57
(g58
g59
NtRp714
(dp715
g62
(dp716
g70
I4
ssg71
g710
sg64
(lp717
g57
(g66
g59
NtRp718
(dp719
g62
(dp720
g70
I3
ssg71
Nsg64
(lp721
sbasbasbasbag57
(g73
g59
NtRp722
(dp723
g62
(dp724
sg71
g649
sg64
(lp725
g57
(g78
g59
NtRp726
(dp727
g62
(dp728
g82
g83
ssg71
g722
sg64
(lp729
S'cmd_options'
p730
asbag57
(g78
g59
NtRp731
(dp732
g62
(dp733
g89
g90
ssg71
g722
sg64
(lp734
S':'
asbag57
(g78
g59
NtRp735
(dp736
g62
(dp737
sg71
g722
sg64
(lp738
g57
(g58
g59
NtRp739
(dp740
g62
(dp741
g70
I4
ssg71
g735
sg64
(lp742
S"<Values at 0x8e4876c: {'verbose': False, 'ip': '127.0.0.1', 'shutdown_timeout': 5, 'taskbar': False, 'nocron': False, 'pid_filename': 'httpserver.pid', 'maxthreads': None, 'softcron': False, 'server_name': 'main', 'bpython': False, 'nogui': False, 'port': 8000, 'extcron': False, 'debuglevel': 30, 'test': None, 'folder': '/home/kaique/Projects/web/big-votes/web2py', 'config': '', 'import_models': False, 'winservice': '', 'shell': None, 'run': '', 'log_filename': 'httpserver.log', 'args': [''], 'socket_timeout': 5, 'ssl_ca_certificate': None, 'scheduler': None, 'profiler_filename': None, 'ssl_private_key': '', 'password': 'dev', 'request_queue_size': 5, 'ssl_certificate': '', 'cronjob': False, 'numthreads': None, 'quiet': False, 'interfaces': None, 'minthreads': None, 'timeout': 10, 'plain': False, 'nobanner': False}>"
p743
asbasbasbag57
(g73
g59
NtRp744
(dp745
g62
(dp746
sg71
g649
sg64
(lp747
g57
(g78
g59
NtRp748
(dp749
g62
(dp750
g82
g83
ssg71
g744
sg64
(lp751
S'db_sessions'
p752
asbag57
(g78
g59
NtRp753
(dp754
g62
(dp755
g89
g90
ssg71
g744
sg64
(lp756
S':'
asbag57
(g78
g59
NtRp757
(dp758
g62
(dp759
sg71
g744
sg64
(lp760
g57
(g58
g59
NtRp761
(dp762
g62
(dp763
g70
I4
ssg71
g757
sg64
(lp764
S'set([])'
p765
asbasbasbag57
(g73
g59
NtRp766
(dp767
g62
(dp768
sg71
g649
sg64
(lp769
g57
(g78
g59
NtRp770
(dp771
g62
(dp772
g82
g83
ssg71
g766
sg64
(lp773
S'debugging'
p774
asbag57
(g78
g59
NtRp775
(dp776
g62
(dp777
g89
g90
ssg71
g766
sg64
(lp778
S':'
asbag57
(g78
g59
NtRp779
(dp780
g62
(dp781
sg71
g766
sg64
(lp782
g57
(g58
g59
NtRp783
(dp784
g62
(dp785
g70
I4
ssg71
g779
sg64
(lp786
g100
asbasbasbag57
(g73
g59
NtRp787
(dp788
g62
(dp789
sg71
g649
sg64
(lp790
g57
(g78
g59
NtRp791
(dp792
g62
(dp793
g82
g83
ssg71
g787
sg64
(lp794
S'gluon_parent'
p795
asbag57
(g78
g59
NtRp796
(dp797
g62
(dp798
g89
g90
ssg71
g787
sg64
(lp799
S':'
asbag57
(g78
g59
NtRp800
(dp801
g62
(dp802
sg71
g787
sg64
(lp803
g57
(g58
g59
NtRp804
(dp805
g62
(dp806
g70
I4
ssg71
g800
sg64
(lp807
S'/home/kaique/Projects/web/big-votes/web2py'
p808
asbasbasbag57
(g73
g59
NtRp809
(dp810
g62
(dp811
sg71
g649
sg64
(lp812
g57
(g78
g59
NtRp813
(dp814
g62
(dp815
g82
g83
ssg71
g809
sg64
(lp816
S'http_accept'
p817
asbag57
(g78
g59
NtRp818
(dp819
g62
(dp820
g89
g90
ssg71
g809
sg64
(lp821
S':'
asbag57
(g78
g59
NtRp822
(dp823
g62
(dp824
sg71
g809
sg64
(lp825
g57
(g58
g59
NtRp826
(dp827
g62
(dp828
g70
I4
ssg71
g822
sg64
(lp829
S'text/html,application/xhtml+xml,application/xml;q=0.9,*/*;q=0.8'
p830
asbasbasbag57
(g73
g59
NtRp831
(dp832
g62
(dp833
sg71
g649
sg64
(lp834
g57
(g78
g59
NtRp835
(dp836
g62
(dp837
g82
g83
ssg71
g831
sg64
(lp838
S'http_accept_encoding'
p839
asbag57
(g78
g59
NtRp840
(dp841
g62
(dp842
g89
g90
ssg71
g831
sg64
(lp843
S':'
asbag57
(g78
g59
NtRp844
(dp845
g62
(dp846
sg71
g831
sg64
(lp847
g57
(g58
g59
NtRp848
(dp849
g62
(dp850
g70
I4
ssg71
g844
sg64
(lp851
S'gzip, deflate'
p852
asbasbasbag57
(g73
g59
NtRp853
(dp854
g62
(dp855
sg71
g649
sg64
(lp856
g57
(g78
g59
NtRp857
(dp858
g62
(dp859
g82
g83
ssg71
g853
sg64
(lp860
S'http_accept_language'
p861
asbag57
(g78
g59
NtRp862
(dp863
g62
(dp864
g89
g90
ssg71
g853
sg64
(lp865
S':'
asbag57
(g78
g59
NtRp866
(dp867
g62
(dp868
sg71
g853
sg64
(lp869
g57
(g58
g59
NtRp870
(dp871
g62
(dp872
g70
I4
ssg71
g866
sg64
(lp873
S'en-us,en;q=0.5'
p874
asbasbasbag57
(g73
g59
NtRp875
(dp876
g62
(dp877
sg71
g649
sg64
(lp878
g57
(g78
g59
NtRp879
(dp880
g62
(dp881
g82
g83
ssg71
g875
sg64
(lp882
S'http_connection'
p883
asbag57
(g78
g59
NtRp884
(dp885
g62
(dp886
g89
g90
ssg71
g875
sg64
(lp887
S':'
asbag57
(g78
g59
NtRp888
(dp889
g62
(dp890
sg71
g875
sg64
(lp891
g57
(g58
g59
NtRp892
(dp893
g62
(dp894
g70
I4
ssg71
g888
sg64
(lp895
S'keep-alive'
p896
asbasbasbag57
(g73
g59
NtRp897
(dp898
g62
(dp899
sg71
g649
sg64
(lp900
g57
(g78
g59
NtRp901
(dp902
g62
(dp903
g82
g83
ssg71
g897
sg64
(lp904
S'http_cookie'
p905
asbag57
(g78
g59
NtRp906
(dp907
g62
(dp908
g89
g90
ssg71
g897
sg64
(lp909
S':'
asbag57
(g78
g59
NtRp910
(dp911
g62
(dp912
sg71
g897
sg64
(lp913
g57
(g58
g59
NtRp914
(dp915
g62
(dp916
g70
I4
ssg71
g910
sg64
(lp917
S'session_id_admin=127.0.0.1-6e3daacb-3329-41f8-b9f9-d408f21d6ac7; session_id_bigvotes=127.0.0.1-72286364-99c3-4aae-95dc-f33a83b4d6f1'
p918
asbasbasbag57
(g73
g59
NtRp919
(dp920
g62
(dp921
sg71
g649
sg64
(lp922
g57
(g78
g59
NtRp923
(dp924
g62
(dp925
g82
g83
ssg71
g919
sg64
(lp926
S'http_host'
p927
asbag57
(g78
g59
NtRp928
(dp929
g62
(dp930
g89
g90
ssg71
g919
sg64
(lp931
S':'
asbag57
(g78
g59
NtRp932
(dp933
g62
(dp934
sg71
g919
sg64
(lp935
g57
(g58
g59
NtRp936
(dp937
g62
(dp938
g70
I4
ssg71
g932
sg64
(lp939
S'localhost:8000'
p940
asbasbasbag57
(g73
g59
NtRp941
(dp942
g62
(dp943
sg71
g649
sg64
(lp944
g57
(g78
g59
NtRp945
(dp946
g62
(dp947
g82
g83
ssg71
g941
sg64
(lp948
S'http_referer'
p949
asbag57
(g78
g59
NtRp950
(dp951
g62
(dp952
g89
g90
ssg71
g941
sg64
(lp953
S':'
asbag57
(g78
g59
NtRp954
(dp955
g62
(dp956
sg71
g941
sg64
(lp957
g57
(g58
g59
NtRp958
(dp959
g62
(dp960
g70
I4
ssg71
g954
sg64
(lp961
S'http://localhost:8000/bigvotes/member/index'
p962
asbasbasbag57
(g73
g59
NtRp963
(dp964
g62
(dp965
sg71
g649
sg64
(lp966
g57
(g78
g59
NtRp967
(dp968
g62
(dp969
g82
g83
ssg71
g963
sg64
(lp970
S'http_user_agent'
p971
asbag57
(g78
g59
NtRp972
(dp973
g62
(dp974
g89
g90
ssg71
g963
sg64
(lp975
S':'
asbag57
(g78
g59
NtRp976
(dp977
g62
(dp978
sg71
g963
sg64
(lp979
g57
(g58
g59
NtRp980
(dp981
g62
(dp982
g70
I4
ssg71
g976
sg64
(lp983
S'Mozilla/5.0 (X11; Linux i686; rv:12.0) Gecko/20100101 Firefox/12.0'
p984
asbasbasbag57
(g73
g59
NtRp985
(dp986
g62
(dp987
sg71
g649
sg64
(lp988
g57
(g78
g59
NtRp989
(dp990
g62
(dp991
g82
g83
ssg71
g985
sg64
(lp992
S'is_jython'
p993
asbag57
(g78
g59
NtRp994
(dp995
g62
(dp996
g89
g90
ssg71
g985
sg64
(lp997
S':'
asbag57
(g78
g59
NtRp998
(dp999
g62
(dp1000
sg71
g985
sg64
(lp1001
g57
(g58
g59
NtRp1002
(dp1003
g62
(dp1004
g70
I4
ssg71
g998
sg64
(lp1005
g100
asbasbasbag57
(g73
g59
NtRp1006
(dp1007
g62
(dp1008
sg71
g649
sg64
(lp1009
g57
(g78
g59
NtRp1010
(dp1011
g62
(dp1012
g82
g83
ssg71
g1006
sg64
(lp1013
S'is_pypy'
p1014
asbag57
(g78
g59
NtRp1015
(dp1016
g62
(dp1017
g89
g90
ssg71
g1006
sg64
(lp1018
S':'
asbag57
(g78
g59
NtRp1019
(dp1020
g62
(dp1021
sg71
g1006
sg64
(lp1022
g57
(g58
g59
NtRp1023
(dp1024
g62
(dp1025
g70
I4
ssg71
g1019
sg64
(lp1026
g100
asbasbasbag57
(g73
g59
NtRp1027
(dp1028
g62
(dp1029
sg71
g649
sg64
(lp1030
g57
(g78
g59
NtRp1031
(dp1032
g62
(dp1033
g82
g83
ssg71
g1027
sg64
(lp1034
S'path_info'
p1035
asbag57
(g78
g59
NtRp1036
(dp1037
g62
(dp1038
g89
g90
ssg71
g1027
sg64
(lp1039
S':'
asbag57
(g78
g59
NtRp1040
(dp1041
g62
(dp1042
sg71
g1027
sg64
(lp1043
g57
(g58
g59
NtRp1044
(dp1045
g62
(dp1046
g70
I4
ssg71
g1040
sg64
(lp1047
S'/bigvotes/member/profile/2'
p1048
asbasbasbag57
(g73
g59
NtRp1049
(dp1050
g62
(dp1051
sg71
g649
sg64
(lp1052
g57
(g78
g59
NtRp1053
(dp1054
g62
(dp1055
g82
g83
ssg71
g1049
sg64
(lp1056
S'query_string'
p1057
asbag57
(g78
g59
NtRp1058
(dp1059
g62
(dp1060
g89
g90
ssg71
g1049
sg64
(lp1061
S':'
asbag57
(g78
g59
NtRp1062
(dp1063
g62
(dp1064
sg71
g1049
sg64
(lp1065
g57
(g58
g59
NtRp1066
(dp1067
g62
(dp1068
g70
I4
ssg71
g1062
sg64
(lp1069
S''
asbasbasbag57
(g73
g59
NtRp1070
(dp1071
g62
(dp1072
sg71
g649
sg64
(lp1073
g57
(g78
g59
NtRp1074
(dp1075
g62
(dp1076
g82
g83
ssg71
g1070
sg64
(lp1077
S'remote_addr'
p1078
asbag57
(g78
g59
NtRp1079
(dp1080
g62
(dp1081
g89
g90
ssg71
g1070
sg64
(lp1082
S':'
asbag57
(g78
g59
NtRp1083
(dp1084
g62
(dp1085
sg71
g1070
sg64
(lp1086
g57
(g58
g59
NtRp1087
(dp1088
g62
(dp1089
g70
I4
ssg71
g1083
sg64
(lp1090
g202
asbasbasbag57
(g73
g59
NtRp1091
(dp1092
g62
(dp1093
sg71
g649
sg64
(lp1094
g57
(g78
g59
NtRp1095
(dp1096
g62
(dp1097
g82
g83
ssg71
g1091
sg64
(lp1098
S'remote_port'
p1099
asbag57
(g78
g59
NtRp1100
(dp1101
g62
(dp1102
g89
g90
ssg71
g1091
sg64
(lp1103
S':'
asbag57
(g78
g59
NtRp1104
(dp1105
g62
(dp1106
sg71
g1091
sg64
(lp1107
g57
(g58
g59
NtRp1108
(dp1109
g62
(dp1110
g70
I4
ssg71
g1104
sg64
(lp1111
S'36321'
p1112
asbasbasbag57
(g73
g59
NtRp1113
(dp1114
g62
(dp1115
sg71
g649
sg64
(lp1116
g57
(g78
g59
NtRp1117
(dp1118
g62
(dp1119
g82
g83
ssg71
g1113
sg64
(lp1120
S'request_method'
p1121
asbag57
(g78
g59
NtRp1122
(dp1123
g62
(dp1124
g89
g90
ssg71
g1113
sg64
(lp1125
S':'
asbag57
(g78
g59
NtRp1126
(dp1127
g62
(dp1128
sg71
g1113
sg64
(lp1129
g57
(g58
g59
NtRp1130
(dp1131
g62
(dp1132
g70
I4
ssg71
g1126
sg64
(lp1133
S'GET'
p1134
asbasbasbag57
(g73
g59
NtRp1135
(dp1136
g62
(dp1137
sg71
g649
sg64
(lp1138
g57
(g78
g59
NtRp1139
(dp1140
g62
(dp1141
g82
g83
ssg71
g1135
sg64
(lp1142
S'script_name'
p1143
asbag57
(g78
g59
NtRp1144
(dp1145
g62
(dp1146
g89
g90
ssg71
g1135
sg64
(lp1147
S':'
asbag57
(g78
g59
NtRp1148
(dp1149
g62
(dp1150
sg71
g1135
sg64
(lp1151
g57
(g58
g59
NtRp1152
(dp1153
g62
(dp1154
g70
I4
ssg71
g1148
sg64
(lp1155
S''
asbasbasbag57
(g73
g59
NtRp1156
(dp1157
g62
(dp1158
sg71
g649
sg64
(lp1159
g57
(g78
g59
NtRp1160
(dp1161
g62
(dp1162
g82
g83
ssg71
g1156
sg64
(lp1163
S'server_name'
p1164
asbag57
(g78
g59
NtRp1165
(dp1166
g62
(dp1167
g89
g90
ssg71
g1156
sg64
(lp1168
S':'
asbag57
(g78
g59
NtRp1169
(dp1170
g62
(dp1171
sg71
g1156
sg64
(lp1172
g57
(g58
g59
NtRp1173
(dp1174
g62
(dp1175
g70
I4
ssg71
g1169
sg64
(lp1176
S'main'
p1177
asbasbasbag57
(g73
g59
NtRp1178
(dp1179
g62
(dp1180
sg71
g649
sg64
(lp1181
g57
(g78
g59
NtRp1182
(dp1183
g62
(dp1184
g82
g83
ssg71
g1178
sg64
(lp1185
S'server_port'
p1186
asbag57
(g78
g59
NtRp1187
(dp1188
g62
(dp1189
g89
g90
ssg71
g1178
sg64
(lp1190
S':'
asbag57
(g78
g59
NtRp1191
(dp1192
g62
(dp1193
sg71
g1178
sg64
(lp1194
g57
(g58
g59
NtRp1195
(dp1196
g62
(dp1197
g70
I4
ssg71
g1191
sg64
(lp1198
S'8000'
p1199
asbasbasbag57
(g73
g59
NtRp1200
(dp1201
g62
(dp1202
sg71
g649
sg64
(lp1203
g57
(g78
g59
NtRp1204
(dp1205
g62
(dp1206
g82
g83
ssg71
g1200
sg64
(lp1207
S'server_protocol'
p1208
asbag57
(g78
g59
NtRp1209
(dp1210
g62
(dp1211
g89
g90
ssg71
g1200
sg64
(lp1212
S':'
asbag57
(g78
g59
NtRp1213
(dp1214
g62
(dp1215
sg71
g1200
sg64
(lp1216
g57
(g58
g59
NtRp1217
(dp1218
g62
(dp1219
g70
I4
ssg71
g1213
sg64
(lp1220
S'HTTP/1.1'
p1221
asbasbasbag57
(g73
g59
NtRp1222
(dp1223
g62
(dp1224
sg71
g649
sg64
(lp1225
g57
(g78
g59
NtRp1226
(dp1227
g62
(dp1228
g82
g83
ssg71
g1222
sg64
(lp1229
S'server_software'
p1230
asbag57
(g78
g59
NtRp1231
(dp1232
g62
(dp1233
g89
g90
ssg71
g1222
sg64
(lp1234
S':'
asbag57
(g78
g59
NtRp1235
(dp1236
g62
(dp1237
sg71
g1222
sg64
(lp1238
g57
(g58
g59
NtRp1239
(dp1240
g62
(dp1241
g70
I4
ssg71
g1235
sg64
(lp1242
S'Rocket 1.2.4'
p1243
asbasbasbag57
(g73
g59
NtRp1244
(dp1245
g62
(dp1246
sg71
g649
sg64
(lp1247
g57
(g78
g59
NtRp1248
(dp1249
g62
(dp1250
g82
g83
ssg71
g1244
sg64
(lp1251
S'web2py_crontype'
p1252
asbag57
(g78
g59
NtRp1253
(dp1254
g62
(dp1255
g89
g90
ssg71
g1244
sg64
(lp1256
S':'
asbag57
(g78
g59
NtRp1257
(dp1258
g62
(dp1259
sg71
g1244
sg64
(lp1260
g57
(g58
g59
NtRp1261
(dp1262
g62
(dp1263
g70
I4
ssg71
g1257
sg64
(lp1264
S'hard'
p1265
asbasbasbag57
(g73
g59
NtRp1266
(dp1267
g62
(dp1268
sg71
g649
sg64
(lp1269
g57
(g78
g59
NtRp1270
(dp1271
g62
(dp1272
g82
g83
ssg71
g1266
sg64
(lp1273
S'web2py_path'
p1274
asbag57
(g78
g59
NtRp1275
(dp1276
g62
(dp1277
g89
g90
ssg71
g1266
sg64
(lp1278
S':'
asbag57
(g78
g59
NtRp1279
(dp1280
g62
(dp1281
sg71
g1266
sg64
(lp1282
g57
(g58
g59
NtRp1283
(dp1284
g62
(dp1285
g70
I4
ssg71
g1279
sg64
(lp1286
g696
asbasbasbag57
(g73
g59
NtRp1287
(dp1288
g62
(dp1289
sg71
g649
sg64
(lp1290
g57
(g78
g59
NtRp1291
(dp1292
g62
(dp1293
g82
g83
ssg71
g1287
sg64
(lp1294
S'web2py_version'
p1295
asbag57
(g78
g59
NtRp1296
(dp1297
g62
(dp1298
g89
g90
ssg71
g1287
sg64
(lp1299
S':'
asbag57
(g78
g59
NtRp1300
(dp1301
g62
(dp1302
sg71
g1287
sg64
(lp1303
g57
(g58
g59
NtRp1304
(dp1305
g62
(dp1306
g70
I4
ssg71
g1300
sg64
(lp1307
g57
(g66
g59
NtRp1308
(dp1309
g62
(dp1310
g70
I3
ssg71
Nsg64
(lp1311
g57
(g73
g59
NtRp1312
(dp1313
g62
(dp1314
sg71
g1308
sg64
(lp1315
g57
(g78
g59
NtRp1316
(dp1317
g62
(dp1318
sg71
g1312
sg64
(lp1319
g57
(g58
g59
NtRp1320
(dp1321
g62
(dp1322
g70
I3
ssg71
g1316
sg64
(lp1323
S'1'
asbasbasbag57
(g73
g59
NtRp1324
(dp1325
g62
(dp1326
sg71
g1308
sg64
(lp1327
g57
(g78
g59
NtRp1328
(dp1329
g62
(dp1330
sg71
g1324
sg64
(lp1331
g57
(g58
g59
NtRp1332
(dp1333
g62
(dp1334
g70
I3
ssg71
g1328
sg64
(lp1335
S'99'
p1336
asbasbasbag57
(g73
g59
NtRp1337
(dp1338
g62
(dp1339
sg71
g1308
sg64
(lp1340
g57
(g78
g59
NtRp1341
(dp1342
g62
(dp1343
sg71
g1337
sg64
(lp1344
g57
(g58
g59
NtRp1345
(dp1346
g62
(dp1347
g70
I3
ssg71
g1341
sg64
(lp1348
S'7'
asbasbasbag57
(g73
g59
NtRp1349
(dp1350
g62
(dp1351
sg71
g1308
sg64
(lp1352
g57
(g78
g59
NtRp1353
(dp1354
g62
(dp1355
sg71
g1349
sg64
(lp1356
g57
(g58
g59
NtRp1357
(dp1358
g62
(dp1359
g70
I3
ssg71
g1353
sg64
(lp1360
S'datetime.datetime(2012, 3, 4, 22, 12, 8)'
p1361
asbasbasbag57
(g73
g59
NtRp1362
(dp1363
g62
(dp1364
sg71
g1308
sg64
(lp1365
g57
(g78
g59
NtRp1366
(dp1367
g62
(dp1368
sg71
g1362
sg64
(lp1369
g57
(g58
g59
NtRp1370
(dp1371
g62
(dp1372
g70
I3
ssg71
g1366
sg64
(lp1373
S'stable'
p1374
asbasbasbasbasbasbasbag57
(g73
g59
NtRp1375
(dp1376
g62
(dp1377
sg71
g649
sg64
(lp1378
g57
(g78
g59
NtRp1379
(dp1380
g62
(dp1381
g82
g83
ssg71
g1375
sg64
(lp1382
S'wsgi_errors'
p1383
asbag57
(g78
g59
NtRp1384
(dp1385
g62
(dp1386
g89
g90
ssg71
g1375
sg64
(lp1387
S':'
asbag57
(g78
g59
NtRp1388
(dp1389
g62
(dp1390
sg71
g1375
sg64
(lp1391
g57
(g58
g59
NtRp1392
(dp1393
g62
(dp1394
g70
I4
ssg71
g1388
sg64
(lp1395
S"<open file '<stderr>', mode 'w' at 0xb78af0d0>"
p1396
asbasbasbag57
(g73
g59
NtRp1397
(dp1398
g62
(dp1399
sg71
g649
sg64
(lp1400
g57
(g78
g59
NtRp1401
(dp1402
g62
(dp1403
g82
g83
ssg71
g1397
sg64
(lp1404
S'wsgi_file_wrapper'
p1405
asbag57
(g78
g59
NtRp1406
(dp1407
g62
(dp1408
g89
g90
ssg71
g1397
sg64
(lp1409
S':'
asbag57
(g78
g59
NtRp1410
(dp1411
g62
(dp1412
sg71
g1397
sg64
(lp1413
g57
(g58
g59
NtRp1414
(dp1415
g62
(dp1416
g70
I4
ssg71
g1410
sg64
(lp1417
S'<class wsgiref.util.FileWrapper at 0x8e23d7c>'
p1418
asbasbasbag57
(g73
g59
NtRp1419
(dp1420
g62
(dp1421
sg71
g649
sg64
(lp1422
g57
(g78
g59
NtRp1423
(dp1424
g62
(dp1425
g82
g83
ssg71
g1419
sg64
(lp1426
S'wsgi_input'
p1427
asbag57
(g78
g59
NtRp1428
(dp1429
g62
(dp1430
g89
g90
ssg71
g1419
sg64
(lp1431
S':'
asbag57
(g78
g59
NtRp1432
(dp1433
g62
(dp1434
sg71
g1419
sg64
(lp1435
g57
(g58
g59
NtRp1436
(dp1437
g62
(dp1438
g70
I4
ssg71
g1432
sg64
(lp1439
S'<socket._fileobject object at 0x8e7d12c>'
p1440
asbasbasbag57
(g73
g59
NtRp1441
(dp1442
g62
(dp1443
sg71
g649
sg64
(lp1444
g57
(g78
g59
NtRp1445
(dp1446
g62
(dp1447
g82
g83
ssg71
g1441
sg64
(lp1448
S'wsgi_multiprocess'
p1449
asbag57
(g78
g59
NtRp1450
(dp1451
g62
(dp1452
g89
g90
ssg71
g1441
sg64
(lp1453
S':'
asbag57
(g78
g59
NtRp1454
(dp1455
g62
(dp1456
sg71
g1441
sg64
(lp1457
g57
(g58
g59
NtRp1458
(dp1459
g62
(dp1460
g70
I4
ssg71
g1454
sg64
(lp1461
g100
asbasbasbag57
(g73
g59
NtRp1462
(dp1463
g62
(dp1464
sg71
g649
sg64
(lp1465
g57
(g78
g59
NtRp1466
(dp1467
g62
(dp1468
g82
g83
ssg71
g1462
sg64
(lp1469
S'wsgi_multithread'
p1470
asbag57
(g78
g59
NtRp1471
(dp1472
g62
(dp1473
g89
g90
ssg71
g1462
sg64
(lp1474
S':'
asbag57
(g78
g59
NtRp1475
(dp1476
g62
(dp1477
sg71
g1462
sg64
(lp1478
g57
(g58
g59
NtRp1479
(dp1480
g62
(dp1481
g70
I4
ssg71
g1475
sg64
(lp1482
S'True'
p1483
asbasbasbag57
(g73
g59
NtRp1484
(dp1485
g62
(dp1486
sg71
g649
sg64
(lp1487
g57
(g78
g59
NtRp1488
(dp1489
g62
(dp1490
g82
g83
ssg71
g1484
sg64
(lp1491
S'wsgi_run_once'
p1492
asbag57
(g78
g59
NtRp1493
(dp1494
g62
(dp1495
g89
g90
ssg71
g1484
sg64
(lp1496
S':'
asbag57
(g78
g59
NtRp1497
(dp1498
g62
(dp1499
sg71
g1484
sg64
(lp1500
g57
(g58
g59
NtRp1501
(dp1502
g62
(dp1503
g70
I4
ssg71
g1497
sg64
(lp1504
g100
asbasbasbag57
(g73
g59
NtRp1505
(dp1506
g62
(dp1507
sg71
g649
sg64
(lp1508
g57
(g78
g59
NtRp1509
(dp1510
g62
(dp1511
g82
g83
ssg71
g1505
sg64
(lp1512
S'wsgi_url_scheme'
p1513
asbag57
(g78
g59
NtRp1514
(dp1515
g62
(dp1516
g89
g90
ssg71
g1505
sg64
(lp1517
S':'
asbag57
(g78
g59
NtRp1518
(dp1519
g62
(dp1520
sg71
g1505
sg64
(lp1521
g57
(g58
g59
NtRp1522
(dp1523
g62
(dp1524
g70
I4
ssg71
g1518
sg64
(lp1525
S'http'
p1526
asbasbasbag57
(g73
g59
NtRp1527
(dp1528
g62
(dp1529
sg71
g649
sg64
(lp1530
g57
(g78
g59
NtRp1531
(dp1532
g62
(dp1533
g82
g83
ssg71
g1527
sg64
(lp1534
S'wsgi_version'
p1535
asbag57
(g78
g59
NtRp1536
(dp1537
g62
(dp1538
g89
g90
ssg71
g1527
sg64
(lp1539
S':'
asbag57
(g78
g59
NtRp1540
(dp1541
g62
(dp1542
sg71
g1527
sg64
(lp1543
g57
(g58
g59
NtRp1544
(dp1545
g62
(dp1546
g70
I4
ssg71
g1540
sg64
(lp1547
g57
(g66
g59
NtRp1548
(dp1549
g62
(dp1550
g70
I3
ssg71
Nsg64
(lp1551
g57
(g73
g59
NtRp1552
(dp1553
g62
(dp1554
sg71
g1548
sg64
(lp1555
g57
(g78
g59
NtRp1556
(dp1557
g62
(dp1558
sg71
g1552
sg64
(lp1559
g57
(g58
g59
NtRp1560
(dp1561
g62
(dp1562
g70
I3
ssg71
g1556
sg64
(lp1563
S'1'
asbasbasbag57
(g73
g59
NtRp1564
(dp1565
g62
(dp1566
sg71
g1548
sg64
(lp1567
g57
(g78
g59
NtRp1568
(dp1569
g62
(dp1570
sg71
g1564
sg64
(lp1571
g57
(g58
g59
NtRp1572
(dp1573
g62
(dp1574
g70
I3
ssg71
g1568
sg64
(lp1575
S'0'
asbasbasbasbasbasbasbasbasbasbasbag57
(g73
g59
NtRp1576
(dp1577
g62
(dp1578
sg71
g67
sg64
(lp1579
g57
(g78
g59
NtRp1580
(dp1581
g62
(dp1582
g82
g83
ssg71
g1576
sg64
(lp1583
S'extension'
p1584
asbag57
(g78
g59
NtRp1585
(dp1586
g62
(dp1587
g89
g90
ssg71
g1576
sg64
(lp1588
S':'
asbag57
(g78
g59
NtRp1589
(dp1590
g62
(dp1591
sg71
g1576
sg64
(lp1592
g57
(g58
g59
NtRp1593
(dp1594
g62
(dp1595
g70
I5
ssg71
g1589
sg64
(lp1596
S'html'
p1597
asbasbasbag57
(g73
g59
NtRp1598
(dp1599
g62
(dp1600
sg71
g67
sg64
(lp1601
g57
(g78
g59
NtRp1602
(dp1603
g62
(dp1604
g82
g83
ssg71
g1598
sg64
(lp1605
S'folder'
p1606
asbag57
(g78
g59
NtRp1607
(dp1608
g62
(dp1609
g89
g90
ssg71
g1598
sg64
(lp1610
S':'
asbag57
(g78
g59
NtRp1611
(dp1612
g62
(dp1613
sg71
g1598
sg64
(lp1614
g57
(g58
g59
NtRp1615
(dp1616
g62
(dp1617
g70
I5
ssg71
g1611
sg64
(lp1618
S'/home/kaique/Projects/web/big-votes/web2py/applications/bigvotes/'
p1619
asbasbasbag57
(g73
g59
NtRp1620
(dp1621
g62
(dp1622
sg71
g67
sg64
(lp1623
g57
(g78
g59
NtRp1624
(dp1625
g62
(dp1626
g82
g83
ssg71
g1620
sg64
(lp1627
S'function'
p1628
asbag57
(g78
g59
NtRp1629
(dp1630
g62
(dp1631
g89
g90
ssg71
g1620
sg64
(lp1632
S':'
asbag57
(g78
g59
NtRp1633
(dp1634
g62
(dp1635
sg71
g1620
sg64
(lp1636
g57
(g58
g59
NtRp1637
(dp1638
g62
(dp1639
g70
I5
ssg71
g1633
sg64
(lp1640
S'profile'
p1641
asbasbasbag57
(g73
g59
NtRp1642
(dp1643
g62
(dp1644
sg71
g67
sg64
(lp1645
g57
(g78
g59
NtRp1646
(dp1647
g62
(dp1648
g82
g83
ssg71
g1642
sg64
(lp1649
S'get_vars'
p1650
asbag57
(g78
g59
NtRp1651
(dp1652
g62
(dp1653
g89
g90
ssg71
g1642
sg64
(lp1654
S':'
asbag57
(g78
g59
NtRp1655
(dp1656
g62
(dp1657
sg71
g1642
sg64
(lp1658
g57
(g58
g59
NtRp1659
(dp1660
g62
(dp1661
g70
I5
ssg71
g1655
sg64
(lp1662
g57
(g66
g59
NtRp1663
(dp1664
g62
(dp1665
g70
I4
ssg71
Nsg64
(lp1666
sbasbasbasbag57
(g73
g59
NtRp1667
(dp1668
g62
(dp1669
sg71
g67
sg64
(lp1670
g57
(g78
g59
NtRp1671
(dp1672
g62
(dp1673
g82
g83
ssg71
g1667
sg64
(lp1674
S'global_settings'
p1675
asbag57
(g78
g59
NtRp1676
(dp1677
g62
(dp1678
g89
g90
ssg71
g1667
sg64
(lp1679
S':'
asbag57
(g78
g59
NtRp1680
(dp1681
g62
(dp1682
sg71
g1667
sg64
(lp1683
g57
(g58
g59
NtRp1684
(dp1685
g62
(dp1686
g70
I5
ssg71
g1680
sg64
(lp1687
g57
(g66
g59
NtRp1688
(dp1689
g62
(dp1690
g70
I4
ssg71
Nsg64
(lp1691
g57
(g73
g59
NtRp1692
(dp1693
g62
(dp1694
sg71
g1688
sg64
(lp1695
g57
(g78
g59
NtRp1696
(dp1697
g62
(dp1698
g82
g83
ssg71
g1692
sg64
(lp1699
g661
asbag57
(g78
g59
NtRp1700
(dp1701
g62
(dp1702
g89
g90
ssg71
g1692
sg64
(lp1703
S':'
asbag57
(g78
g59
NtRp1704
(dp1705
g62
(dp1706
sg71
g1692
sg64
(lp1707
g57
(g58
g59
NtRp1708
(dp1709
g62
(dp1710
g70
I4
ssg71
g1704
sg64
(lp1711
S"set(['/home/kaique/Projects/web/big-votes/web2py/applications/bigvotes/'])"
p1712
asbasbasbag57
(g73
g59
NtRp1713
(dp1714
g62
(dp1715
sg71
g1688
sg64
(lp1716
g57
(g78
g59
NtRp1717
(dp1718
g62
(dp1719
g82
g83
ssg71
g1713
sg64
(lp1720
g683
asbag57
(g78
g59
NtRp1721
(dp1722
g62
(dp1723
g89
g90
ssg71
g1713
sg64
(lp1724
S':'
asbag57
(g78
g59
NtRp1725
(dp1726
g62
(dp1727
sg71
g1713
sg64
(lp1728
g57
(g58
g59
NtRp1729
(dp1730
g62
(dp1731
g70
I4
ssg71
g1725
sg64
(lp1732
g696
asbasbasbag57
(g73
g59
NtRp1733
(dp1734
g62
(dp1735
sg71
g1688
sg64
(lp1736
g57
(g78
g59
NtRp1737
(dp1738
g62
(dp1739
g82
g83
ssg71
g1733
sg64
(lp1740
g705
asbag57
(g78
g59
NtRp1741
(dp1742
g62
(dp1743
g89
g90
ssg71
g1733
sg64
(lp1744
S':'
asbag57
(g78
g59
NtRp1745
(dp1746
g62
(dp1747
sg71
g1733
sg64
(lp1748
g57
(g58
g59
NtRp1749
(dp1750
g62
(dp1751
g70
I4
ssg71
g1745
sg64
(lp1752
g57
(g66
g59
NtRp1753
(dp1754
g62
(dp1755
g70
I3
ssg71
Nsg64
(lp1756
sbasbasbasbag57
(g73
g59
NtRp1757
(dp1758
g62
(dp1759
sg71
g1688
sg64
(lp1760
g57
(g78
g59
NtRp1761
(dp1762
g62
(dp1763
g82
g83
ssg71
g1757
sg64
(lp1764
g730
asbag57
(g78
g59
NtRp1765
(dp1766
g62
(dp1767
g89
g90
ssg71
g1757
sg64
(lp1768
S':'
asbag57
(g78
g59
NtRp1769
(dp1770
g62
(dp1771
sg71
g1757
sg64
(lp1772
g57
(g58
g59
NtRp1773
(dp1774
g62
(dp1775
g70
I4
ssg71
g1769
sg64
(lp1776
S"<Values at 0x8e4876c: {'verbose': False, 'ip': '127.0.0.1', 'shutdown_timeout': 5, 'taskbar': False, 'nocron': False, 'pid_filename': 'httpserver.pid', 'maxthreads': None, 'softcron': False, 'server_name': 'main', 'bpython': False, 'nogui': False, 'port': 8000, 'extcron': False, 'debuglevel': 30, 'test': None, 'folder': '/home/kaique/Projects/web/big-votes/web2py', 'config': '', 'import_models': False, 'winservice': '', 'shell': None, 'run': '', 'log_filename': 'httpserver.log', 'args': [''], 'socket_timeout': 5, 'ssl_ca_certificate': None, 'scheduler': None, 'profiler_filename': None, 'ssl_private_key': '', 'password': 'dev', 'request_queue_size': 5, 'ssl_certificate': '', 'cronjob': False, 'numthreads': None, 'quiet': False, 'interfaces': None, 'minthreads': None, 'timeout': 10, 'plain': False, 'nobanner': False}>"
p1777
asbasbasbag57
(g73
g59
NtRp1778
(dp1779
g62
(dp1780
sg71
g1688
sg64
(lp1781
g57
(g78
g59
NtRp1782
(dp1783
g62
(dp1784
g82
g83
ssg71
g1778
sg64
(lp1785
g752
asbag57
(g78
g59
NtRp1786
(dp1787
g62
(dp1788
g89
g90
ssg71
g1778
sg64
(lp1789
S':'
asbag57
(g78
g59
NtRp1790
(dp1791
g62
(dp1792
sg71
g1778
sg64
(lp1793
g57
(g58
g59
NtRp1794
(dp1795
g62
(dp1796
g70
I4
ssg71
g1790
sg64
(lp1797
S'set([])'
p1798
asbasbasbag57
(g73
g59
NtRp1799
(dp1800
g62
(dp1801
sg71
g1688
sg64
(lp1802
g57
(g78
g59
NtRp1803
(dp1804
g62
(dp1805
g82
g83
ssg71
g1799
sg64
(lp1806
g774
asbag57
(g78
g59
NtRp1807
(dp1808
g62
(dp1809
g89
g90
ssg71
g1799
sg64
(lp1810
S':'
asbag57
(g78
g59
NtRp1811
(dp1812
g62
(dp1813
sg71
g1799
sg64
(lp1814
g57
(g58
g59
NtRp1815
(dp1816
g62
(dp1817
g70
I4
ssg71
g1811
sg64
(lp1818
g100
asbasbasbag57
(g73
g59
NtRp1819
(dp1820
g62
(dp1821
sg71
g1688
sg64
(lp1822
g57
(g78
g59
NtRp1823
(dp1824
g62
(dp1825
g82
g83
ssg71
g1819
sg64
(lp1826
g795
asbag57
(g78
g59
NtRp1827
(dp1828
g62
(dp1829
g89
g90
ssg71
g1819
sg64
(lp1830
S':'
asbag57
(g78
g59
NtRp1831
(dp1832
g62
(dp1833
sg71
g1819
sg64
(lp1834
g57
(g58
g59
NtRp1835
(dp1836
g62
(dp1837
g70
I4
ssg71
g1831
sg64
(lp1838
g808
asbasbasbag57
(g73
g59
NtRp1839
(dp1840
g62
(dp1841
sg71
g1688
sg64
(lp1842
g57
(g78
g59
NtRp1843
(dp1844
g62
(dp1845
g82
g83
ssg71
g1839
sg64
(lp1846
g993
asbag57
(g78
g59
NtRp1847
(dp1848
g62
(dp1849
g89
g90
ssg71
g1839
sg64
(lp1850
S':'
asbag57
(g78
g59
NtRp1851
(dp1852
g62
(dp1853
sg71
g1839
sg64
(lp1854
g57
(g58
g59
NtRp1855
(dp1856
g62
(dp1857
g70
I4
ssg71
g1851
sg64
(lp1858
g100
asbasbasbag57
(g73
g59
NtRp1859
(dp1860
g62
(dp1861
sg71
g1688
sg64
(lp1862
g57
(g78
g59
NtRp1863
(dp1864
g62
(dp1865
g82
g83
ssg71
g1859
sg64
(lp1866
g1014
asbag57
(g78
g59
NtRp1867
(dp1868
g62
(dp1869
g89
g90
ssg71
g1859
sg64
(lp1870
S':'
asbag57
(g78
g59
NtRp1871
(dp1872
g62
(dp1873
sg71
g1859
sg64
(lp1874
g57
(g58
g59
NtRp1875
(dp1876
g62
(dp1877
g70
I4
ssg71
g1871
sg64
(lp1878
g100
asbasbasbag57
(g73
g59
NtRp1879
(dp1880
g62
(dp1881
sg71
g1688
sg64
(lp1882
g57
(g78
g59
NtRp1883
(dp1884
g62
(dp1885
g82
g83
ssg71
g1879
sg64
(lp1886
g1252
asbag57
(g78
g59
NtRp1887
(dp1888
g62
(dp1889
g89
g90
ssg71
g1879
sg64
(lp1890
S':'
asbag57
(g78
g59
NtRp1891
(dp1892
g62
(dp1893
sg71
g1879
sg64
(lp1894
g57
(g58
g59
NtRp1895
(dp1896
g62
(dp1897
g70
I4
ssg71
g1891
sg64
(lp1898
g1265
asbasbasbag57
(g73
g59
NtRp1899
(dp1900
g62
(dp1901
sg71
g1688
sg64
(lp1902
g57
(g78
g59
NtRp1903
(dp1904
g62
(dp1905
g82
g83
ssg71
g1899
sg64
(lp1906
g1295
asbag57
(g78
g59
NtRp1907
(dp1908
g62
(dp1909
g89
g90
ssg71
g1899
sg64
(lp1910
S':'
asbag57
(g78
g59
NtRp1911
(dp1912
g62
(dp1913
sg71
g1899
sg64
(lp1914
g57
(g58
g59
NtRp1915
(dp1916
g62
(dp1917
g70
I4
ssg71
g1911
sg64
(lp1918
g57
(g66
g59
NtRp1919
(dp1920
g62
(dp1921
g70
I3
ssg71
Nsg64
(lp1922
g57
(g73
g59
NtRp1923
(dp1924
g62
(dp1925
sg71
g1919
sg64
(lp1926
g57
(g78
g59
NtRp1927
(dp1928
g62
(dp1929
sg71
g1923
sg64
(lp1930
g57
(g58
g59
NtRp1931
(dp1932
g62
(dp1933
g70
I3
ssg71
g1927
sg64
(lp1934
S'1'
asbasbasbag57
(g73
g59
NtRp1935
(dp1936
g62
(dp1937
sg71
g1919
sg64
(lp1938
g57
(g78
g59
NtRp1939
(dp1940
g62
(dp1941
sg71
g1935
sg64
(lp1942
g57
(g58
g59
NtRp1943
(dp1944
g62
(dp1945
g70
I3
ssg71
g1939
sg64
(lp1946
S'99'
p1947
asbasbasbag57
(g73
g59
NtRp1948
(dp1949
g62
(dp1950
sg71
g1919
sg64
(lp1951
g57
(g78
g59
NtRp1952
(dp1953
g62
(dp1954
sg71
g1948
sg64
(lp1955
g57
(g58
g59
NtRp1956
(dp1957
g62
(dp1958
g70
I3
ssg71
g1952
sg64
(lp1959
S'7'
asbasbasbag57
(g73
g59
NtRp1960
(dp1961
g62
(dp1962
sg71
g1919
sg64
(lp1963
g57
(g78
g59
NtRp1964
(dp1965
g62
(dp1966
sg71
g1960
sg64
(lp1967
g57
(g58
g59
NtRp1968
(dp1969
g62
(dp1970
g70
I3
ssg71
g1964
sg64
(lp1971
S'datetime.datetime(2012, 3, 4, 22, 12, 8)'
p1972
asbasbasbag57
(g73
g59
NtRp1973
(dp1974
g62
(dp1975
sg71
g1919
sg64
(lp1976
g57
(g78
g59
NtRp1977
(dp1978
g62
(dp1979
sg71
g1973
sg64
(lp1980
g57
(g58
g59
NtRp1981
(dp1982
g62
(dp1983
g70
I3
ssg71
g1977
sg64
(lp1984
g1374
asbasbasbasbasbasbasbasbasbasbasbag57
(g73
g59
NtRp1985
(dp1986
g62
(dp1987
sg71
g67
sg64
(lp1988
g57
(g78
g59
NtRp1989
(dp1990
g62
(dp1991
g82
g83
ssg71
g1985
sg64
(lp1992
S'is_https'
p1993
asbag57
(g78
g59
NtRp1994
(dp1995
g62
(dp1996
g89
g90
ssg71
g1985
sg64
(lp1997
S':'
asbag57
(g78
g59
NtRp1998
(dp1999
g62
(dp2000
sg71
g1985
sg64
(lp2001
g57
(g58
g59
NtRp2002
(dp2003
g62
(dp2004
g70
I5
ssg71
g1998
sg64
(lp2005
g100
asbasbasbag57
(g73
g59
NtRp2006
(dp2007
g62
(dp2008
sg71
g67
sg64
(lp2009
g57
(g78
g59
NtRp2010
(dp2011
g62
(dp2012
g82
g83
ssg71
g2006
sg64
(lp2013
S'is_local'
p2014
asbag57
(g78
g59
NtRp2015
(dp2016
g62
(dp2017
g89
g90
ssg71
g2006
sg64
(lp2018
S':'
asbag57
(g78
g59
NtRp2019
(dp2020
g62
(dp2021
sg71
g2006
sg64
(lp2022
g57
(g58
g59
NtRp2023
(dp2024
g62
(dp2025
g70
I5
ssg71
g2019
sg64
(lp2026
g1483
asbasbasbag57
(g73
g59
NtRp2027
(dp2028
g62
(dp2029
sg71
g67
sg64
(lp2030
g57
(g78
g59
NtRp2031
(dp2032
g62
(dp2033
g82
g83
ssg71
g2027
sg64
(lp2034
S'is_restful'
p2035
asbag57
(g78
g59
NtRp2036
(dp2037
g62
(dp2038
g89
g90
ssg71
g2027
sg64
(lp2039
S':'
asbag57
(g78
g59
NtRp2040
(dp2041
g62
(dp2042
sg71
g2027
sg64
(lp2043
g57
(g58
g59
NtRp2044
(dp2045
g62
(dp2046
g70
I5
ssg71
g2040
sg64
(lp2047
g100
asbasbasbag57
(g73
g59
NtRp2048
(dp2049
g62
(dp2050
sg71
g67
sg64
(lp2051
g57
(g78
g59
NtRp2052
(dp2053
g62
(dp2054
g82
g83
ssg71
g2048
sg64
(lp2055
S'now'
p2056
asbag57
(g78
g59
NtRp2057
(dp2058
g62
(dp2059
g89
g90
ssg71
g2048
sg64
(lp2060
S':'
asbag57
(g78
g59
NtRp2061
(dp2062
g62
(dp2063
sg71
g2048
sg64
(lp2064
g57
(g58
g59
NtRp2065
(dp2066
g62
(dp2067
g70
I5
ssg71
g2061
sg64
(lp2068
S'datetime.datetime(2012, 5, 20, 20, 9, 30, 264974)'
p2069
asbasbasbag57
(g73
g59
NtRp2070
(dp2071
g62
(dp2072
sg71
g67
sg64
(lp2073
g57
(g78
g59
NtRp2074
(dp2075
g62
(dp2076
g82
g83
ssg71
g2070
sg64
(lp2077
S'post_vars'
p2078
asbag57
(g78
g59
NtRp2079
(dp2080
g62
(dp2081
g89
g90
ssg71
g2070
sg64
(lp2082
S':'
asbag57
(g78
g59
NtRp2083
(dp2084
g62
(dp2085
sg71
g2070
sg64
(lp2086
g57
(g58
g59
NtRp2087
(dp2088
g62
(dp2089
g70
I5
ssg71
g2083
sg64
(lp2090
g57
(g66
g59
NtRp2091
(dp2092
g62
(dp2093
g70
I4
ssg71
Nsg64
(lp2094
sbasbasbasbag57
(g73
g59
NtRp2095
(dp2096
g62
(dp2097
sg71
g67
sg64
(lp2098
g57
(g78
g59
NtRp2099
(dp2100
g62
(dp2101
g82
g83
ssg71
g2095
sg64
(lp2102
S'raw_args'
p2103
asbag57
(g78
g59
NtRp2104
(dp2105
g62
(dp2106
g89
g90
ssg71
g2095
sg64
(lp2107
S':'
asbag57
(g78
g59
NtRp2108
(dp2109
g62
(dp2110
sg71
g2095
sg64
(lp2111
g57
(g58
g59
NtRp2112
(dp2113
g62
(dp2114
g70
I5
ssg71
g2108
sg64
(lp2115
S'2'
asbasbasbag57
(g73
g59
NtRp2116
(dp2117
g62
(dp2118
sg71
g67
sg64
(lp2119
g57
(g78
g59
NtRp2120
(dp2121
g62
(dp2122
g82
g83
ssg71
g2116
sg64
(lp2123
S'url'
p2124
asbag57
(g78
g59
NtRp2125
(dp2126
g62
(dp2127
g89
g90
ssg71
g2116
sg64
(lp2128
S':'
asbag57
(g78
g59
NtRp2129
(dp2130
g62
(dp2131
sg71
g2116
sg64
(lp2132
g57
(g58
g59
NtRp2133
(dp2134
g62
(dp2135
g70
I5
ssg71
g2129
sg64
(lp2136
S'/bigvotes/member/profile/2'
p2137
asbasbasbag57
(g73
g59
NtRp2138
(dp2139
g62
(dp2140
sg71
g67
sg64
(lp2141
g57
(g78
g59
NtRp2142
(dp2143
g62
(dp2144
g82
g83
ssg71
g2138
sg64
(lp2145
S'utcnow'
p2146
asbag57
(g78
g59
NtRp2147
(dp2148
g62
(dp2149
g89
g90
ssg71
g2138
sg64
(lp2150
S':'
asbag57
(g78
g59
NtRp2151
(dp2152
g62
(dp2153
sg71
g2138
sg64
(lp2154
g57
(g58
g59
NtRp2155
(dp2156
g62
(dp2157
g70
I5
ssg71
g2151
sg64
(lp2158
S'datetime.datetime(2012, 5, 20, 23, 9, 30, 265013)'
p2159
asbasbasbag57
(g73
g59
NtRp2160
(dp2161
g62
(dp2162
sg71
g67
sg64
(lp2163
g57
(g78
g59
NtRp2164
(dp2165
g62
(dp2166
g82
g83
ssg71
g2160
sg64
(lp2167
S'uuid'
p2168
asbag57
(g78
g59
NtRp2169
(dp2170
g62
(dp2171
g89
g90
ssg71
g2160
sg64
(lp2172
S':'
asbag57
(g78
g59
NtRp2173
(dp2174
g62
(dp2175
sg71
g2160
sg64
(lp2176
g57
(g58
g59
NtRp2177
(dp2178
g62
(dp2179
g70
I5
ssg71
g2173
sg64
(lp2180
S'bigvotes/127.0.0.1.2012-05-20.20-09-30.4c00f7b8-547e-4d6a-8a6d-359ab190ba27'
p2181
asbasbasbag57
(g73
g59
NtRp2182
(dp2183
g62
(dp2184
sg71
g67
sg64
(lp2185
g57
(g78
g59
NtRp2186
(dp2187
g62
(dp2188
g82
g83
ssg71
g2182
sg64
(lp2189
S'vars'
p2190
asbag57
(g78
g59
NtRp2191
(dp2192
g62
(dp2193
g89
g90
ssg71
g2182
sg64
(lp2194
S':'
asbag57
(g78
g59
NtRp2195
(dp2196
g62
(dp2197
sg71
g2182
sg64
(lp2198
g57
(g58
g59
NtRp2199
(dp2200
g62
(dp2201
g70
I5
ssg71
g2195
sg64
(lp2202
g57
(g66
g59
NtRp2203
(dp2204
g62
(dp2205
g70
I4
ssg71
Nsg64
(lp2206
sbasbasbasbag57
(g73
g59
NtRp2207
(dp2208
g62
(dp2209
sg71
g67
sg64
(lp2210
g57
(g78
g59
NtRp2211
(dp2212
g62
(dp2213
g82
g83
ssg71
g2207
sg64
(lp2214
S'wsgi'
p2215
asbag57
(g78
g59
NtRp2216
(dp2217
g62
(dp2218
g89
g90
ssg71
g2207
sg64
(lp2219
S':'
asbag57
(g78
g59
NtRp2220
(dp2221
g62
(dp2222
sg71
g2207
sg64
(lp2223
g57
(g58
g59
NtRp2224
(dp2225
g62
(dp2226
g70
I5
ssg71
g2220
sg64
(lp2227
g57
(g66
g59
NtRp2228
(dp2229
g62
(dp2230
g70
I4
ssg71
Nsg64
(lp2231
g57
(g73
g59
NtRp2232
(dp2233
g62
(dp2234
sg71
g2228
sg64
(lp2235
g57
(g78
g59
NtRp2236
(dp2237
g62
(dp2238
g82
g83
ssg71
g2232
sg64
(lp2239
S'environ'
p2240
asbag57
(g78
g59
NtRp2241
(dp2242
g62
(dp2243
g89
g90
ssg71
g2232
sg64
(lp2244
S':'
asbag57
(g78
g59
NtRp2245
(dp2246
g62
(dp2247
sg71
g2232
sg64
(lp2248
g57
(g58
g59
NtRp2249
(dp2250
g62
(dp2251
g70
I4
ssg71
g2245
sg64
(lp2252
g57
(g66
g59
NtRp2253
(dp2254
g62
(dp2255
g70
I3
ssg71
Nsg64
(lp2256
g57
(g73
g59
NtRp2257
(dp2258
g62
(dp2259
sg71
g2253
sg64
(lp2260
g57
(g78
g59
NtRp2261
(dp2262
g62
(dp2263
g82
g83
ssg71
g2257
sg64
(lp2264
S'HTTP_ACCEPT'
p2265
asbag57
(g78
g59
NtRp2266
(dp2267
g62
(dp2268
g89
g90
ssg71
g2257
sg64
(lp2269
S':'
asbag57
(g78
g59
NtRp2270
(dp2271
g62
(dp2272
sg71
g2257
sg64
(lp2273
g57
(g58
g59
NtRp2274
(dp2275
g62
(dp2276
g70
I3
ssg71
g2270
sg64
(lp2277
g830
asbasbasbag57
(g73
g59
NtRp2278
(dp2279
g62
(dp2280
sg71
g2253
sg64
(lp2281
g57
(g78
g59
NtRp2282
(dp2283
g62
(dp2284
g82
g83
ssg71
g2278
sg64
(lp2285
S'HTTP_ACCEPT_ENCODING'
p2286
asbag57
(g78
g59
NtRp2287
(dp2288
g62
(dp2289
g89
g90
ssg71
g2278
sg64
(lp2290
S':'
asbag57
(g78
g59
NtRp2291
(dp2292
g62
(dp2293
sg71
g2278
sg64
(lp2294
g57
(g58
g59
NtRp2295
(dp2296
g62
(dp2297
g70
I3
ssg71
g2291
sg64
(lp2298
g852
asbasbasbag57
(g73
g59
NtRp2299
(dp2300
g62
(dp2301
sg71
g2253
sg64
(lp2302
g57
(g78
g59
NtRp2303
(dp2304
g62
(dp2305
g82
g83
ssg71
g2299
sg64
(lp2306
S'HTTP_ACCEPT_LANGUAGE'
p2307
asbag57
(g78
g59
NtRp2308
(dp2309
g62
(dp2310
g89
g90
ssg71
g2299
sg64
(lp2311
S':'
asbag57
(g78
g59
NtRp2312
(dp2313
g62
(dp2314
sg71
g2299
sg64
(lp2315
g57
(g58
g59
NtRp2316
(dp2317
g62
(dp2318
g70
I3
ssg71
g2312
sg64
(lp2319
g874
asbasbasbag57
(g73
g59
NtRp2320
(dp2321
g62
(dp2322
sg71
g2253
sg64
(lp2323
g57
(g78
g59
NtRp2324
(dp2325
g62
(dp2326
g82
g83
ssg71
g2320
sg64
(lp2327
S'HTTP_CONNECTION'
p2328
asbag57
(g78
g59
NtRp2329
(dp2330
g62
(dp2331
g89
g90
ssg71
g2320
sg64
(lp2332
S':'
asbag57
(g78
g59
NtRp2333
(dp2334
g62
(dp2335
sg71
g2320
sg64
(lp2336
g57
(g58
g59
NtRp2337
(dp2338
g62
(dp2339
g70
I3
ssg71
g2333
sg64
(lp2340
g896
asbasbasbag57
(g73
g59
NtRp2341
(dp2342
g62
(dp2343
sg71
g2253
sg64
(lp2344
g57
(g78
g59
NtRp2345
(dp2346
g62
(dp2347
g82
g83
ssg71
g2341
sg64
(lp2348
S'HTTP_COOKIE'
p2349
asbag57
(g78
g59
NtRp2350
(dp2351
g62
(dp2352
g89
g90
ssg71
g2341
sg64
(lp2353
S':'
asbag57
(g78
g59
NtRp2354
(dp2355
g62
(dp2356
sg71
g2341
sg64
(lp2357
g57
(g58
g59
NtRp2358
(dp2359
g62
(dp2360
g70
I3
ssg71
g2354
sg64
(lp2361
g918
asbasbasbag57
(g73
g59
NtRp2362
(dp2363
g62
(dp2364
sg71
g2253
sg64
(lp2365
g57
(g78
g59
NtRp2366
(dp2367
g62
(dp2368
g82
g83
ssg71
g2362
sg64
(lp2369
S'HTTP_HOST'
p2370
asbag57
(g78
g59
NtRp2371
(dp2372
g62
(dp2373
g89
g90
ssg71
g2362
sg64
(lp2374
S':'
asbag57
(g78
g59
NtRp2375
(dp2376
g62
(dp2377
sg71
g2362
sg64
(lp2378
g57
(g58
g59
NtRp2379
(dp2380
g62
(dp2381
g70
I3
ssg71
g2375
sg64
(lp2382
g940
asbasbasbag57
(g73
g59
NtRp2383
(dp2384
g62
(dp2385
sg71
g2253
sg64
(lp2386
g57
(g78
g59
NtRp2387
(dp2388
g62
(dp2389
g82
g83
ssg71
g2383
sg64
(lp2390
S'HTTP_REFERER'
p2391
asbag57
(g78
g59
NtRp2392
(dp2393
g62
(dp2394
g89
g90
ssg71
g2383
sg64
(lp2395
S':'
asbag57
(g78
g59
NtRp2396
(dp2397
g62
(dp2398
sg71
g2383
sg64
(lp2399
g57
(g58
g59
NtRp2400
(dp2401
g62
(dp2402
g70
I3
ssg71
g2396
sg64
(lp2403
g962
asbasbasbag57
(g73
g59
NtRp2404
(dp2405
g62
(dp2406
sg71
g2253
sg64
(lp2407
g57
(g78
g59
NtRp2408
(dp2409
g62
(dp2410
g82
g83
ssg71
g2404
sg64
(lp2411
S'HTTP_USER_AGENT'
p2412
asbag57
(g78
g59
NtRp2413
(dp2414
g62
(dp2415
g89
g90
ssg71
g2404
sg64
(lp2416
S':'
asbag57
(g78
g59
NtRp2417
(dp2418
g62
(dp2419
sg71
g2404
sg64
(lp2420
g57
(g58
g59
NtRp2421
(dp2422
g62
(dp2423
g70
I3
ssg71
g2417
sg64
(lp2424
g984
asbasbasbag57
(g73
g59
NtRp2425
(dp2426
g62
(dp2427
sg71
g2253
sg64
(lp2428
g57
(g78
g59
NtRp2429
(dp2430
g62
(dp2431
g82
g83
ssg71
g2425
sg64
(lp2432
S'PATH_INFO'
p2433
asbag57
(g78
g59
NtRp2434
(dp2435
g62
(dp2436
g89
g90
ssg71
g2425
sg64
(lp2437
S':'
asbag57
(g78
g59
NtRp2438
(dp2439
g62
(dp2440
sg71
g2425
sg64
(lp2441
g57
(g58
g59
NtRp2442
(dp2443
g62
(dp2444
g70
I3
ssg71
g2438
sg64
(lp2445
g1048
asbasbasbag57
(g73
g59
NtRp2446
(dp2447
g62
(dp2448
sg71
g2253
sg64
(lp2449
g57
(g78
g59
NtRp2450
(dp2451
g62
(dp2452
g82
g83
ssg71
g2446
sg64
(lp2453
S'QUERY_STRING'
p2454
asbag57
(g78
g59
NtRp2455
(dp2456
g62
(dp2457
g89
g90
ssg71
g2446
sg64
(lp2458
S':'
asbag57
(g78
g59
NtRp2459
(dp2460
g62
(dp2461
sg71
g2446
sg64
(lp2462
g57
(g58
g59
NtRp2463
(dp2464
g62
(dp2465
g70
I3
ssg71
g2459
sg64
(lp2466
S''
asbasbasbag57
(g73
g59
NtRp2467
(dp2468
g62
(dp2469
sg71
g2253
sg64
(lp2470
g57
(g78
g59
NtRp2471
(dp2472
g62
(dp2473
g82
g83
ssg71
g2467
sg64
(lp2474
S'REMOTE_ADDR'
p2475
asbag57
(g78
g59
NtRp2476
(dp2477
g62
(dp2478
g89
g90
ssg71
g2467
sg64
(lp2479
S':'
asbag57
(g78
g59
NtRp2480
(dp2481
g62
(dp2482
sg71
g2467
sg64
(lp2483
g57
(g58
g59
NtRp2484
(dp2485
g62
(dp2486
g70
I3
ssg71
g2480
sg64
(lp2487
g202
asbasbasbag57
(g73
g59
NtRp2488
(dp2489
g62
(dp2490
sg71
g2253
sg64
(lp2491
g57
(g78
g59
NtRp2492
(dp2493
g62
(dp2494
g82
g83
ssg71
g2488
sg64
(lp2495
S'REMOTE_PORT'
p2496
asbag57
(g78
g59
NtRp2497
(dp2498
g62
(dp2499
g89
g90
ssg71
g2488
sg64
(lp2500
S':'
asbag57
(g78
g59
NtRp2501
(dp2502
g62
(dp2503
sg71
g2488
sg64
(lp2504
g57
(g58
g59
NtRp2505
(dp2506
g62
(dp2507
g70
I3
ssg71
g2501
sg64
(lp2508
g1112
asbasbasbag57
(g73
g59
NtRp2509
(dp2510
g62
(dp2511
sg71
g2253
sg64
(lp2512
g57
(g78
g59
NtRp2513
(dp2514
g62
(dp2515
g82
g83
ssg71
g2509
sg64
(lp2516
S'REQUEST_METHOD'
p2517
asbag57
(g78
g59
NtRp2518
(dp2519
g62
(dp2520
g89
g90
ssg71
g2509
sg64
(lp2521
S':'
asbag57
(g78
g59
NtRp2522
(dp2523
g62
(dp2524
sg71
g2509
sg64
(lp2525
g57
(g58
g59
NtRp2526
(dp2527
g62
(dp2528
g70
I3
ssg71
g2522
sg64
(lp2529
g1134
asbasbasbag57
(g73
g59
NtRp2530
(dp2531
g62
(dp2532
sg71
g2253
sg64
(lp2533
g57
(g78
g59
NtRp2534
(dp2535
g62
(dp2536
g82
g83
ssg71
g2530
sg64
(lp2537
S'SCRIPT_NAME'
p2538
asbag57
(g78
g59
NtRp2539
(dp2540
g62
(dp2541
g89
g90
ssg71
g2530
sg64
(lp2542
S':'
asbag57
(g78
g59
NtRp2543
(dp2544
g62
(dp2545
sg71
g2530
sg64
(lp2546
g57
(g58
g59
NtRp2547
(dp2548
g62
(dp2549
g70
I3
ssg71
g2543
sg64
(lp2550
S''
asbasbasbag57
(g73
g59
NtRp2551
(dp2552
g62
(dp2553
sg71
g2253
sg64
(lp2554
g57
(g78
g59
NtRp2555
(dp2556
g62
(dp2557
g82
g83
ssg71
g2551
sg64
(lp2558
S'SERVER_NAME'
p2559
asbag57
(g78
g59
NtRp2560
(dp2561
g62
(dp2562
g89
g90
ssg71
g2551
sg64
(lp2563
S':'
asbag57
(g78
g59
NtRp2564
(dp2565
g62
(dp2566
sg71
g2551
sg64
(lp2567
g57
(g58
g59
NtRp2568
(dp2569
g62
(dp2570
g70
I3
ssg71
g2564
sg64
(lp2571
g1177
asbasbasbag57
(g73
g59
NtRp2572
(dp2573
g62
(dp2574
sg71
g2253
sg64
(lp2575
g57
(g78
g59
NtRp2576
(dp2577
g62
(dp2578
g82
g83
ssg71
g2572
sg64
(lp2579
S'SERVER_PORT'
p2580
asbag57
(g78
g59
NtRp2581
(dp2582
g62
(dp2583
g89
g90
ssg71
g2572
sg64
(lp2584
S':'
asbag57
(g78
g59
NtRp2585
(dp2586
g62
(dp2587
sg71
g2572
sg64
(lp2588
g57
(g58
g59
NtRp2589
(dp2590
g62
(dp2591
g70
I3
ssg71
g2585
sg64
(lp2592
g1199
asbasbasbag57
(g73
g59
NtRp2593
(dp2594
g62
(dp2595
sg71
g2253
sg64
(lp2596
g57
(g78
g59
NtRp2597
(dp2598
g62
(dp2599
g82
g83
ssg71
g2593
sg64
(lp2600
S'SERVER_PROTOCOL'
p2601
asbag57
(g78
g59
NtRp2602
(dp2603
g62
(dp2604
g89
g90
ssg71
g2593
sg64
(lp2605
S':'
asbag57
(g78
g59
NtRp2606
(dp2607
g62
(dp2608
sg71
g2593
sg64
(lp2609
g57
(g58
g59
NtRp2610
(dp2611
g62
(dp2612
g70
I3
ssg71
g2606
sg64
(lp2613
g1221
asbasbasbag57
(g73
g59
NtRp2614
(dp2615
g62
(dp2616
sg71
g2253
sg64
(lp2617
g57
(g78
g59
NtRp2618
(dp2619
g62
(dp2620
g82
g83
ssg71
g2614
sg64
(lp2621
S'SERVER_SOFTWARE'
p2622
asbag57
(g78
g59
NtRp2623
(dp2624
g62
(dp2625
g89
g90
ssg71
g2614
sg64
(lp2626
S':'
asbag57
(g78
g59
NtRp2627
(dp2628
g62
(dp2629
sg71
g2614
sg64
(lp2630
g57
(g58
g59
NtRp2631
(dp2632
g62
(dp2633
g70
I3
ssg71
g2627
sg64
(lp2634
g1243
asbasbasbag57
(g73
g59
NtRp2635
(dp2636
g62
(dp2637
sg71
g2253
sg64
(lp2638
g57
(g78
g59
NtRp2639
(dp2640
g62
(dp2641
g82
g83
ssg71
g2635
sg64
(lp2642
S'wsgi.errors'
p2643
asbag57
(g78
g59
NtRp2644
(dp2645
g62
(dp2646
g89
g90
ssg71
g2635
sg64
(lp2647
S':'
asbag57
(g78
g59
NtRp2648
(dp2649
g62
(dp2650
sg71
g2635
sg64
(lp2651
g57
(g58
g59
NtRp2652
(dp2653
g62
(dp2654
g70
I3
ssg71
g2648
sg64
(lp2655
S"<open file '<stderr>', mode 'w' at 0xb78af0d0>"
p2656
asbasbasbag57
(g73
g59
NtRp2657
(dp2658
g62
(dp2659
sg71
g2253
sg64
(lp2660
g57
(g78
g59
NtRp2661
(dp2662
g62
(dp2663
g82
g83
ssg71
g2657
sg64
(lp2664
S'wsgi.file_wrapper'
p2665
asbag57
(g78
g59
NtRp2666
(dp2667
g62
(dp2668
g89
g90
ssg71
g2657
sg64
(lp2669
S':'
asbag57
(g78
g59
NtRp2670
(dp2671
g62
(dp2672
sg71
g2657
sg64
(lp2673
g57
(g58
g59
NtRp2674
(dp2675
g62
(dp2676
g70
I3
ssg71
g2670
sg64
(lp2677
S'<class wsgiref.util.FileWrapper at 0x8e23d7c>'
p2678
asbasbasbag57
(g73
g59
NtRp2679
(dp2680
g62
(dp2681
sg71
g2253
sg64
(lp2682
g57
(g78
g59
NtRp2683
(dp2684
g62
(dp2685
g82
g83
ssg71
g2679
sg64
(lp2686
S'wsgi.input'
p2687
asbag57
(g78
g59
NtRp2688
(dp2689
g62
(dp2690
g89
g90
ssg71
g2679
sg64
(lp2691
S':'
asbag57
(g78
g59
NtRp2692
(dp2693
g62
(dp2694
sg71
g2679
sg64
(lp2695
g57
(g58
g59
NtRp2696
(dp2697
g62
(dp2698
g70
I3
ssg71
g2692
sg64
(lp2699
S'<cStringIO.StringO object at 0xb040fb20>'
p2700
asbasbasbag57
(g73
g59
NtRp2701
(dp2702
g62
(dp2703
sg71
g2253
sg64
(lp2704
g57
(g78
g59
NtRp2705
(dp2706
g62
(dp2707
g82
g83
ssg71
g2701
sg64
(lp2708
S'wsgi.multiprocess'
p2709
asbag57
(g78
g59
NtRp2710
(dp2711
g62
(dp2712
g89
g90
ssg71
g2701
sg64
(lp2713
S':'
asbag57
(g78
g59
NtRp2714
(dp2715
g62
(dp2716
sg71
g2701
sg64
(lp2717
g57
(g58
g59
NtRp2718
(dp2719
g62
(dp2720
g70
I3
ssg71
g2714
sg64
(lp2721
g100
asbasbasbag57
(g73
g59
NtRp2722
(dp2723
g62
(dp2724
sg71
g2253
sg64
(lp2725
g57
(g78
g59
NtRp2726
(dp2727
g62
(dp2728
g82
g83
ssg71
g2722
sg64
(lp2729
S'wsgi.multithread'
p2730
asbag57
(g78
g59
NtRp2731
(dp2732
g62
(dp2733
g89
g90
ssg71
g2722
sg64
(lp2734
S':'
asbag57
(g78
g59
NtRp2735
(dp2736
g62
(dp2737
sg71
g2722
sg64
(lp2738
g57
(g58
g59
NtRp2739
(dp2740
g62
(dp2741
g70
I3
ssg71
g2735
sg64
(lp2742
g1483
asbasbasbag57
(g73
g59
NtRp2743
(dp2744
g62
(dp2745
sg71
g2253
sg64
(lp2746
g57
(g78
g59
NtRp2747
(dp2748
g62
(dp2749
g82
g83
ssg71
g2743
sg64
(lp2750
S'wsgi.run_once'
p2751
asbag57
(g78
g59
NtRp2752
(dp2753
g62
(dp2754
g89
g90
ssg71
g2743
sg64
(lp2755
S':'
asbag57
(g78
g59
NtRp2756
(dp2757
g62
(dp2758
sg71
g2743
sg64
(lp2759
g57
(g58
g59
NtRp2760
(dp2761
g62
(dp2762
g70
I3
ssg71
g2756
sg64
(lp2763
g100
asbasbasbag57
(g73
g59
NtRp2764
(dp2765
g62
(dp2766
sg71
g2253
sg64
(lp2767
g57
(g78
g59
NtRp2768
(dp2769
g62
(dp2770
g82
g83
ssg71
g2764
sg64
(lp2771
S'wsgi.url_scheme'
p2772
asbag57
(g78
g59
NtRp2773
(dp2774
g62
(dp2775
g89
g90
ssg71
g2764
sg64
(lp2776
S':'
asbag57
(g78
g59
NtRp2777
(dp2778
g62
(dp2779
sg71
g2764
sg64
(lp2780
g57
(g58
g59
NtRp2781
(dp2782
g62
(dp2783
g70
I3
ssg71
g2777
sg64
(lp2784
g1526
asbasbasbag57
(g73
g59
NtRp2785
(dp2786
g62
(dp2787
sg71
g2253
sg64
(lp2788
g57
(g78
g59
NtRp2789
(dp2790
g62
(dp2791
g82
g83
ssg71
g2785
sg64
(lp2792
S'wsgi.version'
p2793
asbag57
(g78
g59
NtRp2794
(dp2795
g62
(dp2796
g89
g90
ssg71
g2785
sg64
(lp2797
S':'
asbag57
(g78
g59
NtRp2798
(dp2799
g62
(dp2800
sg71
g2785
sg64
(lp2801
g57
(g58
g59
NtRp2802
(dp2803
g62
(dp2804
g70
I3
ssg71
g2798
sg64
(lp2805
S'1'
asbasbasbasbasbasbasbasbasbasbasbasbasbsS'frames'
p2806
(lp2807
(dp2808
S'file'
p2809
S'/home/kaique/Projects/web/big-votes/web2py/gluon/restricted.py'
p2810
sS'dump'
p2811
(dp2812
S'environment'
p2813
S"{'A': <class 'gluon.html.A'>, 'Auth': <class 'gluon.tools.Auth'>, 'B': <class 'gluon.html.B'>, 'BEAUTIFY': <class 'gluon.html.BEAUTIFY'>, 'BODY': <class 'gluon.html.BODY'>, 'BR': <class 'gluon.html.BR'>, 'BUTTON': <class 'gluon.html.BUTTON'>, 'CAT': <class 'gluon.html.CAT'>, 'CENTER': <class 'gluon.html.CENTER'>, 'CLEANUP': <class 'gluon.validators.CLEANUP'>, ...}"
p2814
sS'ccode'
p2815
S'<code object <module> at 0x8e84578, file "/home/...ications/bigvotes/controllers/member.py", line 2>'
p2816
ssS'lnum'
p2817
I205
sS'lines'
p2818
(dp2819
I200
S'    try:'
p2820
sI201
S'        if type(code) == types.CodeType:'
p2821
sI202
S'            ccode = code'
p2822
sI203
S'        else:'
p2823
sI204
S'            ccode = compile2(code,layer)'
p2824
sI205
S'        exec ccode in environment'
p2825
sI206
S'    except HTTP:'
p2826
sI207
S'        raise'
p2827
sI208
S'    except RestrictedError:'
p2828
sI209
S'        # do not encapsulate (obfuscate) the original RestrictedError'
p2829
ssS'call'
p2830
S"(code='# -*- coding: utf-8 -*-\\nfrom bigvotes import Mem...bers\\n\\t}\\nresponse._vars=response._caller(profile)\\n', environment={'A': <class 'gluon.html.A'>, 'Auth': <class 'gluon.tools.Auth'>, 'B': <class 'gluon.html.B'>, 'BEAUTIFY': <class 'gluon.html.BEAUTIFY'>, 'BODY': <class 'gluon.html.BODY'>, 'BR': <class 'gluon.html.BR'>, 'BUTTON': <class 'gluon.html.BUTTON'>, 'CAT': <class 'gluon.html.CAT'>, 'CENTER': <class 'gluon.html.CENTER'>, 'CLEANUP': <class 'gluon.validators.CLEANUP'>, ...}, layer='/home/kaique/Projects/web/big-votes/web2py/applications/bigvotes/controllers/member.py')"
p2831
sS'func'
p2832
S'restricted'
p2833
sa(dp2834
g2809
S'/home/kaique/Projects/web/big-votes/web2py/applications/bigvotes/controllers/member.py'
p2835
sg2811
(dp2836
sg2817
I31
sg2818
(dp2837
I21
S'\treturn {'
p2838
sI22
S"\t\t'member': member"
p2839
sI23
S'\t}'
p2840
sI24
S''
sI25
S'def eliminated():'
p2841
sI26
S"\tmembers = Members(db).getBy(status = 'deactive')"
p2842
sI27
S''
sI28
S'\treturn {'
p2843
sI29
S"\t\t'members': members"
p2844
sI30
S'\t}'
p2845
ssg2830
S'()'
p2846
sg2832
S'<module>'
p2847
sa(dp2848
g2809
S'/home/kaique/Projects/web/big-votes/web2py/gluon/globals.py'
p2849
sg2811
(dp2850
S'self'
p2851
S'undefined'
p2852
sS'f'
S'<function profile>'
p2853
ssg2817
I173
sg2818
(dp2854
I168
S'        self.menu = []             # used by the default view layout'
p2855
sI169
S'        self.files = []            # used by web2py_ajax.html'
p2856
sI170
S'        self.generic_patterns = [] # patterns to allow generic views'
p2857
sI171
S"        self.delimiters = ('{{','}}')"
p2858
sI172
S'        self._vars = None'
p2859
sI173
S'        self._caller = lambda f: f()'
p2860
sI174
S'        self._view_environment = None'
p2861
sI175
S'        self._custom_commit = None'
p2862
sI176
S'        self._custom_rollback = None'
p2863
sI177
S''
ssg2830
S'(f=<function profile>)'
p2864
sg2832
S'<lambda>'
p2865
sa(dp2866
g2809
S'/home/kaique/Projects/web/big-votes/web2py/applications/bigvotes/controllers/member.py'
p2867
sg2811
(dp2868
S'global db'
p2869
S"<DAL {'auth_event': <Table {'origin': <gluon.dal..._key': <gluon.dal.Field object at 0xb040f80c>}>}>"
p2870
sS'db.member'
p2871
S"<Table {'_db': <DAL {'auth_event': <Table {'orig..., '_id': <gluon.dal.Field object at 0xb60e6dcc>}>"
p2872
sS'db.member.status'
p2873
S'<gluon.dal.Field object>'
p2874
ssg2817
I18
sg2818
(dp2875
I13
S'\tmember = Members(db)'
p2876
sI14
S''
sI15
S'\tif len( args ) > 0:'
p2877
sI16
S'\t\tmember = db('
p2878
sI17
S'\t\t\tdb.member.id == int( args[0] ) &'
p2879
sI18
S"\t\t\tdb.member.status == 'active'"
p2880
sI19
S'\t\t).select().first()'
p2881
sI20
S''
sI21
S'\treturn {'
p2882
sI22
S"\t\t'member': member"
p2883
ssg2830
S'()'
p2884
sg2832
S'profile'
p2885
sasS'pyver'
p2886
S'Python 2.7.3: /home/kaique/Projects/web/big-votes/bin/python'
p2887
sS'session'
p2888
g57
(g58
g59
NtRp2889
(dp2890
g62
(dp2891
sg64
(lp2892
g57
(g66
g59
NtRp2893
(dp2894
g62
(dp2895
g70
I5
ssg71
Nsg64
(lp2896
g57
(g73
g59
NtRp2897
(dp2898
g62
(dp2899
sg71
g2893
sg64
(lp2900
g57
(g78
g59
NtRp2901
(dp2902
g62
(dp2903
g82
g83
ssg71
g2897
sg64
(lp2904
S'last_query'
p2905
asbag57
(g78
g59
NtRp2906
(dp2907
g62
(dp2908
g89
g90
ssg71
g2897
sg64
(lp2909
S':'
asbag57
(g78
g59
NtRp2910
(dp2911
g62
(dp2912
sg71
g2897
sg64
(lp2913
g57
(g58
g59
NtRp2914
(dp2915
g62
(dp2916
g70
I5
ssg71
g2910
sg64
(lp2917
S'db.member.id==1'
p2918
asbasbasbasbasbsS'etype'
p2919
S"<type 'exceptions.TypeError'>"
p2920
sS'date'
p2921
S'Sun May 20 20:09:30 2012'
p2922
sS'response'
p2923
g57
(g58
g59
NtRp2924
(dp2925
g62
(dp2926
sg64
(lp2927
g57
(g66
g59
NtRp2928
(dp2929
g62
(dp2930
g70
I5
ssg71
Nsg64
(lp2931
g57
(g73
g59
NtRp2932
(dp2933
g62
(dp2934
sg71
g2928
sg64
(lp2935
g57
(g78
g59
NtRp2936
(dp2937
g62
(dp2938
g82
g83
ssg71
g2932
sg64
(lp2939
g167
asbag57
(g78
g59
NtRp2940
(dp2941
g62
(dp2942
g89
g90
ssg71
g2932
sg64
(lp2943
S':'
asbag57
(g78
g59
NtRp2944
(dp2945
g62
(dp2946
sg71
g2932
sg64
(lp2947
g57
(g58
g59
NtRp2948
(dp2949
g62
(dp2950
g70
I5
ssg71
g2944
sg64
(lp2951
S'<cStringIO.StringO object at 0xb0418600>'
p2952
asbasbasbag57
(g73
g59
NtRp2953
(dp2954
g62
(dp2955
sg71
g2928
sg64
(lp2956
g57
(g78
g59
NtRp2957
(dp2958
g62
(dp2959
g82
g83
ssg71
g2953
sg64
(lp2960
g233
asbag57
(g78
g59
NtRp2961
(dp2962
g62
(dp2963
g89
g90
ssg71
g2953
sg64
(lp2964
S':'
asbag57
(g78
g59
NtRp2965
(dp2966
g62
(dp2967
sg71
g2953
sg64
(lp2968
g57
(g58
g59
NtRp2969
(dp2970
g62
(dp2971
g70
I5
ssg71
g2965
sg64
(lp2972
g57
(g66
g59
NtRp2973
(dp2974
g62
(dp2975
g70
I4
ssg71
Nsg64
(lp2976
g57
(g73
g59
NtRp2977
(dp2978
g62
(dp2979
sg71
g2973
sg64
(lp2980
g57
(g78
g59
NtRp2981
(dp2982
g62
(dp2983
g82
g83
ssg71
g2977
sg64
(lp2984
S'session_id_bigvotes'
p2985
asbag57
(g78
g59
NtRp2986
(dp2987
g62
(dp2988
g89
g90
ssg71
g2977
sg64
(lp2989
S':'
asbag57
(g78
g59
NtRp2990
(dp2991
g62
(dp2992
sg71
g2977
sg64
(lp2993
g57
(g58
g59
NtRp2994
(dp2995
g62
(dp2996
g70
I4
ssg71
g2990
sg64
(lp2997
g57
(g66
g59
NtRp2998
(dp2999
g62
(dp3000
g70
I3
ssg71
Nsg64
(lp3001
g57
(g73
g59
NtRp3002
(dp3003
g62
(dp3004
sg71
g2998
sg64
(lp3005
g57
(g78
g59
NtRp3006
(dp3007
g62
(dp3008
g82
g83
ssg71
g3002
sg64
(lp3009
g283
asbag57
(g78
g59
NtRp3010
(dp3011
g62
(dp3012
g89
g90
ssg71
g3002
sg64
(lp3013
S':'
asbag57
(g78
g59
NtRp3014
(dp3015
g62
(dp3016
sg71
g3002
sg64
(lp3017
g57
(g58
g59
NtRp3018
(dp3019
g62
(dp3020
g70
I3
ssg71
g3014
sg64
(lp3021
S''
asbasbasbag57
(g73
g59
NtRp3022
(dp3023
g62
(dp3024
sg71
g2998
sg64
(lp3025
g57
(g78
g59
NtRp3026
(dp3027
g62
(dp3028
g82
g83
ssg71
g3022
sg64
(lp3029
g304
asbag57
(g78
g59
NtRp3030
(dp3031
g62
(dp3032
g89
g90
ssg71
g3022
sg64
(lp3033
S':'
asbag57
(g78
g59
NtRp3034
(dp3035
g62
(dp3036
sg71
g3022
sg64
(lp3037
g57
(g58
g59
NtRp3038
(dp3039
g62
(dp3040
g70
I3
ssg71
g3034
sg64
(lp3041
S''
asbasbasbag57
(g73
g59
NtRp3042
(dp3043
g62
(dp3044
sg71
g2998
sg64
(lp3045
g57
(g78
g59
NtRp3046
(dp3047
g62
(dp3048
g82
g83
ssg71
g3042
sg64
(lp3049
g325
asbag57
(g78
g59
NtRp3050
(dp3051
g62
(dp3052
g89
g90
ssg71
g3042
sg64
(lp3053
S':'
asbag57
(g78
g59
NtRp3054
(dp3055
g62
(dp3056
sg71
g3042
sg64
(lp3057
g57
(g58
g59
NtRp3058
(dp3059
g62
(dp3060
g70
I3
ssg71
g3054
sg64
(lp3061
S''
asbasbasbag57
(g73
g59
NtRp3062
(dp3063
g62
(dp3064
sg71
g2998
sg64
(lp3065
g57
(g78
g59
NtRp3066
(dp3067
g62
(dp3068
g82
g83
ssg71
g3062
sg64
(lp3069
g346
asbag57
(g78
g59
NtRp3070
(dp3071
g62
(dp3072
g89
g90
ssg71
g3062
sg64
(lp3073
S':'
asbag57
(g78
g59
NtRp3074
(dp3075
g62
(dp3076
sg71
g3062
sg64
(lp3077
g57
(g58
g59
NtRp3078
(dp3079
g62
(dp3080
g70
I3
ssg71
g3074
sg64
(lp3081
S''
asbasbasbag57
(g73
g59
NtRp3082
(dp3083
g62
(dp3084
sg71
g2998
sg64
(lp3085
g57
(g78
g59
NtRp3086
(dp3087
g62
(dp3088
g82
g83
ssg71
g3082
sg64
(lp3089
g367
asbag57
(g78
g59
NtRp3090
(dp3091
g62
(dp3092
g89
g90
ssg71
g3082
sg64
(lp3093
S':'
asbag57
(g78
g59
NtRp3094
(dp3095
g62
(dp3096
sg71
g3082
sg64
(lp3097
g57
(g58
g59
NtRp3098
(dp3099
g62
(dp3100
g70
I3
ssg71
g3094
sg64
(lp3101
S''
asbasbasbag57
(g73
g59
NtRp3102
(dp3103
g62
(dp3104
sg71
g2998
sg64
(lp3105
g57
(g78
g59
NtRp3106
(dp3107
g62
(dp3108
g82
g83
ssg71
g3102
sg64
(lp3109
g388
asbag57
(g78
g59
NtRp3110
(dp3111
g62
(dp3112
g89
g90
ssg71
g3102
sg64
(lp3113
S':'
asbag57
(g78
g59
NtRp3114
(dp3115
g62
(dp3116
sg71
g3102
sg64
(lp3117
g57
(g58
g59
NtRp3118
(dp3119
g62
(dp3120
g70
I3
ssg71
g3114
sg64
(lp3121
S'/'
asbasbasbag57
(g73
g59
NtRp3122
(dp3123
g62
(dp3124
sg71
g2998
sg64
(lp3125
g57
(g78
g59
NtRp3126
(dp3127
g62
(dp3128
g82
g83
ssg71
g3122
sg64
(lp3129
g409
asbag57
(g78
g59
NtRp3130
(dp3131
g62
(dp3132
g89
g90
ssg71
g3122
sg64
(lp3133
S':'
asbag57
(g78
g59
NtRp3134
(dp3135
g62
(dp3136
sg71
g3122
sg64
(lp3137
g57
(g58
g59
NtRp3138
(dp3139
g62
(dp3140
g70
I3
ssg71
g3134
sg64
(lp3141
S''
asbasbasbag57
(g73
g59
NtRp3142
(dp3143
g62
(dp3144
sg71
g2998
sg64
(lp3145
g57
(g78
g59
NtRp3146
(dp3147
g62
(dp3148
g82
g83
ssg71
g3142
sg64
(lp3149
g430
asbag57
(g78
g59
NtRp3150
(dp3151
g62
(dp3152
g89
g90
ssg71
g3142
sg64
(lp3153
S':'
asbag57
(g78
g59
NtRp3154
(dp3155
g62
(dp3156
sg71
g3142
sg64
(lp3157
g57
(g58
g59
NtRp3158
(dp3159
g62
(dp3160
g70
I3
ssg71
g3154
sg64
(lp3161
S''
asbasbasbasbasbasbasbasbasbasbasbag57
(g73
g59
NtRp3162
(dp3163
g62
(dp3164
sg71
g2928
sg64
(lp3165
g57
(g78
g59
NtRp3166
(dp3167
g62
(dp3168
g82
g83
ssg71
g3162
sg64
(lp3169
S'delimiters'
p3170
asbag57
(g78
g59
NtRp3171
(dp3172
g62
(dp3173
g89
g90
ssg71
g3162
sg64
(lp3174
S':'
asbag57
(g78
g59
NtRp3175
(dp3176
g62
(dp3177
sg71
g3162
sg64
(lp3178
g57
(g58
g59
NtRp3179
(dp3180
g62
(dp3181
g70
I5
ssg71
g3175
sg64
(lp3182
g57
(g66
g59
NtRp3183
(dp3184
g62
(dp3185
g70
I4
ssg71
Nsg64
(lp3186
g57
(g73
g59
NtRp3187
(dp3188
g62
(dp3189
sg71
g3183
sg64
(lp3190
g57
(g78
g59
NtRp3191
(dp3192
g62
(dp3193
sg71
g3187
sg64
(lp3194
g57
(g58
g59
NtRp3195
(dp3196
g62
(dp3197
g70
I4
ssg71
g3191
sg64
(lp3198
S'{{'
p3199
asbasbasbag57
(g73
g59
NtRp3200
(dp3201
g62
(dp3202
sg71
g3183
sg64
(lp3203
g57
(g78
g59
NtRp3204
(dp3205
g62
(dp3206
sg71
g3200
sg64
(lp3207
g57
(g58
g59
NtRp3208
(dp3209
g62
(dp3210
g70
I4
ssg71
g3204
sg64
(lp3211
S'}}'
p3212
asbasbasbasbasbasbasbag57
(g73
g59
NtRp3213
(dp3214
g62
(dp3215
sg71
g2928
sg64
(lp3216
g57
(g78
g59
NtRp3217
(dp3218
g62
(dp3219
g82
g83
ssg71
g3213
sg64
(lp3220
S'files'
p3221
asbag57
(g78
g59
NtRp3222
(dp3223
g62
(dp3224
g89
g90
ssg71
g3213
sg64
(lp3225
S':'
asbag57
(g78
g59
NtRp3226
(dp3227
g62
(dp3228
sg71
g3213
sg64
(lp3229
g57
(g58
g59
NtRp3230
(dp3231
g62
(dp3232
g70
I5
ssg71
g3226
sg64
(lp3233
g57
(g66
g59
NtRp3234
(dp3235
g62
(dp3236
g70
I4
ssg71
Nsg64
(lp3237
sbasbasbasbag57
(g73
g59
NtRp3238
(dp3239
g62
(dp3240
sg71
g2928
sg64
(lp3241
g57
(g78
g59
NtRp3242
(dp3243
g62
(dp3244
g82
g83
ssg71
g3238
sg64
(lp3245
S'flash'
p3246
asbag57
(g78
g59
NtRp3247
(dp3248
g62
(dp3249
g89
g90
ssg71
g3238
sg64
(lp3250
S':'
asbag57
(g78
g59
NtRp3251
(dp3252
g62
(dp3253
sg71
g3238
sg64
(lp3254
g57
(g58
g59
NtRp3255
(dp3256
g62
(dp3257
g70
I5
ssg71
g3251
sg64
(lp3258
S''
asbasbasbag57
(g73
g59
NtRp3259
(dp3260
g62
(dp3261
sg71
g2928
sg64
(lp3262
g57
(g78
g59
NtRp3263
(dp3264
g62
(dp3265
g82
g83
ssg71
g3259
sg64
(lp3266
S'generic_patterns'
p3267
asbag57
(g78
g59
NtRp3268
(dp3269
g62
(dp3270
g89
g90
ssg71
g3259
sg64
(lp3271
S':'
asbag57
(g78
g59
NtRp3272
(dp3273
g62
(dp3274
sg71
g3259
sg64
(lp3275
g57
(g58
g59
NtRp3276
(dp3277
g62
(dp3278
g70
I5
ssg71
g3272
sg64
(lp3279
g57
(g66
g59
NtRp3280
(dp3281
g62
(dp3282
g70
I4
ssg71
Nsg64
(lp3283
g57
(g73
g59
NtRp3284
(dp3285
g62
(dp3286
sg71
g3280
sg64
(lp3287
g57
(g78
g59
NtRp3288
(dp3289
g62
(dp3290
sg71
g3284
sg64
(lp3291
g57
(g58
g59
NtRp3292
(dp3293
g62
(dp3294
g70
I4
ssg71
g3288
sg64
(lp3295
S'*'
asbasbasbasbasbasbasbag57
(g73
g59
NtRp3296
(dp3297
g62
(dp3298
sg71
g2928
sg64
(lp3299
g57
(g78
g59
NtRp3300
(dp3301
g62
(dp3302
g82
g83
ssg71
g3296
sg64
(lp3303
S'headers'
p3304
asbag57
(g78
g59
NtRp3305
(dp3306
g62
(dp3307
g89
g90
ssg71
g3296
sg64
(lp3308
S':'
asbag57
(g78
g59
NtRp3309
(dp3310
g62
(dp3311
sg71
g3296
sg64
(lp3312
g57
(g58
g59
NtRp3313
(dp3314
g62
(dp3315
g70
I5
ssg71
g3309
sg64
(lp3316
g57
(g66
g59
NtRp3317
(dp3318
g62
(dp3319
g70
I4
ssg71
Nsg64
(lp3320
g57
(g73
g59
NtRp3321
(dp3322
g62
(dp3323
sg71
g3317
sg64
(lp3324
g57
(g78
g59
NtRp3325
(dp3326
g62
(dp3327
g82
g83
ssg71
g3321
sg64
(lp3328
S'Cache-Control'
p3329
asbag57
(g78
g59
NtRp3330
(dp3331
g62
(dp3332
g89
g90
ssg71
g3321
sg64
(lp3333
S':'
asbag57
(g78
g59
NtRp3334
(dp3335
g62
(dp3336
sg71
g3321
sg64
(lp3337
g57
(g58
g59
NtRp3338
(dp3339
g62
(dp3340
g70
I4
ssg71
g3334
sg64
(lp3341
S'no-store, no-cache, must-revalidate, post-check=0, pre-check=0'
p3342
asbasbasbag57
(g73
g59
NtRp3343
(dp3344
g62
(dp3345
sg71
g3317
sg64
(lp3346
g57
(g78
g59
NtRp3347
(dp3348
g62
(dp3349
g82
g83
ssg71
g3343
sg64
(lp3350
S'Content-Type'
p3351
asbag57
(g78
g59
NtRp3352
(dp3353
g62
(dp3354
g89
g90
ssg71
g3343
sg64
(lp3355
S':'
asbag57
(g78
g59
NtRp3356
(dp3357
g62
(dp3358
sg71
g3343
sg64
(lp3359
g57
(g58
g59
NtRp3360
(dp3361
g62
(dp3362
g70
I4
ssg71
g3356
sg64
(lp3363
S'text/html; charset=utf-8'
p3364
asbasbasbag57
(g73
g59
NtRp3365
(dp3366
g62
(dp3367
sg71
g3317
sg64
(lp3368
g57
(g78
g59
NtRp3369
(dp3370
g62
(dp3371
g82
g83
ssg71
g3365
sg64
(lp3372
S'Expires'
p3373
asbag57
(g78
g59
NtRp3374
(dp3375
g62
(dp3376
g89
g90
ssg71
g3365
sg64
(lp3377
S':'
asbag57
(g78
g59
NtRp3378
(dp3379
g62
(dp3380
sg71
g3365
sg64
(lp3381
g57
(g58
g59
NtRp3382
(dp3383
g62
(dp3384
g70
I4
ssg71
g3378
sg64
(lp3385
S'Sun, 20 May 2012 23:09:30 GMT'
p3386
asbasbasbag57
(g73
g59
NtRp3387
(dp3388
g62
(dp3389
sg71
g3317
sg64
(lp3390
g57
(g78
g59
NtRp3391
(dp3392
g62
(dp3393
g82
g83
ssg71
g3387
sg64
(lp3394
S'Pragma'
p3395
asbag57
(g78
g59
NtRp3396
(dp3397
g62
(dp3398
g89
g90
ssg71
g3387
sg64
(lp3399
S':'
asbag57
(g78
g59
NtRp3400
(dp3401
g62
(dp3402
sg71
g3387
sg64
(lp3403
g57
(g58
g59
NtRp3404
(dp3405
g62
(dp3406
g70
I4
ssg71
g3400
sg64
(lp3407
S'no-cache'
p3408
asbasbasbag57
(g73
g59
NtRp3409
(dp3410
g62
(dp3411
sg71
g3317
sg64
(lp3412
g57
(g78
g59
NtRp3413
(dp3414
g62
(dp3415
g82
g83
ssg71
g3409
sg64
(lp3416
S'X-Powered-By'
p3417
asbag57
(g78
g59
NtRp3418
(dp3419
g62
(dp3420
g89
g90
ssg71
g3409
sg64
(lp3421
S':'
asbag57
(g78
g59
NtRp3422
(dp3423
g62
(dp3424
sg71
g3409
sg64
(lp3425
g57
(g58
g59
NtRp3426
(dp3427
g62
(dp3428
g70
I4
ssg71
g3422
sg64
(lp3429
S'web2py'
p3430
asbasbasbasbasbasbasbag57
(g73
g59
NtRp3431
(dp3432
g62
(dp3433
sg71
g2928
sg64
(lp3434
g57
(g78
g59
NtRp3435
(dp3436
g62
(dp3437
g82
g83
ssg71
g3431
sg64
(lp3438
S'menu'
p3439
asbag57
(g78
g59
NtRp3440
(dp3441
g62
(dp3442
g89
g90
ssg71
g3431
sg64
(lp3443
S':'
asbag57
(g78
g59
NtRp3444
(dp3445
g62
(dp3446
sg71
g3431
sg64
(lp3447
g57
(g58
g59
NtRp3448
(dp3449
g62
(dp3450
g70
I5
ssg71
g3444
sg64
(lp3451
g57
(g66
g59
NtRp3452
(dp3453
g62
(dp3454
g70
I4
ssg71
Nsg64
(lp3455
g57
(g73
g59
NtRp3456
(dp3457
g62
(dp3458
sg71
g3452
sg64
(lp3459
g57
(g78
g59
NtRp3460
(dp3461
g62
(dp3462
sg71
g3456
sg64
(lp3463
g57
(g58
g59
NtRp3464
(dp3465
g62
(dp3466
g70
I4
ssg71
g3460
sg64
(lp3467
g57
(g66
g59
NtRp3468
(dp3469
g62
(dp3470
g70
I3
ssg71
Nsg64
(lp3471
g57
(g73
g59
NtRp3472
(dp3473
g62
(dp3474
sg71
g3468
sg64
(lp3475
g57
(g78
g59
NtRp3476
(dp3477
g62
(dp3478
sg71
g3472
sg64
(lp3479
g57
(g58
g59
NtRp3480
(dp3481
g62
(dp3482
g70
I3
ssg71
g3476
sg64
(lp3483
cgluon.languages
lazyT_unpickle
p3484
(S't\x05\x00\x00\x00Votes'
tRp3485
asbasbasbag57
(g73
g59
NtRp3486
(dp3487
g62
(dp3488
sg71
g3468
sg64
(lp3489
g57
(g78
g59
NtRp3490
(dp3491
g62
(dp3492
sg71
g3486
sg64
(lp3493
g57
(g58
g59
NtRp3494
(dp3495
g62
(dp3496
g70
I3
ssg71
g3490
sg64
(lp3497
g100
asbasbasbag57
(g73
g59
NtRp3498
(dp3499
g62
(dp3500
sg71
g3468
sg64
(lp3501
g57
(g78
g59
NtRp3502
(dp3503
g62
(dp3504
sg71
g3498
sg64
(lp3505
g57
(g58
g59
NtRp3506
(dp3507
g62
(dp3508
g70
I3
ssg71
g3502
sg64
(lp3509
S'/bigvotes/default/index'
p3510
asbasbasbag57
(g73
g59
NtRp3511
(dp3512
g62
(dp3513
sg71
g3468
sg64
(lp3514
g57
(g78
g59
NtRp3515
(dp3516
g62
(dp3517
sg71
g3511
sg64
(lp3518
g57
(g58
g59
NtRp3519
(dp3520
g62
(dp3521
g70
I3
ssg71
g3515
sg64
(lp3522
g57
(g66
g59
NtRp3523
(dp3524
g62
(dp3525
g70
I2
ssg71
Nsg64
(lp3526
sbasbasbasbasbasbasbasbag57
(g73
g59
NtRp3527
(dp3528
g62
(dp3529
sg71
g3452
sg64
(lp3530
g57
(g78
g59
NtRp3531
(dp3532
g62
(dp3533
sg71
g3527
sg64
(lp3534
g57
(g58
g59
NtRp3535
(dp3536
g62
(dp3537
g70
I4
ssg71
g3531
sg64
(lp3538
g57
(g66
g59
NtRp3539
(dp3540
g62
(dp3541
g70
I3
ssg71
Nsg64
(lp3542
g57
(g73
g59
NtRp3543
(dp3544
g62
(dp3545
sg71
g3539
sg64
(lp3546
g57
(g78
g59
NtRp3547
(dp3548
g62
(dp3549
sg71
g3543
sg64
(lp3550
g57
(g58
g59
NtRp3551
(dp3552
g62
(dp3553
g70
I3
ssg71
g3547
sg64
(lp3554
g3484
(S't\x07\x00\x00\x00Members'
tRp3555
asbasbasbag57
(g73
g59
NtRp3556
(dp3557
g62
(dp3558
sg71
g3539
sg64
(lp3559
g57
(g78
g59
NtRp3560
(dp3561
g62
(dp3562
sg71
g3556
sg64
(lp3563
g57
(g58
g59
NtRp3564
(dp3565
g62
(dp3566
g70
I3
ssg71
g3560
sg64
(lp3567
g100
asbasbasbag57
(g73
g59
NtRp3568
(dp3569
g62
(dp3570
sg71
g3539
sg64
(lp3571
g57
(g78
g59
NtRp3572
(dp3573
g62
(dp3574
sg71
g3568
sg64
(lp3575
g57
(g58
g59
NtRp3576
(dp3577
g62
(dp3578
g70
I3
ssg71
g3572
sg64
(lp3579
S'/bigvotes/member/index'
p3580
asbasbasbag57
(g73
g59
NtRp3581
(dp3582
g62
(dp3583
sg71
g3539
sg64
(lp3584
g57
(g78
g59
NtRp3585
(dp3586
g62
(dp3587
sg71
g3581
sg64
(lp3588
g57
(g58
g59
NtRp3589
(dp3590
g62
(dp3591
g70
I3
ssg71
g3585
sg64
(lp3592
g57
(g66
g59
NtRp3593
(dp3594
g62
(dp3595
g70
I2
ssg71
Nsg64
(lp3596
sbasbasbasbasbasbasbasbag57
(g73
g59
NtRp3597
(dp3598
g62
(dp3599
sg71
g3452
sg64
(lp3600
g57
(g78
g59
NtRp3601
(dp3602
g62
(dp3603
sg71
g3597
sg64
(lp3604
g57
(g58
g59
NtRp3605
(dp3606
g62
(dp3607
g70
I4
ssg71
g3601
sg64
(lp3608
g57
(g66
g59
NtRp3609
(dp3610
g62
(dp3611
g70
I3
ssg71
Nsg64
(lp3612
g57
(g73
g59
NtRp3613
(dp3614
g62
(dp3615
sg71
g3609
sg64
(lp3616
g57
(g78
g59
NtRp3617
(dp3618
g62
(dp3619
sg71
g3613
sg64
(lp3620
g57
(g58
g59
NtRp3621
(dp3622
g62
(dp3623
g70
I3
ssg71
g3617
sg64
(lp3624
g3484
(S's\x12\x00\x00\x00Members Eliminated'
tRp3625
asbasbasbag57
(g73
g59
NtRp3626
(dp3627
g62
(dp3628
sg71
g3609
sg64
(lp3629
g57
(g78
g59
NtRp3630
(dp3631
g62
(dp3632
sg71
g3626
sg64
(lp3633
g57
(g58
g59
NtRp3634
(dp3635
g62
(dp3636
g70
I3
ssg71
g3630
sg64
(lp3637
g100
asbasbasbag57
(g73
g59
NtRp3638
(dp3639
g62
(dp3640
sg71
g3609
sg64
(lp3641
g57
(g78
g59
NtRp3642
(dp3643
g62
(dp3644
sg71
g3638
sg64
(lp3645
g57
(g58
g59
NtRp3646
(dp3647
g62
(dp3648
g70
I3
ssg71
g3642
sg64
(lp3649
S'/bigvotes/member/eliminated'
p3650
asbasbasbag57
(g73
g59
NtRp3651
(dp3652
g62
(dp3653
sg71
g3609
sg64
(lp3654
g57
(g78
g59
NtRp3655
(dp3656
g62
(dp3657
sg71
g3651
sg64
(lp3658
g57
(g58
g59
NtRp3659
(dp3660
g62
(dp3661
g70
I3
ssg71
g3655
sg64
(lp3662
g57
(g66
g59
NtRp3663
(dp3664
g62
(dp3665
g70
I2
ssg71
Nsg64
(lp3666
sbasbasbasbasbasbasbasbasbasbasbasbag57
(g73
g59
NtRp3667
(dp3668
g62
(dp3669
sg71
g2928
sg64
(lp3670
g57
(g78
g59
NtRp3671
(dp3672
g62
(dp3673
g82
g83
ssg71
g3667
sg64
(lp3674
S'meta'
p3675
asbag57
(g78
g59
NtRp3676
(dp3677
g62
(dp3678
g89
g90
ssg71
g3667
sg64
(lp3679
S':'
asbag57
(g78
g59
NtRp3680
(dp3681
g62
(dp3682
sg71
g3667
sg64
(lp3683
g57
(g58
g59
NtRp3684
(dp3685
g62
(dp3686
g70
I5
ssg71
g3680
sg64
(lp3687
g57
(g66
g59
NtRp3688
(dp3689
g62
(dp3690
g70
I4
ssg71
Nsg64
(lp3691
g57
(g73
g59
NtRp3692
(dp3693
g62
(dp3694
sg71
g3688
sg64
(lp3695
g57
(g78
g59
NtRp3696
(dp3697
g62
(dp3698
g82
g83
ssg71
g3692
sg64
(lp3699
S'author'
p3700
asbag57
(g78
g59
NtRp3701
(dp3702
g62
(dp3703
g89
g90
ssg71
g3692
sg64
(lp3704
S':'
asbag57
(g78
g59
NtRp3705
(dp3706
g62
(dp3707
sg71
g3692
sg64
(lp3708
g57
(g58
g59
NtRp3709
(dp3710
g62
(dp3711
g70
I4
ssg71
g3705
sg64
(lp3712
S'Kaique da Silva <kaique.developer@gmail.com>'
p3713
asbasbasbag57
(g73
g59
NtRp3714
(dp3715
g62
(dp3716
sg71
g3688
sg64
(lp3717
g57
(g78
g59
NtRp3718
(dp3719
g62
(dp3720
g82
g83
ssg71
g3714
sg64
(lp3721
S'copyright'
p3722
asbag57
(g78
g59
NtRp3723
(dp3724
g62
(dp3725
g89
g90
ssg71
g3714
sg64
(lp3726
S':'
asbag57
(g78
g59
NtRp3727
(dp3728
g62
(dp3729
sg71
g3714
sg64
(lp3730
g57
(g58
g59
NtRp3731
(dp3732
g62
(dp3733
g70
I4
ssg71
g3727
sg64
(lp3734
S'Copyright 2012'
p3735
asbasbasbag57
(g73
g59
NtRp3736
(dp3737
g62
(dp3738
sg71
g3688
sg64
(lp3739
g57
(g78
g59
NtRp3740
(dp3741
g62
(dp3742
g82
g83
ssg71
g3736
sg64
(lp3743
S'description'
p3744
asbag57
(g78
g59
NtRp3745
(dp3746
g62
(dp3747
g89
g90
ssg71
g3736
sg64
(lp3748
S':'
asbag57
(g78
g59
NtRp3749
(dp3750
g62
(dp3751
sg71
g3736
sg64
(lp3752
g57
(g58
g59
NtRp3753
(dp3754
g62
(dp3755
g70
I4
ssg71
g3749
sg64
(lp3756
S'Challenge app'
p3757
asbasbasbag57
(g73
g59
NtRp3758
(dp3759
g62
(dp3760
sg71
g3688
sg64
(lp3761
g57
(g78
g59
NtRp3762
(dp3763
g62
(dp3764
g82
g83
ssg71
g3758
sg64
(lp3765
S'generator'
p3766
asbag57
(g78
g59
NtRp3767
(dp3768
g62
(dp3769
g89
g90
ssg71
g3758
sg64
(lp3770
S':'
asbag57
(g78
g59
NtRp3771
(dp3772
g62
(dp3773
sg71
g3758
sg64
(lp3774
g57
(g58
g59
NtRp3775
(dp3776
g62
(dp3777
g70
I4
ssg71
g3771
sg64
(lp3778
S'Web2py Web Framework'
p3779
asbasbasbag57
(g73
g59
NtRp3780
(dp3781
g62
(dp3782
sg71
g3688
sg64
(lp3783
g57
(g78
g59
NtRp3784
(dp3785
g62
(dp3786
g82
g83
ssg71
g3780
sg64
(lp3787
S'keywords'
p3788
asbag57
(g78
g59
NtRp3789
(dp3790
g62
(dp3791
g89
g90
ssg71
g3780
sg64
(lp3792
S':'
asbag57
(g78
g59
NtRp3793
(dp3794
g62
(dp3795
sg71
g3780
sg64
(lp3796
g57
(g58
g59
NtRp3797
(dp3798
g62
(dp3799
g70
I4
ssg71
g3793
sg64
(lp3800
S'BBB, votes, challenge'
p3801
asbasbasbasbasbasbasbag57
(g73
g59
NtRp3802
(dp3803
g62
(dp3804
sg71
g2928
sg64
(lp3805
g57
(g78
g59
NtRp3806
(dp3807
g62
(dp3808
g82
g83
ssg71
g3802
sg64
(lp3809
S'postprocessing'
p3810
asbag57
(g78
g59
NtRp3811
(dp3812
g62
(dp3813
g89
g90
ssg71
g3802
sg64
(lp3814
S':'
asbag57
(g78
g59
NtRp3815
(dp3816
g62
(dp3817
sg71
g3802
sg64
(lp3818
g57
(g58
g59
NtRp3819
(dp3820
g62
(dp3821
g70
I5
ssg71
g3815
sg64
(lp3822
g57
(g66
g59
NtRp3823
(dp3824
g62
(dp3825
g70
I4
ssg71
Nsg64
(lp3826
sbasbasbasbag57
(g73
g59
NtRp3827
(dp3828
g62
(dp3829
sg71
g2928
sg64
(lp3830
g57
(g78
g59
NtRp3831
(dp3832
g62
(dp3833
g82
g83
ssg71
g3827
sg64
(lp3834
S'session_file'
p3835
asbag57
(g78
g59
NtRp3836
(dp3837
g62
(dp3838
g89
g90
ssg71
g3827
sg64
(lp3839
S':'
asbag57
(g78
g59
NtRp3840
(dp3841
g62
(dp3842
sg71
g3827
sg64
(lp3843
g57
(g58
g59
NtRp3844
(dp3845
g62
(dp3846
g70
I5
ssg71
g3840
sg64
(lp3847
S"<open file '/home/kaique/Projects/web/big-votes/web2py/applications/bigvotes/sessions/127.0.0.1-72286364-99c3-4aae-95dc-f33a83b4d6f1', mode 'rb+' at 0xb040a498>"
p3848
asbasbasbag57
(g73
g59
NtRp3849
(dp3850
g62
(dp3851
sg71
g2928
sg64
(lp3852
g57
(g78
g59
NtRp3853
(dp3854
g62
(dp3855
g82
g83
ssg71
g3849
sg64
(lp3856
S'session_filename'
p3857
asbag57
(g78
g59
NtRp3858
(dp3859
g62
(dp3860
g89
g90
ssg71
g3849
sg64
(lp3861
S':'
asbag57
(g78
g59
NtRp3862
(dp3863
g62
(dp3864
sg71
g3849
sg64
(lp3865
g57
(g58
g59
NtRp3866
(dp3867
g62
(dp3868
g70
I5
ssg71
g3862
sg64
(lp3869
S'/home/kaique/Projects/web/big-votes/web2py/applications/bigvotes/sessions/127.0.0.1-72286364-99c3-4aae-95dc-f33a83b4d6f1'
p3870
asbasbasbag57
(g73
g59
NtRp3871
(dp3872
g62
(dp3873
sg71
g2928
sg64
(lp3874
g57
(g78
g59
NtRp3875
(dp3876
g62
(dp3877
g82
g83
ssg71
g3871
sg64
(lp3878
S'session_id'
p3879
asbag57
(g78
g59
NtRp3880
(dp3881
g62
(dp3882
g89
g90
ssg71
g3871
sg64
(lp3883
S':'
asbag57
(g78
g59
NtRp3884
(dp3885
g62
(dp3886
sg71
g3871
sg64
(lp3887
g57
(g58
g59
NtRp3888
(dp3889
g62
(dp3890
g70
I5
ssg71
g3884
sg64
(lp3891
S'127.0.0.1-72286364-99c3-4aae-95dc-f33a83b4d6f1'
p3892
asbasbasbag57
(g73
g59
NtRp3893
(dp3894
g62
(dp3895
sg71
g2928
sg64
(lp3896
g57
(g78
g59
NtRp3897
(dp3898
g62
(dp3899
g82
g83
ssg71
g3893
sg64
(lp3900
S'session_id_name'
p3901
asbag57
(g78
g59
NtRp3902
(dp3903
g62
(dp3904
g89
g90
ssg71
g3893
sg64
(lp3905
S':'
asbag57
(g78
g59
NtRp3906
(dp3907
g62
(dp3908
sg71
g3893
sg64
(lp3909
g57
(g58
g59
NtRp3910
(dp3911
g62
(dp3912
g70
I5
ssg71
g3906
sg64
(lp3913
g2985
asbasbasbag57
(g73
g59
NtRp3914
(dp3915
g62
(dp3916
sg71
g2928
sg64
(lp3917
g57
(g78
g59
NtRp3918
(dp3919
g62
(dp3920
g82
g83
ssg71
g3914
sg64
(lp3921
S'session_locked'
p3922
asbag57
(g78
g59
NtRp3923
(dp3924
g62
(dp3925
g89
g90
ssg71
g3914
sg64
(lp3926
S':'
asbag57
(g78
g59
NtRp3927
(dp3928
g62
(dp3929
sg71
g3914
sg64
(lp3930
g57
(g58
g59
NtRp3931
(dp3932
g62
(dp3933
g70
I5
ssg71
g3927
sg64
(lp3934
g1483
asbasbasbag57
(g73
g59
NtRp3935
(dp3936
g62
(dp3937
sg71
g2928
sg64
(lp3938
g57
(g78
g59
NtRp3939
(dp3940
g62
(dp3941
g82
g83
ssg71
g3935
sg64
(lp3942
S'session_new'
p3943
asbag57
(g78
g59
NtRp3944
(dp3945
g62
(dp3946
g89
g90
ssg71
g3935
sg64
(lp3947
S':'
asbag57
(g78
g59
NtRp3948
(dp3949
g62
(dp3950
sg71
g3935
sg64
(lp3951
g57
(g58
g59
NtRp3952
(dp3953
g62
(dp3954
g70
I5
ssg71
g3948
sg64
(lp3955
g100
asbasbasbag57
(g73
g59
NtRp3956
(dp3957
g62
(dp3958
sg71
g2928
sg64
(lp3959
g57
(g78
g59
NtRp3960
(dp3961
g62
(dp3962
g82
g83
ssg71
g3956
sg64
(lp3963
S'status'
p3964
asbag57
(g78
g59
NtRp3965
(dp3966
g62
(dp3967
g89
g90
ssg71
g3956
sg64
(lp3968
S':'
asbag57
(g78
g59
NtRp3969
(dp3970
g62
(dp3971
sg71
g3956
sg64
(lp3972
g57
(g58
g59
NtRp3973
(dp3974
g62
(dp3975
g70
I5
ssg71
g3969
sg64
(lp3976
S'200'
p3977
asbasbasbag57
(g73
g59
NtRp3978
(dp3979
g62
(dp3980
sg71
g2928
sg64
(lp3981
g57
(g78
g59
NtRp3982
(dp3983
g62
(dp3984
g82
g83
ssg71
g3978
sg64
(lp3985
S'subtitle'
p3986
asbag57
(g78
g59
NtRp3987
(dp3988
g62
(dp3989
g89
g90
ssg71
g3978
sg64
(lp3990
S':'
asbag57
(g78
g59
NtRp3991
(dp3992
g62
(dp3993
sg71
g3978
sg64
(lp3994
g57
(g58
g59
NtRp3995
(dp3996
g62
(dp3997
g70
I5
ssg71
g3991
sg64
(lp3998
S'A simple chanllenge'
p3999
asbasbasbag57
(g73
g59
NtRp4000
(dp4001
g62
(dp4002
sg71
g2928
sg64
(lp4003
g57
(g78
g59
NtRp4004
(dp4005
g62
(dp4006
g82
g83
ssg71
g4000
sg64
(lp4007
S'title'
p4008
asbag57
(g78
g59
NtRp4009
(dp4010
g62
(dp4011
g89
g90
ssg71
g4000
sg64
(lp4012
S':'
asbag57
(g78
g59
NtRp4013
(dp4014
g62
(dp4015
sg71
g4000
sg64
(lp4016
g57
(g58
g59
NtRp4017
(dp4018
g62
(dp4019
g70
I5
ssg71
g4013
sg64
(lp4020
S'Big Votes'
p4021
asbasbasbag57
(g73
g59
NtRp4022
(dp4023
g62
(dp4024
sg71
g2928
sg64
(lp4025
g57
(g78
g59
NtRp4026
(dp4027
g62
(dp4028
g82
g83
ssg71
g4022
sg64
(lp4029
g2168
asbag57
(g78
g59
NtRp4030
(dp4031
g62
(dp4032
g89
g90
ssg71
g4022
sg64
(lp4033
S':'
asbag57
(g78
g59
NtRp4034
(dp4035
g62
(dp4036
sg71
g4022
sg64
(lp4037
g57
(g58
g59
NtRp4038
(dp4039
g62
(dp4040
g70
I5
ssg71
g4034
sg64
(lp4041
g2181
asbasbasbag57
(g73
g59
NtRp4042
(dp4043
g62
(dp4044
sg71
g2928
sg64
(lp4045
g57
(g78
g59
NtRp4046
(dp4047
g62
(dp4048
g82
g83
ssg71
g4042
sg64
(lp4049
S'view'
p4050
asbag57
(g78
g59
NtRp4051
(dp4052
g62
(dp4053
g89
g90
ssg71
g4042
sg64
(lp4054
S':'
asbag57
(g78
g59
NtRp4055
(dp4056
g62
(dp4057
sg71
g4042
sg64
(lp4058
g57
(g58
g59
NtRp4059
(dp4060
g62
(dp4061
g70
I5
ssg71
g4055
sg64
(lp4062
S'member/profile.html'
p4063
asbasbasbasbasbsS'locals'
p4064
(dp4065
S'member'
p4066
S'<applications.bigvotes.modules.bigvotes.Members object>'
p4067
sg42
S"['2']"
p4068
sssS'traceback'
p4069
S'Traceback (most recent call last):\n  File "/home/kaique/Projects/web/big-votes/web2py/gluon/restricted.py", line 205, in restricted\n    exec ccode in environment\n  File "/home/kaique/Projects/web/big-votes/web2py/applications/bigvotes/controllers/member.py", line 31, in <module>\n  File "/home/kaique/Projects/web/big-votes/web2py/gluon/globals.py", line 173, in <lambda>\n    self._caller = lambda f: f()\n  File "/home/kaique/Projects/web/big-votes/web2py/applications/bigvotes/controllers/member.py", line 18, in profile\n    db.member.status == \'active\'\nTypeError: unsupported operand type(s) for &: \'int\' and \'Field\'\n'
p4070
s.