(dp1
S'output'
p2
S"<type 'exceptions.SyntaxError'> invalid syntax (vote.py, line 32)"
p3
sS'layer'
p4
S'/home/kaique/Projects/web/big-votes/web2py/applications/bigvotes/controllers/vote.py'
p5
sS'code'
p6
S"# -*- coding: utf-8 -*-\nfrom bigvotes import Votes\nimport datetime\n\ndef index():\n\targs = request.args\n\tclient_ip = request.client\n\tnow = datetime.datetime.now\n\telapsed_time = datetime.timedelta( seconds = 60*5 )\n\toutput = False\n\n\tif args and len( args ) > 0 and client_ip:\n\t\tconsult = Votes(db).consult({\n\t\t\t'vote_id': args[0],\n\t\t\t'vote_ip': client_ip,\n\t\t})\n\n\t\tif now() > ( consult.vote_register + elapsed_time ):\n\t\t\toutput = Votes(db).newVote( { 'vote': args[0], 'member': args[1] } )\n\n\t\t\tif output:\n\t\t\t\tmembers = {}\n\t\t\t\t# Profile of members in the score\n\t\t\t\tmembers['profile'] = Votes(db).getScore( args[0] )\n\t\t\t\t# Score of members\n\t\t\t\tmembers['scores'] = [ members['profile'][member]['score'] for member in members['profile'] ]\n\t\t\t\t# Max score to eliminate\n\t\t\t\tmembers['max_score'] = max( members['score'] )\n\t\t\t\t# Min score\n\t\t\t\tmembers['min_score'] = min( members['scores'] )\n\t\t\t\t# Members is tied\n\t\t\t\tmembers['tied'] = members['max_score'] === members['min_score']\n\t\t\t\t# Id of members in the profile score\n\t\t\t\tmembers['ids'] = [ int( member ) for member in members['profile'] ]\n\t\t\t\t# Id of eliminated member\n\t\t\t\tmembers['eliminated'] = members['ids'][ members['scores'].index( members['max_score'] ) ] \n\t\telse:\n\t\t\tredirect( URL('default', 'index') )\n\telse:\n\t\tredirect( URL('default', 'index') )\n\n\treturn {\n\t\t'vote': args[1],\n\t\t'members': members\n\t}\n\ndef result():\n\tpass\nresponse._vars=response._caller(index)\n"
p7
sS'snapshot'
p8
(dp9
S'exception'
p10
(dp11
S'__getslice__'
p12
S"<method-wrapper '__getslice__' of exceptions.SyntaxError object>"
p13
sS'text'
p14
S'"\\t\\t\\t\\tmembers[\'tied\'] = members[\'max_score\'] === members[\'min_score\']\\n"'
p15
sS'__str__'
p16
S"<method-wrapper '__str__' of exceptions.SyntaxError object>"
p17
sS'__reduce__'
p18
S'<built-in method __reduce__ of exceptions.SyntaxError object>'
p19
sS'__dict__'
p20
S'{}'
p21
sS'__sizeof__'
p22
S'<built-in method __sizeof__ of exceptions.SyntaxError object>'
p23
sS'__init__'
p24
S"<method-wrapper '__init__' of exceptions.SyntaxError object>"
p25
sS'__setattr__'
p26
S"<method-wrapper '__setattr__' of exceptions.SyntaxError object>"
p27
sS'__reduce_ex__'
p28
S'<built-in method __reduce_ex__ of exceptions.SyntaxError object>'
p29
sS'__new__'
p30
S'<built-in method __new__ of type object>'
p31
sS'__format__'
p32
S'<built-in method __format__ of exceptions.SyntaxError object>'
p33
sS'__class__'
p34
S"<type 'exceptions.SyntaxError'>"
p35
sS'filename'
p36
S"'/home/kaique/Projects/web/big-votes/web2py/applications/bigvotes/controllers/vote.py'"
p37
sS'lineno'
p38
S'32'
p39
sS'msg'
p40
S"'invalid syntax'"
p41
sS'__doc__'
p42
S"'Invalid syntax.'"
p43
sS'__getitem__'
p44
S"<method-wrapper '__getitem__' of exceptions.SyntaxError object>"
p45
sS'__setstate__'
p46
S'<built-in method __setstate__ of exceptions.SyntaxError object>'
p47
sS'__getattribute__'
p48
S"<method-wrapper '__getattribute__' of exceptions.SyntaxError object>"
p49
sS'print_file_and_line'
p50
S'None'
p51
sS'args'
p52
S'(\'invalid syntax\', (\'/home/kaique/Projects/web/big-votes/web2py/applications/bigvotes/controllers/vote.py\', 32, 46, "\\t\\t\\t\\tmembers[\'tied\'] = members[\'max_score\'] === members[\'min_score\']\\n"))'
p53
sS'__subclasshook__'
p54
S'<built-in method __subclasshook__ of type object>'
p55
sS'offset'
p56
S'46'
p57
sS'__unicode__'
p58
S'<built-in method __unicode__ of exceptions.SyntaxError object>'
p59
sS'__delattr__'
p60
S"<method-wrapper '__delattr__' of exceptions.SyntaxError object>"
p61
sS'__repr__'
p62
S"<method-wrapper '__repr__' of exceptions.SyntaxError object>"
p63
sS'__hash__'
p64
S"<method-wrapper '__hash__' of exceptions.SyntaxError object>"
p65
ssS'evalue'
p66
S'invalid syntax (vote.py, line 32)'
p67
sS'request'
p68
ccopy_reg
_reconstructor
p69
(cgluon.html
BEAUTIFY
p70
c__builtin__
object
p71
NtRp72
(dp73
S'attributes'
p74
(dp75
sS'components'
p76
(lp77
g69
(cgluon.html
TABLE
p78
g71
NtRp79
(dp80
g74
(dp81
S'level'
p82
I5
ssS'parent'
p83
Nsg76
(lp84
g69
(cgluon.html
TR
p85
g71
NtRp86
(dp87
g74
(dp88
sg83
g79
sg76
(lp89
g69
(cgluon.html
TD
p90
g71
NtRp91
(dp92
g74
(dp93
S'_style'
p94
S'font-weight:bold;vertical-align:top'
p95
ssg83
g86
sg76
(lp96
S'ajax'
p97
asbag69
(g90
g71
NtRp98
(dp99
g74
(dp100
S'_valign'
p101
S'top'
p102
ssg83
g86
sg76
(lp103
S':'
asbag69
(g90
g71
NtRp104
(dp105
g74
(dp106
sg83
g86
sg76
(lp107
g69
(g70
g71
NtRp108
(dp109
g74
(dp110
g82
I5
ssg83
g104
sg76
(lp111
S'False'
p112
asbasbasbag69
(g85
g71
NtRp113
(dp114
g74
(dp115
sg83
g79
sg76
(lp116
g69
(g90
g71
NtRp117
(dp118
g74
(dp119
g94
g95
ssg83
g113
sg76
(lp120
S'application'
p121
asbag69
(g90
g71
NtRp122
(dp123
g74
(dp124
g101
g102
ssg83
g113
sg76
(lp125
S':'
asbag69
(g90
g71
NtRp126
(dp127
g74
(dp128
sg83
g113
sg76
(lp129
g69
(g70
g71
NtRp130
(dp131
g74
(dp132
g82
I5
ssg83
g126
sg76
(lp133
S'bigvotes'
p134
asbasbasbag69
(g85
g71
NtRp135
(dp136
g74
(dp137
sg83
g79
sg76
(lp138
g69
(g90
g71
NtRp139
(dp140
g74
(dp141
g94
g95
ssg83
g135
sg76
(lp142
g52
asbag69
(g90
g71
NtRp143
(dp144
g74
(dp145
g101
g102
ssg83
g135
sg76
(lp146
S':'
asbag69
(g90
g71
NtRp147
(dp148
g74
(dp149
sg83
g135
sg76
(lp150
g69
(g70
g71
NtRp151
(dp152
g74
(dp153
g82
I5
ssg83
g147
sg76
(lp154
g69
(g78
g71
NtRp155
(dp156
g74
(dp157
g82
I4
ssg83
Nsg76
(lp158
g69
(g85
g71
NtRp159
(dp160
g74
(dp161
sg83
g155
sg76
(lp162
g69
(g90
g71
NtRp163
(dp164
g74
(dp165
sg83
g159
sg76
(lp166
g69
(g70
g71
NtRp167
(dp168
g74
(dp169
g82
I4
ssg83
g163
sg76
(lp170
S'1'
asbasbasbag69
(g85
g71
NtRp171
(dp172
g74
(dp173
sg83
g155
sg76
(lp174
g69
(g90
g71
NtRp175
(dp176
g74
(dp177
sg83
g171
sg76
(lp178
g69
(g70
g71
NtRp179
(dp180
g74
(dp181
g82
I4
ssg83
g175
sg76
(lp182
S'1'
asbasbasbasbasbasbasbag69
(g85
g71
NtRp183
(dp184
g74
(dp185
sg83
g79
sg76
(lp186
g69
(g90
g71
NtRp187
(dp188
g74
(dp189
g94
g95
ssg83
g183
sg76
(lp190
S'body'
p191
asbag69
(g90
g71
NtRp192
(dp193
g74
(dp194
g101
g102
ssg83
g183
sg76
(lp195
S':'
asbag69
(g90
g71
NtRp196
(dp197
g74
(dp198
sg83
g183
sg76
(lp199
g69
(g70
g71
NtRp200
(dp201
g74
(dp202
g82
I5
ssg83
g196
sg76
(lp203
S'<cStringIO.StringO object at 0xafa50480>'
p204
asbasbasbag69
(g85
g71
NtRp205
(dp206
g74
(dp207
sg83
g79
sg76
(lp208
g69
(g90
g71
NtRp209
(dp210
g74
(dp211
g94
g95
ssg83
g205
sg76
(lp212
S'client'
p213
asbag69
(g90
g71
NtRp214
(dp215
g74
(dp216
g101
g102
ssg83
g205
sg76
(lp217
S':'
asbag69
(g90
g71
NtRp218
(dp219
g74
(dp220
sg83
g205
sg76
(lp221
g69
(g70
g71
NtRp222
(dp223
g74
(dp224
g82
I5
ssg83
g218
sg76
(lp225
S'127.0.0.1'
p226
asbasbasbag69
(g85
g71
NtRp227
(dp228
g74
(dp229
sg83
g79
sg76
(lp230
g69
(g90
g71
NtRp231
(dp232
g74
(dp233
g94
g95
ssg83
g227
sg76
(lp234
S'controller'
p235
asbag69
(g90
g71
NtRp236
(dp237
g74
(dp238
g101
g102
ssg83
g227
sg76
(lp239
S':'
asbag69
(g90
g71
NtRp240
(dp241
g74
(dp242
sg83
g227
sg76
(lp243
g69
(g70
g71
NtRp244
(dp245
g74
(dp246
g82
I5
ssg83
g240
sg76
(lp247
S'vote'
p248
asbasbasbag69
(g85
g71
NtRp249
(dp250
g74
(dp251
sg83
g79
sg76
(lp252
g69
(g90
g71
NtRp253
(dp254
g74
(dp255
g94
g95
ssg83
g249
sg76
(lp256
S'cookies'
p257
asbag69
(g90
g71
NtRp258
(dp259
g74
(dp260
g101
g102
ssg83
g249
sg76
(lp261
S':'
asbag69
(g90
g71
NtRp262
(dp263
g74
(dp264
sg83
g249
sg76
(lp265
g69
(g70
g71
NtRp266
(dp267
g74
(dp268
g82
I5
ssg83
g262
sg76
(lp269
g69
(g78
g71
NtRp270
(dp271
g74
(dp272
g82
I4
ssg83
Nsg76
(lp273
g69
(g85
g71
NtRp274
(dp275
g74
(dp276
sg83
g270
sg76
(lp277
g69
(g90
g71
NtRp278
(dp279
g74
(dp280
g94
g95
ssg83
g274
sg76
(lp281
S'csrftoken'
p282
asbag69
(g90
g71
NtRp283
(dp284
g74
(dp285
g101
g102
ssg83
g274
sg76
(lp286
S':'
asbag69
(g90
g71
NtRp287
(dp288
g74
(dp289
sg83
g274
sg76
(lp290
g69
(g70
g71
NtRp291
(dp292
g74
(dp293
g82
I4
ssg83
g287
sg76
(lp294
g69
(g78
g71
NtRp295
(dp296
g74
(dp297
g82
I3
ssg83
Nsg76
(lp298
g69
(g85
g71
NtRp299
(dp300
g74
(dp301
sg83
g295
sg76
(lp302
g69
(g90
g71
NtRp303
(dp304
g74
(dp305
g94
g95
ssg83
g299
sg76
(lp306
S'comment'
p307
asbag69
(g90
g71
NtRp308
(dp309
g74
(dp310
g101
g102
ssg83
g299
sg76
(lp311
S':'
asbag69
(g90
g71
NtRp312
(dp313
g74
(dp314
sg83
g299
sg76
(lp315
g69
(g70
g71
NtRp316
(dp317
g74
(dp318
g82
I3
ssg83
g312
sg76
(lp319
S''
asbasbasbag69
(g85
g71
NtRp320
(dp321
g74
(dp322
sg83
g295
sg76
(lp323
g69
(g90
g71
NtRp324
(dp325
g74
(dp326
g94
g95
ssg83
g320
sg76
(lp327
S'domain'
p328
asbag69
(g90
g71
NtRp329
(dp330
g74
(dp331
g101
g102
ssg83
g320
sg76
(lp332
S':'
asbag69
(g90
g71
NtRp333
(dp334
g74
(dp335
sg83
g320
sg76
(lp336
g69
(g70
g71
NtRp337
(dp338
g74
(dp339
g82
I3
ssg83
g333
sg76
(lp340
S''
asbasbasbag69
(g85
g71
NtRp341
(dp342
g74
(dp343
sg83
g295
sg76
(lp344
g69
(g90
g71
NtRp345
(dp346
g74
(dp347
g94
g95
ssg83
g341
sg76
(lp348
S'expires'
p349
asbag69
(g90
g71
NtRp350
(dp351
g74
(dp352
g101
g102
ssg83
g341
sg76
(lp353
S':'
asbag69
(g90
g71
NtRp354
(dp355
g74
(dp356
sg83
g341
sg76
(lp357
g69
(g70
g71
NtRp358
(dp359
g74
(dp360
g82
I3
ssg83
g354
sg76
(lp361
S''
asbasbasbag69
(g85
g71
NtRp362
(dp363
g74
(dp364
sg83
g295
sg76
(lp365
g69
(g90
g71
NtRp366
(dp367
g74
(dp368
g94
g95
ssg83
g362
sg76
(lp369
S'httponly'
p370
asbag69
(g90
g71
NtRp371
(dp372
g74
(dp373
g101
g102
ssg83
g362
sg76
(lp374
S':'
asbag69
(g90
g71
NtRp375
(dp376
g74
(dp377
sg83
g362
sg76
(lp378
g69
(g70
g71
NtRp379
(dp380
g74
(dp381
g82
I3
ssg83
g375
sg76
(lp382
S''
asbasbasbag69
(g85
g71
NtRp383
(dp384
g74
(dp385
sg83
g295
sg76
(lp386
g69
(g90
g71
NtRp387
(dp388
g74
(dp389
g94
g95
ssg83
g383
sg76
(lp390
S'max-age'
p391
asbag69
(g90
g71
NtRp392
(dp393
g74
(dp394
g101
g102
ssg83
g383
sg76
(lp395
S':'
asbag69
(g90
g71
NtRp396
(dp397
g74
(dp398
sg83
g383
sg76
(lp399
g69
(g70
g71
NtRp400
(dp401
g74
(dp402
g82
I3
ssg83
g396
sg76
(lp403
S''
asbasbasbag69
(g85
g71
NtRp404
(dp405
g74
(dp406
sg83
g295
sg76
(lp407
g69
(g90
g71
NtRp408
(dp409
g74
(dp410
g94
g95
ssg83
g404
sg76
(lp411
S'path'
p412
asbag69
(g90
g71
NtRp413
(dp414
g74
(dp415
g101
g102
ssg83
g404
sg76
(lp416
S':'
asbag69
(g90
g71
NtRp417
(dp418
g74
(dp419
sg83
g404
sg76
(lp420
g69
(g70
g71
NtRp421
(dp422
g74
(dp423
g82
I3
ssg83
g417
sg76
(lp424
S''
asbasbasbag69
(g85
g71
NtRp425
(dp426
g74
(dp427
sg83
g295
sg76
(lp428
g69
(g90
g71
NtRp429
(dp430
g74
(dp431
g94
g95
ssg83
g425
sg76
(lp432
S'secure'
p433
asbag69
(g90
g71
NtRp434
(dp435
g74
(dp436
g101
g102
ssg83
g425
sg76
(lp437
S':'
asbag69
(g90
g71
NtRp438
(dp439
g74
(dp440
sg83
g425
sg76
(lp441
g69
(g70
g71
NtRp442
(dp443
g74
(dp444
g82
I3
ssg83
g438
sg76
(lp445
S''
asbasbasbag69
(g85
g71
NtRp446
(dp447
g74
(dp448
sg83
g295
sg76
(lp449
g69
(g90
g71
NtRp450
(dp451
g74
(dp452
g94
g95
ssg83
g446
sg76
(lp453
S'version'
p454
asbag69
(g90
g71
NtRp455
(dp456
g74
(dp457
g101
g102
ssg83
g446
sg76
(lp458
S':'
asbag69
(g90
g71
NtRp459
(dp460
g74
(dp461
sg83
g446
sg76
(lp462
g69
(g70
g71
NtRp463
(dp464
g74
(dp465
g82
I3
ssg83
g459
sg76
(lp466
S''
asbasbasbasbasbasbasbag69
(g85
g71
NtRp467
(dp468
g74
(dp469
sg83
g270
sg76
(lp470
g69
(g90
g71
NtRp471
(dp472
g74
(dp473
g94
g95
ssg83
g467
sg76
(lp474
S'session_id_admin'
p475
asbag69
(g90
g71
NtRp476
(dp477
g74
(dp478
g101
g102
ssg83
g467
sg76
(lp479
S':'
asbag69
(g90
g71
NtRp480
(dp481
g74
(dp482
sg83
g467
sg76
(lp483
g69
(g70
g71
NtRp484
(dp485
g74
(dp486
g82
I4
ssg83
g480
sg76
(lp487
g69
(g78
g71
NtRp488
(dp489
g74
(dp490
g82
I3
ssg83
Nsg76
(lp491
g69
(g85
g71
NtRp492
(dp493
g74
(dp494
sg83
g488
sg76
(lp495
g69
(g90
g71
NtRp496
(dp497
g74
(dp498
g94
g95
ssg83
g492
sg76
(lp499
g307
asbag69
(g90
g71
NtRp500
(dp501
g74
(dp502
g101
g102
ssg83
g492
sg76
(lp503
S':'
asbag69
(g90
g71
NtRp504
(dp505
g74
(dp506
sg83
g492
sg76
(lp507
g69
(g70
g71
NtRp508
(dp509
g74
(dp510
g82
I3
ssg83
g504
sg76
(lp511
S''
asbasbasbag69
(g85
g71
NtRp512
(dp513
g74
(dp514
sg83
g488
sg76
(lp515
g69
(g90
g71
NtRp516
(dp517
g74
(dp518
g94
g95
ssg83
g512
sg76
(lp519
g328
asbag69
(g90
g71
NtRp520
(dp521
g74
(dp522
g101
g102
ssg83
g512
sg76
(lp523
S':'
asbag69
(g90
g71
NtRp524
(dp525
g74
(dp526
sg83
g512
sg76
(lp527
g69
(g70
g71
NtRp528
(dp529
g74
(dp530
g82
I3
ssg83
g524
sg76
(lp531
S''
asbasbasbag69
(g85
g71
NtRp532
(dp533
g74
(dp534
sg83
g488
sg76
(lp535
g69
(g90
g71
NtRp536
(dp537
g74
(dp538
g94
g95
ssg83
g532
sg76
(lp539
g349
asbag69
(g90
g71
NtRp540
(dp541
g74
(dp542
g101
g102
ssg83
g532
sg76
(lp543
S':'
asbag69
(g90
g71
NtRp544
(dp545
g74
(dp546
sg83
g532
sg76
(lp547
g69
(g70
g71
NtRp548
(dp549
g74
(dp550
g82
I3
ssg83
g544
sg76
(lp551
S''
asbasbasbag69
(g85
g71
NtRp552
(dp553
g74
(dp554
sg83
g488
sg76
(lp555
g69
(g90
g71
NtRp556
(dp557
g74
(dp558
g94
g95
ssg83
g552
sg76
(lp559
g370
asbag69
(g90
g71
NtRp560
(dp561
g74
(dp562
g101
g102
ssg83
g552
sg76
(lp563
S':'
asbag69
(g90
g71
NtRp564
(dp565
g74
(dp566
sg83
g552
sg76
(lp567
g69
(g70
g71
NtRp568
(dp569
g74
(dp570
g82
I3
ssg83
g564
sg76
(lp571
S''
asbasbasbag69
(g85
g71
NtRp572
(dp573
g74
(dp574
sg83
g488
sg76
(lp575
g69
(g90
g71
NtRp576
(dp577
g74
(dp578
g94
g95
ssg83
g572
sg76
(lp579
g391
asbag69
(g90
g71
NtRp580
(dp581
g74
(dp582
g101
g102
ssg83
g572
sg76
(lp583
S':'
asbag69
(g90
g71
NtRp584
(dp585
g74
(dp586
sg83
g572
sg76
(lp587
g69
(g70
g71
NtRp588
(dp589
g74
(dp590
g82
I3
ssg83
g584
sg76
(lp591
S''
asbasbasbag69
(g85
g71
NtRp592
(dp593
g74
(dp594
sg83
g488
sg76
(lp595
g69
(g90
g71
NtRp596
(dp597
g74
(dp598
g94
g95
ssg83
g592
sg76
(lp599
g412
asbag69
(g90
g71
NtRp600
(dp601
g74
(dp602
g101
g102
ssg83
g592
sg76
(lp603
S':'
asbag69
(g90
g71
NtRp604
(dp605
g74
(dp606
sg83
g592
sg76
(lp607
g69
(g70
g71
NtRp608
(dp609
g74
(dp610
g82
I3
ssg83
g604
sg76
(lp611
S''
asbasbasbag69
(g85
g71
NtRp612
(dp613
g74
(dp614
sg83
g488
sg76
(lp615
g69
(g90
g71
NtRp616
(dp617
g74
(dp618
g94
g95
ssg83
g612
sg76
(lp619
g433
asbag69
(g90
g71
NtRp620
(dp621
g74
(dp622
g101
g102
ssg83
g612
sg76
(lp623
S':'
asbag69
(g90
g71
NtRp624
(dp625
g74
(dp626
sg83
g612
sg76
(lp627
g69
(g70
g71
NtRp628
(dp629
g74
(dp630
g82
I3
ssg83
g624
sg76
(lp631
S''
asbasbasbag69
(g85
g71
NtRp632
(dp633
g74
(dp634
sg83
g488
sg76
(lp635
g69
(g90
g71
NtRp636
(dp637
g74
(dp638
g94
g95
ssg83
g632
sg76
(lp639
g454
asbag69
(g90
g71
NtRp640
(dp641
g74
(dp642
g101
g102
ssg83
g632
sg76
(lp643
S':'
asbag69
(g90
g71
NtRp644
(dp645
g74
(dp646
sg83
g632
sg76
(lp647
g69
(g70
g71
NtRp648
(dp649
g74
(dp650
g82
I3
ssg83
g644
sg76
(lp651
S''
asbasbasbasbasbasbasbag69
(g85
g71
NtRp652
(dp653
g74
(dp654
sg83
g270
sg76
(lp655
g69
(g90
g71
NtRp656
(dp657
g74
(dp658
g94
g95
ssg83
g652
sg76
(lp659
S'session_id_bigvotes'
p660
asbag69
(g90
g71
NtRp661
(dp662
g74
(dp663
g101
g102
ssg83
g652
sg76
(lp664
S':'
asbag69
(g90
g71
NtRp665
(dp666
g74
(dp667
sg83
g652
sg76
(lp668
g69
(g70
g71
NtRp669
(dp670
g74
(dp671
g82
I4
ssg83
g665
sg76
(lp672
g69
(g78
g71
NtRp673
(dp674
g74
(dp675
g82
I3
ssg83
Nsg76
(lp676
g69
(g85
g71
NtRp677
(dp678
g74
(dp679
sg83
g673
sg76
(lp680
g69
(g90
g71
NtRp681
(dp682
g74
(dp683
g94
g95
ssg83
g677
sg76
(lp684
g307
asbag69
(g90
g71
NtRp685
(dp686
g74
(dp687
g101
g102
ssg83
g677
sg76
(lp688
S':'
asbag69
(g90
g71
NtRp689
(dp690
g74
(dp691
sg83
g677
sg76
(lp692
g69
(g70
g71
NtRp693
(dp694
g74
(dp695
g82
I3
ssg83
g689
sg76
(lp696
S''
asbasbasbag69
(g85
g71
NtRp697
(dp698
g74
(dp699
sg83
g673
sg76
(lp700
g69
(g90
g71
NtRp701
(dp702
g74
(dp703
g94
g95
ssg83
g697
sg76
(lp704
g328
asbag69
(g90
g71
NtRp705
(dp706
g74
(dp707
g101
g102
ssg83
g697
sg76
(lp708
S':'
asbag69
(g90
g71
NtRp709
(dp710
g74
(dp711
sg83
g697
sg76
(lp712
g69
(g70
g71
NtRp713
(dp714
g74
(dp715
g82
I3
ssg83
g709
sg76
(lp716
S''
asbasbasbag69
(g85
g71
NtRp717
(dp718
g74
(dp719
sg83
g673
sg76
(lp720
g69
(g90
g71
NtRp721
(dp722
g74
(dp723
g94
g95
ssg83
g717
sg76
(lp724
g349
asbag69
(g90
g71
NtRp725
(dp726
g74
(dp727
g101
g102
ssg83
g717
sg76
(lp728
S':'
asbag69
(g90
g71
NtRp729
(dp730
g74
(dp731
sg83
g717
sg76
(lp732
g69
(g70
g71
NtRp733
(dp734
g74
(dp735
g82
I3
ssg83
g729
sg76
(lp736
S''
asbasbasbag69
(g85
g71
NtRp737
(dp738
g74
(dp739
sg83
g673
sg76
(lp740
g69
(g90
g71
NtRp741
(dp742
g74
(dp743
g94
g95
ssg83
g737
sg76
(lp744
g370
asbag69
(g90
g71
NtRp745
(dp746
g74
(dp747
g101
g102
ssg83
g737
sg76
(lp748
S':'
asbag69
(g90
g71
NtRp749
(dp750
g74
(dp751
sg83
g737
sg76
(lp752
g69
(g70
g71
NtRp753
(dp754
g74
(dp755
g82
I3
ssg83
g749
sg76
(lp756
S''
asbasbasbag69
(g85
g71
NtRp757
(dp758
g74
(dp759
sg83
g673
sg76
(lp760
g69
(g90
g71
NtRp761
(dp762
g74
(dp763
g94
g95
ssg83
g757
sg76
(lp764
g391
asbag69
(g90
g71
NtRp765
(dp766
g74
(dp767
g101
g102
ssg83
g757
sg76
(lp768
S':'
asbag69
(g90
g71
NtRp769
(dp770
g74
(dp771
sg83
g757
sg76
(lp772
g69
(g70
g71
NtRp773
(dp774
g74
(dp775
g82
I3
ssg83
g769
sg76
(lp776
S''
asbasbasbag69
(g85
g71
NtRp777
(dp778
g74
(dp779
sg83
g673
sg76
(lp780
g69
(g90
g71
NtRp781
(dp782
g74
(dp783
g94
g95
ssg83
g777
sg76
(lp784
g412
asbag69
(g90
g71
NtRp785
(dp786
g74
(dp787
g101
g102
ssg83
g777
sg76
(lp788
S':'
asbag69
(g90
g71
NtRp789
(dp790
g74
(dp791
sg83
g777
sg76
(lp792
g69
(g70
g71
NtRp793
(dp794
g74
(dp795
g82
I3
ssg83
g789
sg76
(lp796
S''
asbasbasbag69
(g85
g71
NtRp797
(dp798
g74
(dp799
sg83
g673
sg76
(lp800
g69
(g90
g71
NtRp801
(dp802
g74
(dp803
g94
g95
ssg83
g797
sg76
(lp804
g433
asbag69
(g90
g71
NtRp805
(dp806
g74
(dp807
g101
g102
ssg83
g797
sg76
(lp808
S':'
asbag69
(g90
g71
NtRp809
(dp810
g74
(dp811
sg83
g797
sg76
(lp812
g69
(g70
g71
NtRp813
(dp814
g74
(dp815
g82
I3
ssg83
g809
sg76
(lp816
S''
asbasbasbag69
(g85
g71
NtRp817
(dp818
g74
(dp819
sg83
g673
sg76
(lp820
g69
(g90
g71
NtRp821
(dp822
g74
(dp823
g94
g95
ssg83
g817
sg76
(lp824
g454
asbag69
(g90
g71
NtRp825
(dp826
g74
(dp827
g101
g102
ssg83
g817
sg76
(lp828
S':'
asbag69
(g90
g71
NtRp829
(dp830
g74
(dp831
sg83
g817
sg76
(lp832
g69
(g70
g71
NtRp833
(dp834
g74
(dp835
g82
I3
ssg83
g829
sg76
(lp836
S''
asbasbasbasbasbasbasbag69
(g85
g71
NtRp837
(dp838
g74
(dp839
sg83
g270
sg76
(lp840
g69
(g90
g71
NtRp841
(dp842
g74
(dp843
g94
g95
ssg83
g837
sg76
(lp844
S'session_id_welcome'
p845
asbag69
(g90
g71
NtRp846
(dp847
g74
(dp848
g101
g102
ssg83
g837
sg76
(lp849
S':'
asbag69
(g90
g71
NtRp850
(dp851
g74
(dp852
sg83
g837
sg76
(lp853
g69
(g70
g71
NtRp854
(dp855
g74
(dp856
g82
I4
ssg83
g850
sg76
(lp857
g69
(g78
g71
NtRp858
(dp859
g74
(dp860
g82
I3
ssg83
Nsg76
(lp861
g69
(g85
g71
NtRp862
(dp863
g74
(dp864
sg83
g858
sg76
(lp865
g69
(g90
g71
NtRp866
(dp867
g74
(dp868
g94
g95
ssg83
g862
sg76
(lp869
g307
asbag69
(g90
g71
NtRp870
(dp871
g74
(dp872
g101
g102
ssg83
g862
sg76
(lp873
S':'
asbag69
(g90
g71
NtRp874
(dp875
g74
(dp876
sg83
g862
sg76
(lp877
g69
(g70
g71
NtRp878
(dp879
g74
(dp880
g82
I3
ssg83
g874
sg76
(lp881
S''
asbasbasbag69
(g85
g71
NtRp882
(dp883
g74
(dp884
sg83
g858
sg76
(lp885
g69
(g90
g71
NtRp886
(dp887
g74
(dp888
g94
g95
ssg83
g882
sg76
(lp889
g328
asbag69
(g90
g71
NtRp890
(dp891
g74
(dp892
g101
g102
ssg83
g882
sg76
(lp893
S':'
asbag69
(g90
g71
NtRp894
(dp895
g74
(dp896
sg83
g882
sg76
(lp897
g69
(g70
g71
NtRp898
(dp899
g74
(dp900
g82
I3
ssg83
g894
sg76
(lp901
S''
asbasbasbag69
(g85
g71
NtRp902
(dp903
g74
(dp904
sg83
g858
sg76
(lp905
g69
(g90
g71
NtRp906
(dp907
g74
(dp908
g94
g95
ssg83
g902
sg76
(lp909
g349
asbag69
(g90
g71
NtRp910
(dp911
g74
(dp912
g101
g102
ssg83
g902
sg76
(lp913
S':'
asbag69
(g90
g71
NtRp914
(dp915
g74
(dp916
sg83
g902
sg76
(lp917
g69
(g70
g71
NtRp918
(dp919
g74
(dp920
g82
I3
ssg83
g914
sg76
(lp921
S''
asbasbasbag69
(g85
g71
NtRp922
(dp923
g74
(dp924
sg83
g858
sg76
(lp925
g69
(g90
g71
NtRp926
(dp927
g74
(dp928
g94
g95
ssg83
g922
sg76
(lp929
g370
asbag69
(g90
g71
NtRp930
(dp931
g74
(dp932
g101
g102
ssg83
g922
sg76
(lp933
S':'
asbag69
(g90
g71
NtRp934
(dp935
g74
(dp936
sg83
g922
sg76
(lp937
g69
(g70
g71
NtRp938
(dp939
g74
(dp940
g82
I3
ssg83
g934
sg76
(lp941
S''
asbasbasbag69
(g85
g71
NtRp942
(dp943
g74
(dp944
sg83
g858
sg76
(lp945
g69
(g90
g71
NtRp946
(dp947
g74
(dp948
g94
g95
ssg83
g942
sg76
(lp949
g391
asbag69
(g90
g71
NtRp950
(dp951
g74
(dp952
g101
g102
ssg83
g942
sg76
(lp953
S':'
asbag69
(g90
g71
NtRp954
(dp955
g74
(dp956
sg83
g942
sg76
(lp957
g69
(g70
g71
NtRp958
(dp959
g74
(dp960
g82
I3
ssg83
g954
sg76
(lp961
S''
asbasbasbag69
(g85
g71
NtRp962
(dp963
g74
(dp964
sg83
g858
sg76
(lp965
g69
(g90
g71
NtRp966
(dp967
g74
(dp968
g94
g95
ssg83
g962
sg76
(lp969
g412
asbag69
(g90
g71
NtRp970
(dp971
g74
(dp972
g101
g102
ssg83
g962
sg76
(lp973
S':'
asbag69
(g90
g71
NtRp974
(dp975
g74
(dp976
sg83
g962
sg76
(lp977
g69
(g70
g71
NtRp978
(dp979
g74
(dp980
g82
I3
ssg83
g974
sg76
(lp981
S''
asbasbasbag69
(g85
g71
NtRp982
(dp983
g74
(dp984
sg83
g858
sg76
(lp985
g69
(g90
g71
NtRp986
(dp987
g74
(dp988
g94
g95
ssg83
g982
sg76
(lp989
g433
asbag69
(g90
g71
NtRp990
(dp991
g74
(dp992
g101
g102
ssg83
g982
sg76
(lp993
S':'
asbag69
(g90
g71
NtRp994
(dp995
g74
(dp996
sg83
g982
sg76
(lp997
g69
(g70
g71
NtRp998
(dp999
g74
(dp1000
g82
I3
ssg83
g994
sg76
(lp1001
S''
asbasbasbag69
(g85
g71
NtRp1002
(dp1003
g74
(dp1004
sg83
g858
sg76
(lp1005
g69
(g90
g71
NtRp1006
(dp1007
g74
(dp1008
g94
g95
ssg83
g1002
sg76
(lp1009
g454
asbag69
(g90
g71
NtRp1010
(dp1011
g74
(dp1012
g101
g102
ssg83
g1002
sg76
(lp1013
S':'
asbag69
(g90
g71
NtRp1014
(dp1015
g74
(dp1016
sg83
g1002
sg76
(lp1017
g69
(g70
g71
NtRp1018
(dp1019
g74
(dp1020
g82
I3
ssg83
g1014
sg76
(lp1021
S''
asbasbasbasbasbasbasbasbasbasbasbag69
(g85
g71
NtRp1022
(dp1023
g74
(dp1024
sg83
g79
sg76
(lp1025
g69
(g90
g71
NtRp1026
(dp1027
g74
(dp1028
g94
g95
ssg83
g1022
sg76
(lp1029
S'env'
p1030
asbag69
(g90
g71
NtRp1031
(dp1032
g74
(dp1033
g101
g102
ssg83
g1022
sg76
(lp1034
S':'
asbag69
(g90
g71
NtRp1035
(dp1036
g74
(dp1037
sg83
g1022
sg76
(lp1038
g69
(g70
g71
NtRp1039
(dp1040
g74
(dp1041
g82
I5
ssg83
g1035
sg76
(lp1042
g69
(g78
g71
NtRp1043
(dp1044
g74
(dp1045
g82
I4
ssg83
Nsg76
(lp1046
g69
(g85
g71
NtRp1047
(dp1048
g74
(dp1049
sg83
g1043
sg76
(lp1050
g69
(g90
g71
NtRp1051
(dp1052
g74
(dp1053
g94
g95
ssg83
g1047
sg76
(lp1054
S'app_folders'
p1055
asbag69
(g90
g71
NtRp1056
(dp1057
g74
(dp1058
g101
g102
ssg83
g1047
sg76
(lp1059
S':'
asbag69
(g90
g71
NtRp1060
(dp1061
g74
(dp1062
sg83
g1047
sg76
(lp1063
g69
(g70
g71
NtRp1064
(dp1065
g74
(dp1066
g82
I4
ssg83
g1060
sg76
(lp1067
S"set(['/home/kaique/Projects/web/big-votes/web2py/applications/bigvotes/', '/home/kaique/Projects/web/big-votes/web2py/applications/admin/'])"
p1068
asbasbasbag69
(g85
g71
NtRp1069
(dp1070
g74
(dp1071
sg83
g1043
sg76
(lp1072
g69
(g90
g71
NtRp1073
(dp1074
g74
(dp1075
g94
g95
ssg83
g1069
sg76
(lp1076
S'applications_parent'
p1077
asbag69
(g90
g71
NtRp1078
(dp1079
g74
(dp1080
g101
g102
ssg83
g1069
sg76
(lp1081
S':'
asbag69
(g90
g71
NtRp1082
(dp1083
g74
(dp1084
sg83
g1069
sg76
(lp1085
g69
(g70
g71
NtRp1086
(dp1087
g74
(dp1088
g82
I4
ssg83
g1082
sg76
(lp1089
S'/home/kaique/Projects/web/big-votes/web2py'
p1090
asbasbasbag69
(g85
g71
NtRp1091
(dp1092
g74
(dp1093
sg83
g1043
sg76
(lp1094
g69
(g90
g71
NtRp1095
(dp1096
g74
(dp1097
g94
g95
ssg83
g1091
sg76
(lp1098
S'cmd_args'
p1099
asbag69
(g90
g71
NtRp1100
(dp1101
g74
(dp1102
g101
g102
ssg83
g1091
sg76
(lp1103
S':'
asbag69
(g90
g71
NtRp1104
(dp1105
g74
(dp1106
sg83
g1091
sg76
(lp1107
g69
(g70
g71
NtRp1108
(dp1109
g74
(dp1110
g82
I4
ssg83
g1104
sg76
(lp1111
g69
(g78
g71
NtRp1112
(dp1113
g74
(dp1114
g82
I3
ssg83
Nsg76
(lp1115
sbasbasbasbag69
(g85
g71
NtRp1116
(dp1117
g74
(dp1118
sg83
g1043
sg76
(lp1119
g69
(g90
g71
NtRp1120
(dp1121
g74
(dp1122
g94
g95
ssg83
g1116
sg76
(lp1123
S'cmd_options'
p1124
asbag69
(g90
g71
NtRp1125
(dp1126
g74
(dp1127
g101
g102
ssg83
g1116
sg76
(lp1128
S':'
asbag69
(g90
g71
NtRp1129
(dp1130
g74
(dp1131
sg83
g1116
sg76
(lp1132
g69
(g70
g71
NtRp1133
(dp1134
g74
(dp1135
g82
I4
ssg83
g1129
sg76
(lp1136
S"<Values at 0x950568c: {'verbose': False, 'ip': '127.0.0.1', 'shutdown_timeout': 5, 'taskbar': False, 'nocron': False, 'pid_filename': 'httpserver.pid', 'maxthreads': None, 'softcron': False, 'server_name': 'localhost.localdomain', 'bpython': False, 'nogui': False, 'port': 8000, 'extcron': False, 'debuglevel': 30, 'test': None, 'folder': '/home/kaique/Projects/web/big-votes/web2py', 'config': '', 'import_models': False, 'winservice': '', 'shell': None, 'run': '', 'log_filename': 'httpserver.log', 'args': [''], 'socket_timeout': 5, 'ssl_ca_certificate': None, 'scheduler': None, 'profiler_filename': None, 'ssl_private_key': '', 'password': 'dev', 'request_queue_size': 5, 'ssl_certificate': '', 'cronjob': False, 'numthreads': None, 'quiet': False, 'interfaces': None, 'minthreads': None, 'timeout': 10, 'plain': False, 'nobanner': False}>"
p1137
asbasbasbag69
(g85
g71
NtRp1138
(dp1139
g74
(dp1140
sg83
g1043
sg76
(lp1141
g69
(g90
g71
NtRp1142
(dp1143
g74
(dp1144
g94
g95
ssg83
g1138
sg76
(lp1145
S'db_sessions'
p1146
asbag69
(g90
g71
NtRp1147
(dp1148
g74
(dp1149
g101
g102
ssg83
g1138
sg76
(lp1150
S':'
asbag69
(g90
g71
NtRp1151
(dp1152
g74
(dp1153
sg83
g1138
sg76
(lp1154
g69
(g70
g71
NtRp1155
(dp1156
g74
(dp1157
g82
I4
ssg83
g1151
sg76
(lp1158
S'set([])'
p1159
asbasbasbag69
(g85
g71
NtRp1160
(dp1161
g74
(dp1162
sg83
g1043
sg76
(lp1163
g69
(g90
g71
NtRp1164
(dp1165
g74
(dp1166
g94
g95
ssg83
g1160
sg76
(lp1167
S'debugging'
p1168
asbag69
(g90
g71
NtRp1169
(dp1170
g74
(dp1171
g101
g102
ssg83
g1160
sg76
(lp1172
S':'
asbag69
(g90
g71
NtRp1173
(dp1174
g74
(dp1175
sg83
g1160
sg76
(lp1176
g69
(g70
g71
NtRp1177
(dp1178
g74
(dp1179
g82
I4
ssg83
g1173
sg76
(lp1180
g112
asbasbasbag69
(g85
g71
NtRp1181
(dp1182
g74
(dp1183
sg83
g1043
sg76
(lp1184
g69
(g90
g71
NtRp1185
(dp1186
g74
(dp1187
g94
g95
ssg83
g1181
sg76
(lp1188
S'gluon_parent'
p1189
asbag69
(g90
g71
NtRp1190
(dp1191
g74
(dp1192
g101
g102
ssg83
g1181
sg76
(lp1193
S':'
asbag69
(g90
g71
NtRp1194
(dp1195
g74
(dp1196
sg83
g1181
sg76
(lp1197
g69
(g70
g71
NtRp1198
(dp1199
g74
(dp1200
g82
I4
ssg83
g1194
sg76
(lp1201
S'/home/kaique/Projects/web/big-votes/web2py'
p1202
asbasbasbag69
(g85
g71
NtRp1203
(dp1204
g74
(dp1205
sg83
g1043
sg76
(lp1206
g69
(g90
g71
NtRp1207
(dp1208
g74
(dp1209
g94
g95
ssg83
g1203
sg76
(lp1210
S'http_accept'
p1211
asbag69
(g90
g71
NtRp1212
(dp1213
g74
(dp1214
g101
g102
ssg83
g1203
sg76
(lp1215
S':'
asbag69
(g90
g71
NtRp1216
(dp1217
g74
(dp1218
sg83
g1203
sg76
(lp1219
g69
(g70
g71
NtRp1220
(dp1221
g74
(dp1222
g82
I4
ssg83
g1216
sg76
(lp1223
S'text/html,application/xhtml+xml,application/xml;q=0.9,*/*;q=0.8'
p1224
asbasbasbag69
(g85
g71
NtRp1225
(dp1226
g74
(dp1227
sg83
g1043
sg76
(lp1228
g69
(g90
g71
NtRp1229
(dp1230
g74
(dp1231
g94
g95
ssg83
g1225
sg76
(lp1232
S'http_accept_encoding'
p1233
asbag69
(g90
g71
NtRp1234
(dp1235
g74
(dp1236
g101
g102
ssg83
g1225
sg76
(lp1237
S':'
asbag69
(g90
g71
NtRp1238
(dp1239
g74
(dp1240
sg83
g1225
sg76
(lp1241
g69
(g70
g71
NtRp1242
(dp1243
g74
(dp1244
g82
I4
ssg83
g1238
sg76
(lp1245
S'gzip, deflate'
p1246
asbasbasbag69
(g85
g71
NtRp1247
(dp1248
g74
(dp1249
sg83
g1043
sg76
(lp1250
g69
(g90
g71
NtRp1251
(dp1252
g74
(dp1253
g94
g95
ssg83
g1247
sg76
(lp1254
S'http_accept_language'
p1255
asbag69
(g90
g71
NtRp1256
(dp1257
g74
(dp1258
g101
g102
ssg83
g1247
sg76
(lp1259
S':'
asbag69
(g90
g71
NtRp1260
(dp1261
g74
(dp1262
sg83
g1247
sg76
(lp1263
g69
(g70
g71
NtRp1264
(dp1265
g74
(dp1266
g82
I4
ssg83
g1260
sg76
(lp1267
S'en-us,en;q=0.5'
p1268
asbasbasbag69
(g85
g71
NtRp1269
(dp1270
g74
(dp1271
sg83
g1043
sg76
(lp1272
g69
(g90
g71
NtRp1273
(dp1274
g74
(dp1275
g94
g95
ssg83
g1269
sg76
(lp1276
S'http_cache_control'
p1277
asbag69
(g90
g71
NtRp1278
(dp1279
g74
(dp1280
g101
g102
ssg83
g1269
sg76
(lp1281
S':'
asbag69
(g90
g71
NtRp1282
(dp1283
g74
(dp1284
sg83
g1269
sg76
(lp1285
g69
(g70
g71
NtRp1286
(dp1287
g74
(dp1288
g82
I4
ssg83
g1282
sg76
(lp1289
S'max-age=0'
p1290
asbasbasbag69
(g85
g71
NtRp1291
(dp1292
g74
(dp1293
sg83
g1043
sg76
(lp1294
g69
(g90
g71
NtRp1295
(dp1296
g74
(dp1297
g94
g95
ssg83
g1291
sg76
(lp1298
S'http_connection'
p1299
asbag69
(g90
g71
NtRp1300
(dp1301
g74
(dp1302
g101
g102
ssg83
g1291
sg76
(lp1303
S':'
asbag69
(g90
g71
NtRp1304
(dp1305
g74
(dp1306
sg83
g1291
sg76
(lp1307
g69
(g70
g71
NtRp1308
(dp1309
g74
(dp1310
g82
I4
ssg83
g1304
sg76
(lp1311
S'keep-alive'
p1312
asbasbasbag69
(g85
g71
NtRp1313
(dp1314
g74
(dp1315
sg83
g1043
sg76
(lp1316
g69
(g90
g71
NtRp1317
(dp1318
g74
(dp1319
g94
g95
ssg83
g1313
sg76
(lp1320
S'http_cookie'
p1321
asbag69
(g90
g71
NtRp1322
(dp1323
g74
(dp1324
g101
g102
ssg83
g1313
sg76
(lp1325
S':'
asbag69
(g90
g71
NtRp1326
(dp1327
g74
(dp1328
sg83
g1313
sg76
(lp1329
g69
(g70
g71
NtRp1330
(dp1331
g74
(dp1332
g82
I4
ssg83
g1326
sg76
(lp1333
S'csrftoken=r2s3rHsL2VaG5xgaClxwTaQPVGYnDeKM; session_id_welcome=127.0.0.1-00f936f1-3201-41f2-80aa-567fdb1c15bd; session_id_admin=127.0.0.1-9dac0408-3b9f-428e-96c0-14b8b6577f45; session_id_bigvotes=127.0.0.1-ba5ce9fa-c895-45be-84b3-2df477c6d5e4'
p1334
asbasbasbag69
(g85
g71
NtRp1335
(dp1336
g74
(dp1337
sg83
g1043
sg76
(lp1338
g69
(g90
g71
NtRp1339
(dp1340
g74
(dp1341
g94
g95
ssg83
g1335
sg76
(lp1342
S'http_host'
p1343
asbag69
(g90
g71
NtRp1344
(dp1345
g74
(dp1346
g101
g102
ssg83
g1335
sg76
(lp1347
S':'
asbag69
(g90
g71
NtRp1348
(dp1349
g74
(dp1350
sg83
g1335
sg76
(lp1351
g69
(g70
g71
NtRp1352
(dp1353
g74
(dp1354
g82
I4
ssg83
g1348
sg76
(lp1355
S'127.0.0.1:8000'
p1356
asbasbasbag69
(g85
g71
NtRp1357
(dp1358
g74
(dp1359
sg83
g1043
sg76
(lp1360
g69
(g90
g71
NtRp1361
(dp1362
g74
(dp1363
g94
g95
ssg83
g1357
sg76
(lp1364
S'http_referer'
p1365
asbag69
(g90
g71
NtRp1366
(dp1367
g74
(dp1368
g101
g102
ssg83
g1357
sg76
(lp1369
S':'
asbag69
(g90
g71
NtRp1370
(dp1371
g74
(dp1372
sg83
g1357
sg76
(lp1373
g69
(g70
g71
NtRp1374
(dp1375
g74
(dp1376
g82
I4
ssg83
g1370
sg76
(lp1377
S'http://127.0.0.1:8000/bigvotes/default/index'
p1378
asbasbasbag69
(g85
g71
NtRp1379
(dp1380
g74
(dp1381
sg83
g1043
sg76
(lp1382
g69
(g90
g71
NtRp1383
(dp1384
g74
(dp1385
g94
g95
ssg83
g1379
sg76
(lp1386
S'http_user_agent'
p1387
asbag69
(g90
g71
NtRp1388
(dp1389
g74
(dp1390
g101
g102
ssg83
g1379
sg76
(lp1391
S':'
asbag69
(g90
g71
NtRp1392
(dp1393
g74
(dp1394
sg83
g1379
sg76
(lp1395
g69
(g70
g71
NtRp1396
(dp1397
g74
(dp1398
g82
I4
ssg83
g1392
sg76
(lp1399
S'Mozilla/5.0 (X11; Linux i686; rv:11.0) Gecko/20100101 Firefox/11.0'
p1400
asbasbasbag69
(g85
g71
NtRp1401
(dp1402
g74
(dp1403
sg83
g1043
sg76
(lp1404
g69
(g90
g71
NtRp1405
(dp1406
g74
(dp1407
g94
g95
ssg83
g1401
sg76
(lp1408
S'is_jython'
p1409
asbag69
(g90
g71
NtRp1410
(dp1411
g74
(dp1412
g101
g102
ssg83
g1401
sg76
(lp1413
S':'
asbag69
(g90
g71
NtRp1414
(dp1415
g74
(dp1416
sg83
g1401
sg76
(lp1417
g69
(g70
g71
NtRp1418
(dp1419
g74
(dp1420
g82
I4
ssg83
g1414
sg76
(lp1421
g112
asbasbasbag69
(g85
g71
NtRp1422
(dp1423
g74
(dp1424
sg83
g1043
sg76
(lp1425
g69
(g90
g71
NtRp1426
(dp1427
g74
(dp1428
g94
g95
ssg83
g1422
sg76
(lp1429
S'is_pypy'
p1430
asbag69
(g90
g71
NtRp1431
(dp1432
g74
(dp1433
g101
g102
ssg83
g1422
sg76
(lp1434
S':'
asbag69
(g90
g71
NtRp1435
(dp1436
g74
(dp1437
sg83
g1422
sg76
(lp1438
g69
(g70
g71
NtRp1439
(dp1440
g74
(dp1441
g82
I4
ssg83
g1435
sg76
(lp1442
g112
asbasbasbag69
(g85
g71
NtRp1443
(dp1444
g74
(dp1445
sg83
g1043
sg76
(lp1446
g69
(g90
g71
NtRp1447
(dp1448
g74
(dp1449
g94
g95
ssg83
g1443
sg76
(lp1450
S'path_info'
p1451
asbag69
(g90
g71
NtRp1452
(dp1453
g74
(dp1454
g101
g102
ssg83
g1443
sg76
(lp1455
S':'
asbag69
(g90
g71
NtRp1456
(dp1457
g74
(dp1458
sg83
g1443
sg76
(lp1459
g69
(g70
g71
NtRp1460
(dp1461
g74
(dp1462
g82
I4
ssg83
g1456
sg76
(lp1463
S'/bigvotes/vote/index/1/1'
p1464
asbasbasbag69
(g85
g71
NtRp1465
(dp1466
g74
(dp1467
sg83
g1043
sg76
(lp1468
g69
(g90
g71
NtRp1469
(dp1470
g74
(dp1471
g94
g95
ssg83
g1465
sg76
(lp1472
S'query_string'
p1473
asbag69
(g90
g71
NtRp1474
(dp1475
g74
(dp1476
g101
g102
ssg83
g1465
sg76
(lp1477
S':'
asbag69
(g90
g71
NtRp1478
(dp1479
g74
(dp1480
sg83
g1465
sg76
(lp1481
g69
(g70
g71
NtRp1482
(dp1483
g74
(dp1484
g82
I4
ssg83
g1478
sg76
(lp1485
S''
asbasbasbag69
(g85
g71
NtRp1486
(dp1487
g74
(dp1488
sg83
g1043
sg76
(lp1489
g69
(g90
g71
NtRp1490
(dp1491
g74
(dp1492
g94
g95
ssg83
g1486
sg76
(lp1493
S'remote_addr'
p1494
asbag69
(g90
g71
NtRp1495
(dp1496
g74
(dp1497
g101
g102
ssg83
g1486
sg76
(lp1498
S':'
asbag69
(g90
g71
NtRp1499
(dp1500
g74
(dp1501
sg83
g1486
sg76
(lp1502
g69
(g70
g71
NtRp1503
(dp1504
g74
(dp1505
g82
I4
ssg83
g1499
sg76
(lp1506
g226
asbasbasbag69
(g85
g71
NtRp1507
(dp1508
g74
(dp1509
sg83
g1043
sg76
(lp1510
g69
(g90
g71
NtRp1511
(dp1512
g74
(dp1513
g94
g95
ssg83
g1507
sg76
(lp1514
S'remote_port'
p1515
asbag69
(g90
g71
NtRp1516
(dp1517
g74
(dp1518
g101
g102
ssg83
g1507
sg76
(lp1519
S':'
asbag69
(g90
g71
NtRp1520
(dp1521
g74
(dp1522
sg83
g1507
sg76
(lp1523
g69
(g70
g71
NtRp1524
(dp1525
g74
(dp1526
g82
I4
ssg83
g1520
sg76
(lp1527
S'41659'
p1528
asbasbasbag69
(g85
g71
NtRp1529
(dp1530
g74
(dp1531
sg83
g1043
sg76
(lp1532
g69
(g90
g71
NtRp1533
(dp1534
g74
(dp1535
g94
g95
ssg83
g1529
sg76
(lp1536
S'request_method'
p1537
asbag69
(g90
g71
NtRp1538
(dp1539
g74
(dp1540
g101
g102
ssg83
g1529
sg76
(lp1541
S':'
asbag69
(g90
g71
NtRp1542
(dp1543
g74
(dp1544
sg83
g1529
sg76
(lp1545
g69
(g70
g71
NtRp1546
(dp1547
g74
(dp1548
g82
I4
ssg83
g1542
sg76
(lp1549
S'GET'
p1550
asbasbasbag69
(g85
g71
NtRp1551
(dp1552
g74
(dp1553
sg83
g1043
sg76
(lp1554
g69
(g90
g71
NtRp1555
(dp1556
g74
(dp1557
g94
g95
ssg83
g1551
sg76
(lp1558
S'request_uri'
p1559
asbag69
(g90
g71
NtRp1560
(dp1561
g74
(dp1562
g101
g102
ssg83
g1551
sg76
(lp1563
S':'
asbag69
(g90
g71
NtRp1564
(dp1565
g74
(dp1566
sg83
g1551
sg76
(lp1567
g69
(g70
g71
NtRp1568
(dp1569
g74
(dp1570
g82
I4
ssg83
g1564
sg76
(lp1571
g1464
asbasbasbag69
(g85
g71
NtRp1572
(dp1573
g74
(dp1574
sg83
g1043
sg76
(lp1575
g69
(g90
g71
NtRp1576
(dp1577
g74
(dp1578
g94
g95
ssg83
g1572
sg76
(lp1579
S'script_name'
p1580
asbag69
(g90
g71
NtRp1581
(dp1582
g74
(dp1583
g101
g102
ssg83
g1572
sg76
(lp1584
S':'
asbag69
(g90
g71
NtRp1585
(dp1586
g74
(dp1587
sg83
g1572
sg76
(lp1588
g69
(g70
g71
NtRp1589
(dp1590
g74
(dp1591
g82
I4
ssg83
g1585
sg76
(lp1592
S''
asbasbasbag69
(g85
g71
NtRp1593
(dp1594
g74
(dp1595
sg83
g1043
sg76
(lp1596
g69
(g90
g71
NtRp1597
(dp1598
g74
(dp1599
g94
g95
ssg83
g1593
sg76
(lp1600
S'server_name'
p1601
asbag69
(g90
g71
NtRp1602
(dp1603
g74
(dp1604
g101
g102
ssg83
g1593
sg76
(lp1605
S':'
asbag69
(g90
g71
NtRp1606
(dp1607
g74
(dp1608
sg83
g1593
sg76
(lp1609
g69
(g70
g71
NtRp1610
(dp1611
g74
(dp1612
g82
I4
ssg83
g1606
sg76
(lp1613
S'localhost.localdomain'
p1614
asbasbasbag69
(g85
g71
NtRp1615
(dp1616
g74
(dp1617
sg83
g1043
sg76
(lp1618
g69
(g90
g71
NtRp1619
(dp1620
g74
(dp1621
g94
g95
ssg83
g1615
sg76
(lp1622
S'server_port'
p1623
asbag69
(g90
g71
NtRp1624
(dp1625
g74
(dp1626
g101
g102
ssg83
g1615
sg76
(lp1627
S':'
asbag69
(g90
g71
NtRp1628
(dp1629
g74
(dp1630
sg83
g1615
sg76
(lp1631
g69
(g70
g71
NtRp1632
(dp1633
g74
(dp1634
g82
I4
ssg83
g1628
sg76
(lp1635
S'8000'
p1636
asbasbasbag69
(g85
g71
NtRp1637
(dp1638
g74
(dp1639
sg83
g1043
sg76
(lp1640
g69
(g90
g71
NtRp1641
(dp1642
g74
(dp1643
g94
g95
ssg83
g1637
sg76
(lp1644
S'server_protocol'
p1645
asbag69
(g90
g71
NtRp1646
(dp1647
g74
(dp1648
g101
g102
ssg83
g1637
sg76
(lp1649
S':'
asbag69
(g90
g71
NtRp1650
(dp1651
g74
(dp1652
sg83
g1637
sg76
(lp1653
g69
(g70
g71
NtRp1654
(dp1655
g74
(dp1656
g82
I4
ssg83
g1650
sg76
(lp1657
S'HTTP/1.1'
p1658
asbasbasbag69
(g85
g71
NtRp1659
(dp1660
g74
(dp1661
sg83
g1043
sg76
(lp1662
g69
(g90
g71
NtRp1663
(dp1664
g74
(dp1665
g94
g95
ssg83
g1659
sg76
(lp1666
S'server_software'
p1667
asbag69
(g90
g71
NtRp1668
(dp1669
g74
(dp1670
g101
g102
ssg83
g1659
sg76
(lp1671
S':'
asbag69
(g90
g71
NtRp1672
(dp1673
g74
(dp1674
sg83
g1659
sg76
(lp1675
g69
(g70
g71
NtRp1676
(dp1677
g74
(dp1678
g82
I4
ssg83
g1672
sg76
(lp1679
S'Rocket 1.2.4'
p1680
asbasbasbag69
(g85
g71
NtRp1681
(dp1682
g74
(dp1683
sg83
g1043
sg76
(lp1684
g69
(g90
g71
NtRp1685
(dp1686
g74
(dp1687
g94
g95
ssg83
g1681
sg76
(lp1688
S'web2py_crontype'
p1689
asbag69
(g90
g71
NtRp1690
(dp1691
g74
(dp1692
g101
g102
ssg83
g1681
sg76
(lp1693
S':'
asbag69
(g90
g71
NtRp1694
(dp1695
g74
(dp1696
sg83
g1681
sg76
(lp1697
g69
(g70
g71
NtRp1698
(dp1699
g74
(dp1700
g82
I4
ssg83
g1694
sg76
(lp1701
S'hard'
p1702
asbasbasbag69
(g85
g71
NtRp1703
(dp1704
g74
(dp1705
sg83
g1043
sg76
(lp1706
g69
(g90
g71
NtRp1707
(dp1708
g74
(dp1709
g94
g95
ssg83
g1703
sg76
(lp1710
S'web2py_original_uri'
p1711
asbag69
(g90
g71
NtRp1712
(dp1713
g74
(dp1714
g101
g102
ssg83
g1703
sg76
(lp1715
S':'
asbag69
(g90
g71
NtRp1716
(dp1717
g74
(dp1718
sg83
g1703
sg76
(lp1719
g69
(g70
g71
NtRp1720
(dp1721
g74
(dp1722
g82
I4
ssg83
g1716
sg76
(lp1723
g1464
asbasbasbag69
(g85
g71
NtRp1724
(dp1725
g74
(dp1726
sg83
g1043
sg76
(lp1727
g69
(g90
g71
NtRp1728
(dp1729
g74
(dp1730
g94
g95
ssg83
g1724
sg76
(lp1731
S'web2py_path'
p1732
asbag69
(g90
g71
NtRp1733
(dp1734
g74
(dp1735
g101
g102
ssg83
g1724
sg76
(lp1736
S':'
asbag69
(g90
g71
NtRp1737
(dp1738
g74
(dp1739
sg83
g1724
sg76
(lp1740
g69
(g70
g71
NtRp1741
(dp1742
g74
(dp1743
g82
I4
ssg83
g1737
sg76
(lp1744
g1090
asbasbasbag69
(g85
g71
NtRp1745
(dp1746
g74
(dp1747
sg83
g1043
sg76
(lp1748
g69
(g90
g71
NtRp1749
(dp1750
g74
(dp1751
g94
g95
ssg83
g1745
sg76
(lp1752
S'web2py_version'
p1753
asbag69
(g90
g71
NtRp1754
(dp1755
g74
(dp1756
g101
g102
ssg83
g1745
sg76
(lp1757
S':'
asbag69
(g90
g71
NtRp1758
(dp1759
g74
(dp1760
sg83
g1745
sg76
(lp1761
g69
(g70
g71
NtRp1762
(dp1763
g74
(dp1764
g82
I4
ssg83
g1758
sg76
(lp1765
g69
(g78
g71
NtRp1766
(dp1767
g74
(dp1768
g82
I3
ssg83
Nsg76
(lp1769
g69
(g85
g71
NtRp1770
(dp1771
g74
(dp1772
sg83
g1766
sg76
(lp1773
g69
(g90
g71
NtRp1774
(dp1775
g74
(dp1776
sg83
g1770
sg76
(lp1777
g69
(g70
g71
NtRp1778
(dp1779
g74
(dp1780
g82
I3
ssg83
g1774
sg76
(lp1781
S'1'
asbasbasbag69
(g85
g71
NtRp1782
(dp1783
g74
(dp1784
sg83
g1766
sg76
(lp1785
g69
(g90
g71
NtRp1786
(dp1787
g74
(dp1788
sg83
g1782
sg76
(lp1789
g69
(g70
g71
NtRp1790
(dp1791
g74
(dp1792
g82
I3
ssg83
g1786
sg76
(lp1793
S'99'
p1794
asbasbasbag69
(g85
g71
NtRp1795
(dp1796
g74
(dp1797
sg83
g1766
sg76
(lp1798
g69
(g90
g71
NtRp1799
(dp1800
g74
(dp1801
sg83
g1795
sg76
(lp1802
g69
(g70
g71
NtRp1803
(dp1804
g74
(dp1805
g82
I3
ssg83
g1799
sg76
(lp1806
S'7'
asbasbasbag69
(g85
g71
NtRp1807
(dp1808
g74
(dp1809
sg83
g1766
sg76
(lp1810
g69
(g90
g71
NtRp1811
(dp1812
g74
(dp1813
sg83
g1807
sg76
(lp1814
g69
(g70
g71
NtRp1815
(dp1816
g74
(dp1817
g82
I3
ssg83
g1811
sg76
(lp1818
S'datetime.datetime(2012, 3, 4, 22, 12, 8)'
p1819
asbasbasbag69
(g85
g71
NtRp1820
(dp1821
g74
(dp1822
sg83
g1766
sg76
(lp1823
g69
(g90
g71
NtRp1824
(dp1825
g74
(dp1826
sg83
g1820
sg76
(lp1827
g69
(g70
g71
NtRp1828
(dp1829
g74
(dp1830
g82
I3
ssg83
g1824
sg76
(lp1831
S'stable'
p1832
asbasbasbasbasbasbasbag69
(g85
g71
NtRp1833
(dp1834
g74
(dp1835
sg83
g1043
sg76
(lp1836
g69
(g90
g71
NtRp1837
(dp1838
g74
(dp1839
g94
g95
ssg83
g1833
sg76
(lp1840
S'wsgi_errors'
p1841
asbag69
(g90
g71
NtRp1842
(dp1843
g74
(dp1844
g101
g102
ssg83
g1833
sg76
(lp1845
S':'
asbag69
(g90
g71
NtRp1846
(dp1847
g74
(dp1848
sg83
g1833
sg76
(lp1849
g69
(g70
g71
NtRp1850
(dp1851
g74
(dp1852
g82
I4
ssg83
g1846
sg76
(lp1853
S"<open file '<stderr>', mode 'w' at 0xb775c0d0>"
p1854
asbasbasbag69
(g85
g71
NtRp1855
(dp1856
g74
(dp1857
sg83
g1043
sg76
(lp1858
g69
(g90
g71
NtRp1859
(dp1860
g74
(dp1861
g94
g95
ssg83
g1855
sg76
(lp1862
S'wsgi_file_wrapper'
p1863
asbag69
(g90
g71
NtRp1864
(dp1865
g74
(dp1866
g101
g102
ssg83
g1855
sg76
(lp1867
S':'
asbag69
(g90
g71
NtRp1868
(dp1869
g74
(dp1870
sg83
g1855
sg76
(lp1871
g69
(g70
g71
NtRp1872
(dp1873
g74
(dp1874
g82
I4
ssg83
g1868
sg76
(lp1875
S'<class wsgiref.util.FileWrapper at 0x94dbe6c>'
p1876
asbasbasbag69
(g85
g71
NtRp1877
(dp1878
g74
(dp1879
sg83
g1043
sg76
(lp1880
g69
(g90
g71
NtRp1881
(dp1882
g74
(dp1883
g94
g95
ssg83
g1877
sg76
(lp1884
S'wsgi_input'
p1885
asbag69
(g90
g71
NtRp1886
(dp1887
g74
(dp1888
g101
g102
ssg83
g1877
sg76
(lp1889
S':'
asbag69
(g90
g71
NtRp1890
(dp1891
g74
(dp1892
sg83
g1877
sg76
(lp1893
g69
(g70
g71
NtRp1894
(dp1895
g74
(dp1896
g82
I4
ssg83
g1890
sg76
(lp1897
S'<socket._fileobject object at 0xb005796c>'
p1898
asbasbasbag69
(g85
g71
NtRp1899
(dp1900
g74
(dp1901
sg83
g1043
sg76
(lp1902
g69
(g90
g71
NtRp1903
(dp1904
g74
(dp1905
g94
g95
ssg83
g1899
sg76
(lp1906
S'wsgi_multiprocess'
p1907
asbag69
(g90
g71
NtRp1908
(dp1909
g74
(dp1910
g101
g102
ssg83
g1899
sg76
(lp1911
S':'
asbag69
(g90
g71
NtRp1912
(dp1913
g74
(dp1914
sg83
g1899
sg76
(lp1915
g69
(g70
g71
NtRp1916
(dp1917
g74
(dp1918
g82
I4
ssg83
g1912
sg76
(lp1919
g112
asbasbasbag69
(g85
g71
NtRp1920
(dp1921
g74
(dp1922
sg83
g1043
sg76
(lp1923
g69
(g90
g71
NtRp1924
(dp1925
g74
(dp1926
g94
g95
ssg83
g1920
sg76
(lp1927
S'wsgi_multithread'
p1928
asbag69
(g90
g71
NtRp1929
(dp1930
g74
(dp1931
g101
g102
ssg83
g1920
sg76
(lp1932
S':'
asbag69
(g90
g71
NtRp1933
(dp1934
g74
(dp1935
sg83
g1920
sg76
(lp1936
g69
(g70
g71
NtRp1937
(dp1938
g74
(dp1939
g82
I4
ssg83
g1933
sg76
(lp1940
S'True'
p1941
asbasbasbag69
(g85
g71
NtRp1942
(dp1943
g74
(dp1944
sg83
g1043
sg76
(lp1945
g69
(g90
g71
NtRp1946
(dp1947
g74
(dp1948
g94
g95
ssg83
g1942
sg76
(lp1949
S'wsgi_run_once'
p1950
asbag69
(g90
g71
NtRp1951
(dp1952
g74
(dp1953
g101
g102
ssg83
g1942
sg76
(lp1954
S':'
asbag69
(g90
g71
NtRp1955
(dp1956
g74
(dp1957
sg83
g1942
sg76
(lp1958
g69
(g70
g71
NtRp1959
(dp1960
g74
(dp1961
g82
I4
ssg83
g1955
sg76
(lp1962
g112
asbasbasbag69
(g85
g71
NtRp1963
(dp1964
g74
(dp1965
sg83
g1043
sg76
(lp1966
g69
(g90
g71
NtRp1967
(dp1968
g74
(dp1969
g94
g95
ssg83
g1963
sg76
(lp1970
S'wsgi_url_scheme'
p1971
asbag69
(g90
g71
NtRp1972
(dp1973
g74
(dp1974
g101
g102
ssg83
g1963
sg76
(lp1975
S':'
asbag69
(g90
g71
NtRp1976
(dp1977
g74
(dp1978
sg83
g1963
sg76
(lp1979
g69
(g70
g71
NtRp1980
(dp1981
g74
(dp1982
g82
I4
ssg83
g1976
sg76
(lp1983
S'http'
p1984
asbasbasbag69
(g85
g71
NtRp1985
(dp1986
g74
(dp1987
sg83
g1043
sg76
(lp1988
g69
(g90
g71
NtRp1989
(dp1990
g74
(dp1991
g94
g95
ssg83
g1985
sg76
(lp1992
S'wsgi_version'
p1993
asbag69
(g90
g71
NtRp1994
(dp1995
g74
(dp1996
g101
g102
ssg83
g1985
sg76
(lp1997
S':'
asbag69
(g90
g71
NtRp1998
(dp1999
g74
(dp2000
sg83
g1985
sg76
(lp2001
g69
(g70
g71
NtRp2002
(dp2003
g74
(dp2004
g82
I4
ssg83
g1998
sg76
(lp2005
g69
(g78
g71
NtRp2006
(dp2007
g74
(dp2008
g82
I3
ssg83
Nsg76
(lp2009
g69
(g85
g71
NtRp2010
(dp2011
g74
(dp2012
sg83
g2006
sg76
(lp2013
g69
(g90
g71
NtRp2014
(dp2015
g74
(dp2016
sg83
g2010
sg76
(lp2017
g69
(g70
g71
NtRp2018
(dp2019
g74
(dp2020
g82
I3
ssg83
g2014
sg76
(lp2021
S'1'
asbasbasbag69
(g85
g71
NtRp2022
(dp2023
g74
(dp2024
sg83
g2006
sg76
(lp2025
g69
(g90
g71
NtRp2026
(dp2027
g74
(dp2028
sg83
g2022
sg76
(lp2029
g69
(g70
g71
NtRp2030
(dp2031
g74
(dp2032
g82
I3
ssg83
g2026
sg76
(lp2033
S'0'
asbasbasbasbasbasbasbasbasbasbasbag69
(g85
g71
NtRp2034
(dp2035
g74
(dp2036
sg83
g79
sg76
(lp2037
g69
(g90
g71
NtRp2038
(dp2039
g74
(dp2040
g94
g95
ssg83
g2034
sg76
(lp2041
S'extension'
p2042
asbag69
(g90
g71
NtRp2043
(dp2044
g74
(dp2045
g101
g102
ssg83
g2034
sg76
(lp2046
S':'
asbag69
(g90
g71
NtRp2047
(dp2048
g74
(dp2049
sg83
g2034
sg76
(lp2050
g69
(g70
g71
NtRp2051
(dp2052
g74
(dp2053
g82
I5
ssg83
g2047
sg76
(lp2054
S'html'
p2055
asbasbasbag69
(g85
g71
NtRp2056
(dp2057
g74
(dp2058
sg83
g79
sg76
(lp2059
g69
(g90
g71
NtRp2060
(dp2061
g74
(dp2062
g94
g95
ssg83
g2056
sg76
(lp2063
S'folder'
p2064
asbag69
(g90
g71
NtRp2065
(dp2066
g74
(dp2067
g101
g102
ssg83
g2056
sg76
(lp2068
S':'
asbag69
(g90
g71
NtRp2069
(dp2070
g74
(dp2071
sg83
g2056
sg76
(lp2072
g69
(g70
g71
NtRp2073
(dp2074
g74
(dp2075
g82
I5
ssg83
g2069
sg76
(lp2076
S'/home/kaique/Projects/web/big-votes/web2py/applications/bigvotes/'
p2077
asbasbasbag69
(g85
g71
NtRp2078
(dp2079
g74
(dp2080
sg83
g79
sg76
(lp2081
g69
(g90
g71
NtRp2082
(dp2083
g74
(dp2084
g94
g95
ssg83
g2078
sg76
(lp2085
S'function'
p2086
asbag69
(g90
g71
NtRp2087
(dp2088
g74
(dp2089
g101
g102
ssg83
g2078
sg76
(lp2090
S':'
asbag69
(g90
g71
NtRp2091
(dp2092
g74
(dp2093
sg83
g2078
sg76
(lp2094
g69
(g70
g71
NtRp2095
(dp2096
g74
(dp2097
g82
I5
ssg83
g2091
sg76
(lp2098
S'index'
p2099
asbasbasbag69
(g85
g71
NtRp2100
(dp2101
g74
(dp2102
sg83
g79
sg76
(lp2103
g69
(g90
g71
NtRp2104
(dp2105
g74
(dp2106
g94
g95
ssg83
g2100
sg76
(lp2107
S'get_vars'
p2108
asbag69
(g90
g71
NtRp2109
(dp2110
g74
(dp2111
g101
g102
ssg83
g2100
sg76
(lp2112
S':'
asbag69
(g90
g71
NtRp2113
(dp2114
g74
(dp2115
sg83
g2100
sg76
(lp2116
g69
(g70
g71
NtRp2117
(dp2118
g74
(dp2119
g82
I5
ssg83
g2113
sg76
(lp2120
g69
(g78
g71
NtRp2121
(dp2122
g74
(dp2123
g82
I4
ssg83
Nsg76
(lp2124
sbasbasbasbag69
(g85
g71
NtRp2125
(dp2126
g74
(dp2127
sg83
g79
sg76
(lp2128
g69
(g90
g71
NtRp2129
(dp2130
g74
(dp2131
g94
g95
ssg83
g2125
sg76
(lp2132
S'global_settings'
p2133
asbag69
(g90
g71
NtRp2134
(dp2135
g74
(dp2136
g101
g102
ssg83
g2125
sg76
(lp2137
S':'
asbag69
(g90
g71
NtRp2138
(dp2139
g74
(dp2140
sg83
g2125
sg76
(lp2141
g69
(g70
g71
NtRp2142
(dp2143
g74
(dp2144
g82
I5
ssg83
g2138
sg76
(lp2145
g69
(g78
g71
NtRp2146
(dp2147
g74
(dp2148
g82
I4
ssg83
Nsg76
(lp2149
g69
(g85
g71
NtRp2150
(dp2151
g74
(dp2152
sg83
g2146
sg76
(lp2153
g69
(g90
g71
NtRp2154
(dp2155
g74
(dp2156
g94
g95
ssg83
g2150
sg76
(lp2157
g1055
asbag69
(g90
g71
NtRp2158
(dp2159
g74
(dp2160
g101
g102
ssg83
g2150
sg76
(lp2161
S':'
asbag69
(g90
g71
NtRp2162
(dp2163
g74
(dp2164
sg83
g2150
sg76
(lp2165
g69
(g70
g71
NtRp2166
(dp2167
g74
(dp2168
g82
I4
ssg83
g2162
sg76
(lp2169
S"set(['/home/kaique/Projects/web/big-votes/web2py/applications/bigvotes/', '/home/kaique/Projects/web/big-votes/web2py/applications/admin/'])"
p2170
asbasbasbag69
(g85
g71
NtRp2171
(dp2172
g74
(dp2173
sg83
g2146
sg76
(lp2174
g69
(g90
g71
NtRp2175
(dp2176
g74
(dp2177
g94
g95
ssg83
g2171
sg76
(lp2178
g1077
asbag69
(g90
g71
NtRp2179
(dp2180
g74
(dp2181
g101
g102
ssg83
g2171
sg76
(lp2182
S':'
asbag69
(g90
g71
NtRp2183
(dp2184
g74
(dp2185
sg83
g2171
sg76
(lp2186
g69
(g70
g71
NtRp2187
(dp2188
g74
(dp2189
g82
I4
ssg83
g2183
sg76
(lp2190
g1090
asbasbasbag69
(g85
g71
NtRp2191
(dp2192
g74
(dp2193
sg83
g2146
sg76
(lp2194
g69
(g90
g71
NtRp2195
(dp2196
g74
(dp2197
g94
g95
ssg83
g2191
sg76
(lp2198
g1099
asbag69
(g90
g71
NtRp2199
(dp2200
g74
(dp2201
g101
g102
ssg83
g2191
sg76
(lp2202
S':'
asbag69
(g90
g71
NtRp2203
(dp2204
g74
(dp2205
sg83
g2191
sg76
(lp2206
g69
(g70
g71
NtRp2207
(dp2208
g74
(dp2209
g82
I4
ssg83
g2203
sg76
(lp2210
g69
(g78
g71
NtRp2211
(dp2212
g74
(dp2213
g82
I3
ssg83
Nsg76
(lp2214
sbasbasbasbag69
(g85
g71
NtRp2215
(dp2216
g74
(dp2217
sg83
g2146
sg76
(lp2218
g69
(g90
g71
NtRp2219
(dp2220
g74
(dp2221
g94
g95
ssg83
g2215
sg76
(lp2222
g1124
asbag69
(g90
g71
NtRp2223
(dp2224
g74
(dp2225
g101
g102
ssg83
g2215
sg76
(lp2226
S':'
asbag69
(g90
g71
NtRp2227
(dp2228
g74
(dp2229
sg83
g2215
sg76
(lp2230
g69
(g70
g71
NtRp2231
(dp2232
g74
(dp2233
g82
I4
ssg83
g2227
sg76
(lp2234
S"<Values at 0x950568c: {'verbose': False, 'ip': '127.0.0.1', 'shutdown_timeout': 5, 'taskbar': False, 'nocron': False, 'pid_filename': 'httpserver.pid', 'maxthreads': None, 'softcron': False, 'server_name': 'localhost.localdomain', 'bpython': False, 'nogui': False, 'port': 8000, 'extcron': False, 'debuglevel': 30, 'test': None, 'folder': '/home/kaique/Projects/web/big-votes/web2py', 'config': '', 'import_models': False, 'winservice': '', 'shell': None, 'run': '', 'log_filename': 'httpserver.log', 'args': [''], 'socket_timeout': 5, 'ssl_ca_certificate': None, 'scheduler': None, 'profiler_filename': None, 'ssl_private_key': '', 'password': 'dev', 'request_queue_size': 5, 'ssl_certificate': '', 'cronjob': False, 'numthreads': None, 'quiet': False, 'interfaces': None, 'minthreads': None, 'timeout': 10, 'plain': False, 'nobanner': False}>"
p2235
asbasbasbag69
(g85
g71
NtRp2236
(dp2237
g74
(dp2238
sg83
g2146
sg76
(lp2239
g69
(g90
g71
NtRp2240
(dp2241
g74
(dp2242
g94
g95
ssg83
g2236
sg76
(lp2243
g1146
asbag69
(g90
g71
NtRp2244
(dp2245
g74
(dp2246
g101
g102
ssg83
g2236
sg76
(lp2247
S':'
asbag69
(g90
g71
NtRp2248
(dp2249
g74
(dp2250
sg83
g2236
sg76
(lp2251
g69
(g70
g71
NtRp2252
(dp2253
g74
(dp2254
g82
I4
ssg83
g2248
sg76
(lp2255
S'set([])'
p2256
asbasbasbag69
(g85
g71
NtRp2257
(dp2258
g74
(dp2259
sg83
g2146
sg76
(lp2260
g69
(g90
g71
NtRp2261
(dp2262
g74
(dp2263
g94
g95
ssg83
g2257
sg76
(lp2264
g1168
asbag69
(g90
g71
NtRp2265
(dp2266
g74
(dp2267
g101
g102
ssg83
g2257
sg76
(lp2268
S':'
asbag69
(g90
g71
NtRp2269
(dp2270
g74
(dp2271
sg83
g2257
sg76
(lp2272
g69
(g70
g71
NtRp2273
(dp2274
g74
(dp2275
g82
I4
ssg83
g2269
sg76
(lp2276
g112
asbasbasbag69
(g85
g71
NtRp2277
(dp2278
g74
(dp2279
sg83
g2146
sg76
(lp2280
g69
(g90
g71
NtRp2281
(dp2282
g74
(dp2283
g94
g95
ssg83
g2277
sg76
(lp2284
g1189
asbag69
(g90
g71
NtRp2285
(dp2286
g74
(dp2287
g101
g102
ssg83
g2277
sg76
(lp2288
S':'
asbag69
(g90
g71
NtRp2289
(dp2290
g74
(dp2291
sg83
g2277
sg76
(lp2292
g69
(g70
g71
NtRp2293
(dp2294
g74
(dp2295
g82
I4
ssg83
g2289
sg76
(lp2296
g1202
asbasbasbag69
(g85
g71
NtRp2297
(dp2298
g74
(dp2299
sg83
g2146
sg76
(lp2300
g69
(g90
g71
NtRp2301
(dp2302
g74
(dp2303
g94
g95
ssg83
g2297
sg76
(lp2304
g1409
asbag69
(g90
g71
NtRp2305
(dp2306
g74
(dp2307
g101
g102
ssg83
g2297
sg76
(lp2308
S':'
asbag69
(g90
g71
NtRp2309
(dp2310
g74
(dp2311
sg83
g2297
sg76
(lp2312
g69
(g70
g71
NtRp2313
(dp2314
g74
(dp2315
g82
I4
ssg83
g2309
sg76
(lp2316
g112
asbasbasbag69
(g85
g71
NtRp2317
(dp2318
g74
(dp2319
sg83
g2146
sg76
(lp2320
g69
(g90
g71
NtRp2321
(dp2322
g74
(dp2323
g94
g95
ssg83
g2317
sg76
(lp2324
g1430
asbag69
(g90
g71
NtRp2325
(dp2326
g74
(dp2327
g101
g102
ssg83
g2317
sg76
(lp2328
S':'
asbag69
(g90
g71
NtRp2329
(dp2330
g74
(dp2331
sg83
g2317
sg76
(lp2332
g69
(g70
g71
NtRp2333
(dp2334
g74
(dp2335
g82
I4
ssg83
g2329
sg76
(lp2336
g112
asbasbasbag69
(g85
g71
NtRp2337
(dp2338
g74
(dp2339
sg83
g2146
sg76
(lp2340
g69
(g90
g71
NtRp2341
(dp2342
g74
(dp2343
g94
g95
ssg83
g2337
sg76
(lp2344
g1689
asbag69
(g90
g71
NtRp2345
(dp2346
g74
(dp2347
g101
g102
ssg83
g2337
sg76
(lp2348
S':'
asbag69
(g90
g71
NtRp2349
(dp2350
g74
(dp2351
sg83
g2337
sg76
(lp2352
g69
(g70
g71
NtRp2353
(dp2354
g74
(dp2355
g82
I4
ssg83
g2349
sg76
(lp2356
g1702
asbasbasbag69
(g85
g71
NtRp2357
(dp2358
g74
(dp2359
sg83
g2146
sg76
(lp2360
g69
(g90
g71
NtRp2361
(dp2362
g74
(dp2363
g94
g95
ssg83
g2357
sg76
(lp2364
g1753
asbag69
(g90
g71
NtRp2365
(dp2366
g74
(dp2367
g101
g102
ssg83
g2357
sg76
(lp2368
S':'
asbag69
(g90
g71
NtRp2369
(dp2370
g74
(dp2371
sg83
g2357
sg76
(lp2372
g69
(g70
g71
NtRp2373
(dp2374
g74
(dp2375
g82
I4
ssg83
g2369
sg76
(lp2376
g69
(g78
g71
NtRp2377
(dp2378
g74
(dp2379
g82
I3
ssg83
Nsg76
(lp2380
g69
(g85
g71
NtRp2381
(dp2382
g74
(dp2383
sg83
g2377
sg76
(lp2384
g69
(g90
g71
NtRp2385
(dp2386
g74
(dp2387
sg83
g2381
sg76
(lp2388
g69
(g70
g71
NtRp2389
(dp2390
g74
(dp2391
g82
I3
ssg83
g2385
sg76
(lp2392
S'1'
asbasbasbag69
(g85
g71
NtRp2393
(dp2394
g74
(dp2395
sg83
g2377
sg76
(lp2396
g69
(g90
g71
NtRp2397
(dp2398
g74
(dp2399
sg83
g2393
sg76
(lp2400
g69
(g70
g71
NtRp2401
(dp2402
g74
(dp2403
g82
I3
ssg83
g2397
sg76
(lp2404
S'99'
p2405
asbasbasbag69
(g85
g71
NtRp2406
(dp2407
g74
(dp2408
sg83
g2377
sg76
(lp2409
g69
(g90
g71
NtRp2410
(dp2411
g74
(dp2412
sg83
g2406
sg76
(lp2413
g69
(g70
g71
NtRp2414
(dp2415
g74
(dp2416
g82
I3
ssg83
g2410
sg76
(lp2417
S'7'
asbasbasbag69
(g85
g71
NtRp2418
(dp2419
g74
(dp2420
sg83
g2377
sg76
(lp2421
g69
(g90
g71
NtRp2422
(dp2423
g74
(dp2424
sg83
g2418
sg76
(lp2425
g69
(g70
g71
NtRp2426
(dp2427
g74
(dp2428
g82
I3
ssg83
g2422
sg76
(lp2429
S'datetime.datetime(2012, 3, 4, 22, 12, 8)'
p2430
asbasbasbag69
(g85
g71
NtRp2431
(dp2432
g74
(dp2433
sg83
g2377
sg76
(lp2434
g69
(g90
g71
NtRp2435
(dp2436
g74
(dp2437
sg83
g2431
sg76
(lp2438
g69
(g70
g71
NtRp2439
(dp2440
g74
(dp2441
g82
I3
ssg83
g2435
sg76
(lp2442
g1832
asbasbasbasbasbasbasbasbasbasbasbag69
(g85
g71
NtRp2443
(dp2444
g74
(dp2445
sg83
g79
sg76
(lp2446
g69
(g90
g71
NtRp2447
(dp2448
g74
(dp2449
g94
g95
ssg83
g2443
sg76
(lp2450
S'is_https'
p2451
asbag69
(g90
g71
NtRp2452
(dp2453
g74
(dp2454
g101
g102
ssg83
g2443
sg76
(lp2455
S':'
asbag69
(g90
g71
NtRp2456
(dp2457
g74
(dp2458
sg83
g2443
sg76
(lp2459
g69
(g70
g71
NtRp2460
(dp2461
g74
(dp2462
g82
I5
ssg83
g2456
sg76
(lp2463
g112
asbasbasbag69
(g85
g71
NtRp2464
(dp2465
g74
(dp2466
sg83
g79
sg76
(lp2467
g69
(g90
g71
NtRp2468
(dp2469
g74
(dp2470
g94
g95
ssg83
g2464
sg76
(lp2471
S'is_local'
p2472
asbag69
(g90
g71
NtRp2473
(dp2474
g74
(dp2475
g101
g102
ssg83
g2464
sg76
(lp2476
S':'
asbag69
(g90
g71
NtRp2477
(dp2478
g74
(dp2479
sg83
g2464
sg76
(lp2480
g69
(g70
g71
NtRp2481
(dp2482
g74
(dp2483
g82
I5
ssg83
g2477
sg76
(lp2484
g1941
asbasbasbag69
(g85
g71
NtRp2485
(dp2486
g74
(dp2487
sg83
g79
sg76
(lp2488
g69
(g90
g71
NtRp2489
(dp2490
g74
(dp2491
g94
g95
ssg83
g2485
sg76
(lp2492
S'is_restful'
p2493
asbag69
(g90
g71
NtRp2494
(dp2495
g74
(dp2496
g101
g102
ssg83
g2485
sg76
(lp2497
S':'
asbag69
(g90
g71
NtRp2498
(dp2499
g74
(dp2500
sg83
g2485
sg76
(lp2501
g69
(g70
g71
NtRp2502
(dp2503
g74
(dp2504
g82
I5
ssg83
g2498
sg76
(lp2505
g112
asbasbasbag69
(g85
g71
NtRp2506
(dp2507
g74
(dp2508
sg83
g79
sg76
(lp2509
g69
(g90
g71
NtRp2510
(dp2511
g74
(dp2512
g94
g95
ssg83
g2506
sg76
(lp2513
S'now'
p2514
asbag69
(g90
g71
NtRp2515
(dp2516
g74
(dp2517
g101
g102
ssg83
g2506
sg76
(lp2518
S':'
asbag69
(g90
g71
NtRp2519
(dp2520
g74
(dp2521
sg83
g2506
sg76
(lp2522
g69
(g70
g71
NtRp2523
(dp2524
g74
(dp2525
g82
I5
ssg83
g2519
sg76
(lp2526
S'datetime.datetime(2012, 5, 21, 20, 59, 6, 582443)'
p2527
asbasbasbag69
(g85
g71
NtRp2528
(dp2529
g74
(dp2530
sg83
g79
sg76
(lp2531
g69
(g90
g71
NtRp2532
(dp2533
g74
(dp2534
g94
g95
ssg83
g2528
sg76
(lp2535
S'post_vars'
p2536
asbag69
(g90
g71
NtRp2537
(dp2538
g74
(dp2539
g101
g102
ssg83
g2528
sg76
(lp2540
S':'
asbag69
(g90
g71
NtRp2541
(dp2542
g74
(dp2543
sg83
g2528
sg76
(lp2544
g69
(g70
g71
NtRp2545
(dp2546
g74
(dp2547
g82
I5
ssg83
g2541
sg76
(lp2548
g69
(g78
g71
NtRp2549
(dp2550
g74
(dp2551
g82
I4
ssg83
Nsg76
(lp2552
sbasbasbasbag69
(g85
g71
NtRp2553
(dp2554
g74
(dp2555
sg83
g79
sg76
(lp2556
g69
(g90
g71
NtRp2557
(dp2558
g74
(dp2559
g94
g95
ssg83
g2553
sg76
(lp2560
S'raw_args'
p2561
asbag69
(g90
g71
NtRp2562
(dp2563
g74
(dp2564
g101
g102
ssg83
g2553
sg76
(lp2565
S':'
asbag69
(g90
g71
NtRp2566
(dp2567
g74
(dp2568
sg83
g2553
sg76
(lp2569
g69
(g70
g71
NtRp2570
(dp2571
g74
(dp2572
g82
I5
ssg83
g2566
sg76
(lp2573
S'1/1'
p2574
asbasbasbag69
(g85
g71
NtRp2575
(dp2576
g74
(dp2577
sg83
g79
sg76
(lp2578
g69
(g90
g71
NtRp2579
(dp2580
g74
(dp2581
g94
g95
ssg83
g2575
sg76
(lp2582
S'url'
p2583
asbag69
(g90
g71
NtRp2584
(dp2585
g74
(dp2586
g101
g102
ssg83
g2575
sg76
(lp2587
S':'
asbag69
(g90
g71
NtRp2588
(dp2589
g74
(dp2590
sg83
g2575
sg76
(lp2591
g69
(g70
g71
NtRp2592
(dp2593
g74
(dp2594
g82
I5
ssg83
g2588
sg76
(lp2595
S'/bigvotes/vote/index/1/1'
p2596
asbasbasbag69
(g85
g71
NtRp2597
(dp2598
g74
(dp2599
sg83
g79
sg76
(lp2600
g69
(g90
g71
NtRp2601
(dp2602
g74
(dp2603
g94
g95
ssg83
g2597
sg76
(lp2604
S'utcnow'
p2605
asbag69
(g90
g71
NtRp2606
(dp2607
g74
(dp2608
g101
g102
ssg83
g2597
sg76
(lp2609
S':'
asbag69
(g90
g71
NtRp2610
(dp2611
g74
(dp2612
sg83
g2597
sg76
(lp2613
g69
(g70
g71
NtRp2614
(dp2615
g74
(dp2616
g82
I5
ssg83
g2610
sg76
(lp2617
S'datetime.datetime(2012, 5, 21, 23, 59, 6, 582517)'
p2618
asbasbasbag69
(g85
g71
NtRp2619
(dp2620
g74
(dp2621
sg83
g79
sg76
(lp2622
g69
(g90
g71
NtRp2623
(dp2624
g74
(dp2625
g94
g95
ssg83
g2619
sg76
(lp2626
S'uuid'
p2627
asbag69
(g90
g71
NtRp2628
(dp2629
g74
(dp2630
g101
g102
ssg83
g2619
sg76
(lp2631
S':'
asbag69
(g90
g71
NtRp2632
(dp2633
g74
(dp2634
sg83
g2619
sg76
(lp2635
g69
(g70
g71
NtRp2636
(dp2637
g74
(dp2638
g82
I5
ssg83
g2632
sg76
(lp2639
S'bigvotes/127.0.0.1.2012-05-21.20-59-06.6bd57572-2163-4b41-941e-cd384276e4e3'
p2640
asbasbasbag69
(g85
g71
NtRp2641
(dp2642
g74
(dp2643
sg83
g79
sg76
(lp2644
g69
(g90
g71
NtRp2645
(dp2646
g74
(dp2647
g94
g95
ssg83
g2641
sg76
(lp2648
S'vars'
p2649
asbag69
(g90
g71
NtRp2650
(dp2651
g74
(dp2652
g101
g102
ssg83
g2641
sg76
(lp2653
S':'
asbag69
(g90
g71
NtRp2654
(dp2655
g74
(dp2656
sg83
g2641
sg76
(lp2657
g69
(g70
g71
NtRp2658
(dp2659
g74
(dp2660
g82
I5
ssg83
g2654
sg76
(lp2661
g69
(g78
g71
NtRp2662
(dp2663
g74
(dp2664
g82
I4
ssg83
Nsg76
(lp2665
sbasbasbasbag69
(g85
g71
NtRp2666
(dp2667
g74
(dp2668
sg83
g79
sg76
(lp2669
g69
(g90
g71
NtRp2670
(dp2671
g74
(dp2672
g94
g95
ssg83
g2666
sg76
(lp2673
S'wsgi'
p2674
asbag69
(g90
g71
NtRp2675
(dp2676
g74
(dp2677
g101
g102
ssg83
g2666
sg76
(lp2678
S':'
asbag69
(g90
g71
NtRp2679
(dp2680
g74
(dp2681
sg83
g2666
sg76
(lp2682
g69
(g70
g71
NtRp2683
(dp2684
g74
(dp2685
g82
I5
ssg83
g2679
sg76
(lp2686
g69
(g78
g71
NtRp2687
(dp2688
g74
(dp2689
g82
I4
ssg83
Nsg76
(lp2690
g69
(g85
g71
NtRp2691
(dp2692
g74
(dp2693
sg83
g2687
sg76
(lp2694
g69
(g90
g71
NtRp2695
(dp2696
g74
(dp2697
g94
g95
ssg83
g2691
sg76
(lp2698
S'environ'
p2699
asbag69
(g90
g71
NtRp2700
(dp2701
g74
(dp2702
g101
g102
ssg83
g2691
sg76
(lp2703
S':'
asbag69
(g90
g71
NtRp2704
(dp2705
g74
(dp2706
sg83
g2691
sg76
(lp2707
g69
(g70
g71
NtRp2708
(dp2709
g74
(dp2710
g82
I4
ssg83
g2704
sg76
(lp2711
g69
(g78
g71
NtRp2712
(dp2713
g74
(dp2714
g82
I3
ssg83
Nsg76
(lp2715
g69
(g85
g71
NtRp2716
(dp2717
g74
(dp2718
sg83
g2712
sg76
(lp2719
g69
(g90
g71
NtRp2720
(dp2721
g74
(dp2722
g94
g95
ssg83
g2716
sg76
(lp2723
S'HTTP_ACCEPT'
p2724
asbag69
(g90
g71
NtRp2725
(dp2726
g74
(dp2727
g101
g102
ssg83
g2716
sg76
(lp2728
S':'
asbag69
(g90
g71
NtRp2729
(dp2730
g74
(dp2731
sg83
g2716
sg76
(lp2732
g69
(g70
g71
NtRp2733
(dp2734
g74
(dp2735
g82
I3
ssg83
g2729
sg76
(lp2736
g1224
asbasbasbag69
(g85
g71
NtRp2737
(dp2738
g74
(dp2739
sg83
g2712
sg76
(lp2740
g69
(g90
g71
NtRp2741
(dp2742
g74
(dp2743
g94
g95
ssg83
g2737
sg76
(lp2744
S'HTTP_ACCEPT_ENCODING'
p2745
asbag69
(g90
g71
NtRp2746
(dp2747
g74
(dp2748
g101
g102
ssg83
g2737
sg76
(lp2749
S':'
asbag69
(g90
g71
NtRp2750
(dp2751
g74
(dp2752
sg83
g2737
sg76
(lp2753
g69
(g70
g71
NtRp2754
(dp2755
g74
(dp2756
g82
I3
ssg83
g2750
sg76
(lp2757
g1246
asbasbasbag69
(g85
g71
NtRp2758
(dp2759
g74
(dp2760
sg83
g2712
sg76
(lp2761
g69
(g90
g71
NtRp2762
(dp2763
g74
(dp2764
g94
g95
ssg83
g2758
sg76
(lp2765
S'HTTP_ACCEPT_LANGUAGE'
p2766
asbag69
(g90
g71
NtRp2767
(dp2768
g74
(dp2769
g101
g102
ssg83
g2758
sg76
(lp2770
S':'
asbag69
(g90
g71
NtRp2771
(dp2772
g74
(dp2773
sg83
g2758
sg76
(lp2774
g69
(g70
g71
NtRp2775
(dp2776
g74
(dp2777
g82
I3
ssg83
g2771
sg76
(lp2778
g1268
asbasbasbag69
(g85
g71
NtRp2779
(dp2780
g74
(dp2781
sg83
g2712
sg76
(lp2782
g69
(g90
g71
NtRp2783
(dp2784
g74
(dp2785
g94
g95
ssg83
g2779
sg76
(lp2786
S'HTTP_CACHE_CONTROL'
p2787
asbag69
(g90
g71
NtRp2788
(dp2789
g74
(dp2790
g101
g102
ssg83
g2779
sg76
(lp2791
S':'
asbag69
(g90
g71
NtRp2792
(dp2793
g74
(dp2794
sg83
g2779
sg76
(lp2795
g69
(g70
g71
NtRp2796
(dp2797
g74
(dp2798
g82
I3
ssg83
g2792
sg76
(lp2799
g1290
asbasbasbag69
(g85
g71
NtRp2800
(dp2801
g74
(dp2802
sg83
g2712
sg76
(lp2803
g69
(g90
g71
NtRp2804
(dp2805
g74
(dp2806
g94
g95
ssg83
g2800
sg76
(lp2807
S'HTTP_CONNECTION'
p2808
asbag69
(g90
g71
NtRp2809
(dp2810
g74
(dp2811
g101
g102
ssg83
g2800
sg76
(lp2812
S':'
asbag69
(g90
g71
NtRp2813
(dp2814
g74
(dp2815
sg83
g2800
sg76
(lp2816
g69
(g70
g71
NtRp2817
(dp2818
g74
(dp2819
g82
I3
ssg83
g2813
sg76
(lp2820
g1312
asbasbasbag69
(g85
g71
NtRp2821
(dp2822
g74
(dp2823
sg83
g2712
sg76
(lp2824
g69
(g90
g71
NtRp2825
(dp2826
g74
(dp2827
g94
g95
ssg83
g2821
sg76
(lp2828
S'HTTP_COOKIE'
p2829
asbag69
(g90
g71
NtRp2830
(dp2831
g74
(dp2832
g101
g102
ssg83
g2821
sg76
(lp2833
S':'
asbag69
(g90
g71
NtRp2834
(dp2835
g74
(dp2836
sg83
g2821
sg76
(lp2837
g69
(g70
g71
NtRp2838
(dp2839
g74
(dp2840
g82
I3
ssg83
g2834
sg76
(lp2841
g1334
asbasbasbag69
(g85
g71
NtRp2842
(dp2843
g74
(dp2844
sg83
g2712
sg76
(lp2845
g69
(g90
g71
NtRp2846
(dp2847
g74
(dp2848
g94
g95
ssg83
g2842
sg76
(lp2849
S'HTTP_HOST'
p2850
asbag69
(g90
g71
NtRp2851
(dp2852
g74
(dp2853
g101
g102
ssg83
g2842
sg76
(lp2854
S':'
asbag69
(g90
g71
NtRp2855
(dp2856
g74
(dp2857
sg83
g2842
sg76
(lp2858
g69
(g70
g71
NtRp2859
(dp2860
g74
(dp2861
g82
I3
ssg83
g2855
sg76
(lp2862
g1356
asbasbasbag69
(g85
g71
NtRp2863
(dp2864
g74
(dp2865
sg83
g2712
sg76
(lp2866
g69
(g90
g71
NtRp2867
(dp2868
g74
(dp2869
g94
g95
ssg83
g2863
sg76
(lp2870
S'HTTP_REFERER'
p2871
asbag69
(g90
g71
NtRp2872
(dp2873
g74
(dp2874
g101
g102
ssg83
g2863
sg76
(lp2875
S':'
asbag69
(g90
g71
NtRp2876
(dp2877
g74
(dp2878
sg83
g2863
sg76
(lp2879
g69
(g70
g71
NtRp2880
(dp2881
g74
(dp2882
g82
I3
ssg83
g2876
sg76
(lp2883
g1378
asbasbasbag69
(g85
g71
NtRp2884
(dp2885
g74
(dp2886
sg83
g2712
sg76
(lp2887
g69
(g90
g71
NtRp2888
(dp2889
g74
(dp2890
g94
g95
ssg83
g2884
sg76
(lp2891
S'HTTP_USER_AGENT'
p2892
asbag69
(g90
g71
NtRp2893
(dp2894
g74
(dp2895
g101
g102
ssg83
g2884
sg76
(lp2896
S':'
asbag69
(g90
g71
NtRp2897
(dp2898
g74
(dp2899
sg83
g2884
sg76
(lp2900
g69
(g70
g71
NtRp2901
(dp2902
g74
(dp2903
g82
I3
ssg83
g2897
sg76
(lp2904
g1400
asbasbasbag69
(g85
g71
NtRp2905
(dp2906
g74
(dp2907
sg83
g2712
sg76
(lp2908
g69
(g90
g71
NtRp2909
(dp2910
g74
(dp2911
g94
g95
ssg83
g2905
sg76
(lp2912
S'PATH_INFO'
p2913
asbag69
(g90
g71
NtRp2914
(dp2915
g74
(dp2916
g101
g102
ssg83
g2905
sg76
(lp2917
S':'
asbag69
(g90
g71
NtRp2918
(dp2919
g74
(dp2920
sg83
g2905
sg76
(lp2921
g69
(g70
g71
NtRp2922
(dp2923
g74
(dp2924
g82
I3
ssg83
g2918
sg76
(lp2925
g1464
asbasbasbag69
(g85
g71
NtRp2926
(dp2927
g74
(dp2928
sg83
g2712
sg76
(lp2929
g69
(g90
g71
NtRp2930
(dp2931
g74
(dp2932
g94
g95
ssg83
g2926
sg76
(lp2933
S'QUERY_STRING'
p2934
asbag69
(g90
g71
NtRp2935
(dp2936
g74
(dp2937
g101
g102
ssg83
g2926
sg76
(lp2938
S':'
asbag69
(g90
g71
NtRp2939
(dp2940
g74
(dp2941
sg83
g2926
sg76
(lp2942
g69
(g70
g71
NtRp2943
(dp2944
g74
(dp2945
g82
I3
ssg83
g2939
sg76
(lp2946
S''
asbasbasbag69
(g85
g71
NtRp2947
(dp2948
g74
(dp2949
sg83
g2712
sg76
(lp2950
g69
(g90
g71
NtRp2951
(dp2952
g74
(dp2953
g94
g95
ssg83
g2947
sg76
(lp2954
S'REMOTE_ADDR'
p2955
asbag69
(g90
g71
NtRp2956
(dp2957
g74
(dp2958
g101
g102
ssg83
g2947
sg76
(lp2959
S':'
asbag69
(g90
g71
NtRp2960
(dp2961
g74
(dp2962
sg83
g2947
sg76
(lp2963
g69
(g70
g71
NtRp2964
(dp2965
g74
(dp2966
g82
I3
ssg83
g2960
sg76
(lp2967
g226
asbasbasbag69
(g85
g71
NtRp2968
(dp2969
g74
(dp2970
sg83
g2712
sg76
(lp2971
g69
(g90
g71
NtRp2972
(dp2973
g74
(dp2974
g94
g95
ssg83
g2968
sg76
(lp2975
S'REMOTE_PORT'
p2976
asbag69
(g90
g71
NtRp2977
(dp2978
g74
(dp2979
g101
g102
ssg83
g2968
sg76
(lp2980
S':'
asbag69
(g90
g71
NtRp2981
(dp2982
g74
(dp2983
sg83
g2968
sg76
(lp2984
g69
(g70
g71
NtRp2985
(dp2986
g74
(dp2987
g82
I3
ssg83
g2981
sg76
(lp2988
g1528
asbasbasbag69
(g85
g71
NtRp2989
(dp2990
g74
(dp2991
sg83
g2712
sg76
(lp2992
g69
(g90
g71
NtRp2993
(dp2994
g74
(dp2995
g94
g95
ssg83
g2989
sg76
(lp2996
S'REQUEST_METHOD'
p2997
asbag69
(g90
g71
NtRp2998
(dp2999
g74
(dp3000
g101
g102
ssg83
g2989
sg76
(lp3001
S':'
asbag69
(g90
g71
NtRp3002
(dp3003
g74
(dp3004
sg83
g2989
sg76
(lp3005
g69
(g70
g71
NtRp3006
(dp3007
g74
(dp3008
g82
I3
ssg83
g3002
sg76
(lp3009
g1550
asbasbasbag69
(g85
g71
NtRp3010
(dp3011
g74
(dp3012
sg83
g2712
sg76
(lp3013
g69
(g90
g71
NtRp3014
(dp3015
g74
(dp3016
g94
g95
ssg83
g3010
sg76
(lp3017
S'REQUEST_URI'
p3018
asbag69
(g90
g71
NtRp3019
(dp3020
g74
(dp3021
g101
g102
ssg83
g3010
sg76
(lp3022
S':'
asbag69
(g90
g71
NtRp3023
(dp3024
g74
(dp3025
sg83
g3010
sg76
(lp3026
g69
(g70
g71
NtRp3027
(dp3028
g74
(dp3029
g82
I3
ssg83
g3023
sg76
(lp3030
g1464
asbasbasbag69
(g85
g71
NtRp3031
(dp3032
g74
(dp3033
sg83
g2712
sg76
(lp3034
g69
(g90
g71
NtRp3035
(dp3036
g74
(dp3037
g94
g95
ssg83
g3031
sg76
(lp3038
S'SCRIPT_NAME'
p3039
asbag69
(g90
g71
NtRp3040
(dp3041
g74
(dp3042
g101
g102
ssg83
g3031
sg76
(lp3043
S':'
asbag69
(g90
g71
NtRp3044
(dp3045
g74
(dp3046
sg83
g3031
sg76
(lp3047
g69
(g70
g71
NtRp3048
(dp3049
g74
(dp3050
g82
I3
ssg83
g3044
sg76
(lp3051
S''
asbasbasbag69
(g85
g71
NtRp3052
(dp3053
g74
(dp3054
sg83
g2712
sg76
(lp3055
g69
(g90
g71
NtRp3056
(dp3057
g74
(dp3058
g94
g95
ssg83
g3052
sg76
(lp3059
S'SERVER_NAME'
p3060
asbag69
(g90
g71
NtRp3061
(dp3062
g74
(dp3063
g101
g102
ssg83
g3052
sg76
(lp3064
S':'
asbag69
(g90
g71
NtRp3065
(dp3066
g74
(dp3067
sg83
g3052
sg76
(lp3068
g69
(g70
g71
NtRp3069
(dp3070
g74
(dp3071
g82
I3
ssg83
g3065
sg76
(lp3072
g1614
asbasbasbag69
(g85
g71
NtRp3073
(dp3074
g74
(dp3075
sg83
g2712
sg76
(lp3076
g69
(g90
g71
NtRp3077
(dp3078
g74
(dp3079
g94
g95
ssg83
g3073
sg76
(lp3080
S'SERVER_PORT'
p3081
asbag69
(g90
g71
NtRp3082
(dp3083
g74
(dp3084
g101
g102
ssg83
g3073
sg76
(lp3085
S':'
asbag69
(g90
g71
NtRp3086
(dp3087
g74
(dp3088
sg83
g3073
sg76
(lp3089
g69
(g70
g71
NtRp3090
(dp3091
g74
(dp3092
g82
I3
ssg83
g3086
sg76
(lp3093
g1636
asbasbasbag69
(g85
g71
NtRp3094
(dp3095
g74
(dp3096
sg83
g2712
sg76
(lp3097
g69
(g90
g71
NtRp3098
(dp3099
g74
(dp3100
g94
g95
ssg83
g3094
sg76
(lp3101
S'SERVER_PROTOCOL'
p3102
asbag69
(g90
g71
NtRp3103
(dp3104
g74
(dp3105
g101
g102
ssg83
g3094
sg76
(lp3106
S':'
asbag69
(g90
g71
NtRp3107
(dp3108
g74
(dp3109
sg83
g3094
sg76
(lp3110
g69
(g70
g71
NtRp3111
(dp3112
g74
(dp3113
g82
I3
ssg83
g3107
sg76
(lp3114
g1658
asbasbasbag69
(g85
g71
NtRp3115
(dp3116
g74
(dp3117
sg83
g2712
sg76
(lp3118
g69
(g90
g71
NtRp3119
(dp3120
g74
(dp3121
g94
g95
ssg83
g3115
sg76
(lp3122
S'SERVER_SOFTWARE'
p3123
asbag69
(g90
g71
NtRp3124
(dp3125
g74
(dp3126
g101
g102
ssg83
g3115
sg76
(lp3127
S':'
asbag69
(g90
g71
NtRp3128
(dp3129
g74
(dp3130
sg83
g3115
sg76
(lp3131
g69
(g70
g71
NtRp3132
(dp3133
g74
(dp3134
g82
I3
ssg83
g3128
sg76
(lp3135
g1680
asbasbasbag69
(g85
g71
NtRp3136
(dp3137
g74
(dp3138
sg83
g2712
sg76
(lp3139
g69
(g90
g71
NtRp3140
(dp3141
g74
(dp3142
g94
g95
ssg83
g3136
sg76
(lp3143
S'WEB2PY_ORIGINAL_URI'
p3144
asbag69
(g90
g71
NtRp3145
(dp3146
g74
(dp3147
g101
g102
ssg83
g3136
sg76
(lp3148
S':'
asbag69
(g90
g71
NtRp3149
(dp3150
g74
(dp3151
sg83
g3136
sg76
(lp3152
g69
(g70
g71
NtRp3153
(dp3154
g74
(dp3155
g82
I3
ssg83
g3149
sg76
(lp3156
g1464
asbasbasbag69
(g85
g71
NtRp3157
(dp3158
g74
(dp3159
sg83
g2712
sg76
(lp3160
g69
(g90
g71
NtRp3161
(dp3162
g74
(dp3163
g94
g95
ssg83
g3157
sg76
(lp3164
S'wsgi.errors'
p3165
asbag69
(g90
g71
NtRp3166
(dp3167
g74
(dp3168
g101
g102
ssg83
g3157
sg76
(lp3169
S':'
asbag69
(g90
g71
NtRp3170
(dp3171
g74
(dp3172
sg83
g3157
sg76
(lp3173
g69
(g70
g71
NtRp3174
(dp3175
g74
(dp3176
g82
I3
ssg83
g3170
sg76
(lp3177
S"<open file '<stderr>', mode 'w' at 0xb775c0d0>"
p3178
asbasbasbag69
(g85
g71
NtRp3179
(dp3180
g74
(dp3181
sg83
g2712
sg76
(lp3182
g69
(g90
g71
NtRp3183
(dp3184
g74
(dp3185
g94
g95
ssg83
g3179
sg76
(lp3186
S'wsgi.file_wrapper'
p3187
asbag69
(g90
g71
NtRp3188
(dp3189
g74
(dp3190
g101
g102
ssg83
g3179
sg76
(lp3191
S':'
asbag69
(g90
g71
NtRp3192
(dp3193
g74
(dp3194
sg83
g3179
sg76
(lp3195
g69
(g70
g71
NtRp3196
(dp3197
g74
(dp3198
g82
I3
ssg83
g3192
sg76
(lp3199
S'<class wsgiref.util.FileWrapper at 0x94dbe6c>'
p3200
asbasbasbag69
(g85
g71
NtRp3201
(dp3202
g74
(dp3203
sg83
g2712
sg76
(lp3204
g69
(g90
g71
NtRp3205
(dp3206
g74
(dp3207
g94
g95
ssg83
g3201
sg76
(lp3208
S'wsgi.input'
p3209
asbag69
(g90
g71
NtRp3210
(dp3211
g74
(dp3212
g101
g102
ssg83
g3201
sg76
(lp3213
S':'
asbag69
(g90
g71
NtRp3214
(dp3215
g74
(dp3216
sg83
g3201
sg76
(lp3217
g69
(g70
g71
NtRp3218
(dp3219
g74
(dp3220
g82
I3
ssg83
g3214
sg76
(lp3221
S'<cStringIO.StringO object at 0xafa50480>'
p3222
asbasbasbag69
(g85
g71
NtRp3223
(dp3224
g74
(dp3225
sg83
g2712
sg76
(lp3226
g69
(g90
g71
NtRp3227
(dp3228
g74
(dp3229
g94
g95
ssg83
g3223
sg76
(lp3230
S'wsgi.multiprocess'
p3231
asbag69
(g90
g71
NtRp3232
(dp3233
g74
(dp3234
g101
g102
ssg83
g3223
sg76
(lp3235
S':'
asbag69
(g90
g71
NtRp3236
(dp3237
g74
(dp3238
sg83
g3223
sg76
(lp3239
g69
(g70
g71
NtRp3240
(dp3241
g74
(dp3242
g82
I3
ssg83
g3236
sg76
(lp3243
g112
asbasbasbag69
(g85
g71
NtRp3244
(dp3245
g74
(dp3246
sg83
g2712
sg76
(lp3247
g69
(g90
g71
NtRp3248
(dp3249
g74
(dp3250
g94
g95
ssg83
g3244
sg76
(lp3251
S'wsgi.multithread'
p3252
asbag69
(g90
g71
NtRp3253
(dp3254
g74
(dp3255
g101
g102
ssg83
g3244
sg76
(lp3256
S':'
asbag69
(g90
g71
NtRp3257
(dp3258
g74
(dp3259
sg83
g3244
sg76
(lp3260
g69
(g70
g71
NtRp3261
(dp3262
g74
(dp3263
g82
I3
ssg83
g3257
sg76
(lp3264
g1941
asbasbasbag69
(g85
g71
NtRp3265
(dp3266
g74
(dp3267
sg83
g2712
sg76
(lp3268
g69
(g90
g71
NtRp3269
(dp3270
g74
(dp3271
g94
g95
ssg83
g3265
sg76
(lp3272
S'wsgi.run_once'
p3273
asbag69
(g90
g71
NtRp3274
(dp3275
g74
(dp3276
g101
g102
ssg83
g3265
sg76
(lp3277
S':'
asbag69
(g90
g71
NtRp3278
(dp3279
g74
(dp3280
sg83
g3265
sg76
(lp3281
g69
(g70
g71
NtRp3282
(dp3283
g74
(dp3284
g82
I3
ssg83
g3278
sg76
(lp3285
g112
asbasbasbag69
(g85
g71
NtRp3286
(dp3287
g74
(dp3288
sg83
g2712
sg76
(lp3289
g69
(g90
g71
NtRp3290
(dp3291
g74
(dp3292
g94
g95
ssg83
g3286
sg76
(lp3293
S'wsgi.url_scheme'
p3294
asbag69
(g90
g71
NtRp3295
(dp3296
g74
(dp3297
g101
g102
ssg83
g3286
sg76
(lp3298
S':'
asbag69
(g90
g71
NtRp3299
(dp3300
g74
(dp3301
sg83
g3286
sg76
(lp3302
g69
(g70
g71
NtRp3303
(dp3304
g74
(dp3305
g82
I3
ssg83
g3299
sg76
(lp3306
g1984
asbasbasbag69
(g85
g71
NtRp3307
(dp3308
g74
(dp3309
sg83
g2712
sg76
(lp3310
g69
(g90
g71
NtRp3311
(dp3312
g74
(dp3313
g94
g95
ssg83
g3307
sg76
(lp3314
S'wsgi.version'
p3315
asbag69
(g90
g71
NtRp3316
(dp3317
g74
(dp3318
g101
g102
ssg83
g3307
sg76
(lp3319
S':'
asbag69
(g90
g71
NtRp3320
(dp3321
g74
(dp3322
sg83
g3307
sg76
(lp3323
g69
(g70
g71
NtRp3324
(dp3325
g74
(dp3326
g82
I3
ssg83
g3320
sg76
(lp3327
S'1'
asbasbasbasbasbasbasbasbasbasbasbasbasbsS'frames'
p3328
(lp3329
(dp3330
S'file'
p3331
S'/home/kaique/Projects/web/big-votes/web2py/gluon/restricted.py'
p3332
sS'dump'
p3333
(dp3334
S'code'
p3335
S"'# -*- coding: utf-8 -*-\\nfrom bigvotes import Vot...():\\n\\tpass\\nresponse._vars=response._caller(index)\\n'"
p3336
sS'layer'
p3337
S"'/home/kaique/Projects/web/big-votes/web2py/applications/bigvotes/controllers/vote.py'"
p3338
sS'global compile2'
p3339
S'<function compile2>'
p3340
sS'ccode'
p3341
S'undefined'
p3342
ssS'lnum'
p3343
I204
sS'lines'
p3344
(dp3345
I199
S"    environment['__name__'] = '__restricted__'"
p3346
sI200
S'    try:'
p3347
sI201
S'        if type(code) == types.CodeType:'
p3348
sI202
S'            ccode = code'
p3349
sI203
S'        else:'
p3350
sI204
S'            ccode = compile2(code,layer)'
p3351
sI205
S'        exec ccode in environment'
p3352
sI206
S'    except HTTP:'
p3353
sI207
S'        raise'
p3354
sI208
S'    except RestrictedError:'
p3355
ssS'call'
p3356
S"(code='# -*- coding: utf-8 -*-\\nfrom bigvotes import Vot...():\\n\\tpass\\nresponse._vars=response._caller(index)\\n', environment={'A': <class 'gluon.html.A'>, 'Auth': <class 'gluon.tools.Auth'>, 'B': <class 'gluon.html.B'>, 'BEAUTIFY': <class 'gluon.html.BEAUTIFY'>, 'BODY': <class 'gluon.html.BODY'>, 'BR': <class 'gluon.html.BR'>, 'BUTTON': <class 'gluon.html.BUTTON'>, 'CAT': <class 'gluon.html.CAT'>, 'CENTER': <class 'gluon.html.CENTER'>, 'CLEANUP': <class 'gluon.validators.CLEANUP'>, ...}, layer='/home/kaique/Projects/web/big-votes/web2py/applications/bigvotes/controllers/vote.py')"
p3357
sS'func'
p3358
S'restricted'
p3359
sa(dp3360
g3331
S'/home/kaique/Projects/web/big-votes/web2py/gluon/restricted.py'
p3361
sg3333
(dp3362
S'builtincompile'
p3363
S'<built-in function compile>'
p3364
sS'code'
p3365
S"'# -*- coding: utf-8 -*-\\nfrom bigvotes import Vot...():\\n\\tpass\\nresponse._vars=response._caller(index)\\n'"
p3366
sS'code.rstrip'
p3367
S'<built-in method rstrip of str object>'
p3368
sS').replace'
p3369
g3342
sS'layer'
p3370
S"'/home/kaique/Projects/web/big-votes/web2py/applications/bigvotes/controllers/vote.py'"
p3371
ssg3343
I189
sg3344
(dp3372
I192
S'    """'
p3373
sI193
S'    runs code in environment and returns the output. if an exception occurs'
p3374
sI184
S''
sI185
S'def compile2(code,layer):'
p3375
sI186
S'    """'
p3376
sI187
S"    The +'\\n' is necessary else compile fails when code ends in a comment."
p3377
sI188
S'    """'
p3378
sI189
S"    return compile(code.rstrip().replace('\\r\\n','\\n')+'\\n', layer, 'exec')"
p3379
sI190
S''
sI191
S"def restricted(code, environment=None, layer='Unknown'):"
p3380
ssg3356
S"(code='# -*- coding: utf-8 -*-\\nfrom bigvotes import Vot...():\\n\\tpass\\nresponse._vars=response._caller(index)\\n', layer='/home/kaique/Projects/web/big-votes/web2py/applications/bigvotes/controllers/vote.py')"
p3381
sg3358
S'compile2'
p3382
sasS'pyver'
p3383
S'Python 2.7.2: /home/kaique/Projects/web/big-votes/bin/python'
p3384
sS'session'
p3385
g69
(g70
g71
NtRp3386
(dp3387
g74
(dp3388
sg76
(lp3389
g69
(g78
g71
NtRp3390
(dp3391
g74
(dp3392
g82
I5
ssg83
Nsg76
(lp3393
g69
(g85
g71
NtRp3394
(dp3395
g74
(dp3396
sg83
g3390
sg76
(lp3397
g69
(g90
g71
NtRp3398
(dp3399
g74
(dp3400
g94
g95
ssg83
g3394
sg76
(lp3401
S'last_query'
p3402
asbag69
(g90
g71
NtRp3403
(dp3404
g74
(dp3405
g101
g102
ssg83
g3394
sg76
(lp3406
S':'
asbag69
(g90
g71
NtRp3407
(dp3408
g74
(dp3409
sg83
g3394
sg76
(lp3410
g69
(g70
g71
NtRp3411
(dp3412
g74
(dp3413
g82
I5
ssg83
g3407
sg76
(lp3414
S'db.voting.id>0'
p3415
asbasbasbasbasbsS'etype'
p3416
S"<type 'exceptions.SyntaxError'>"
p3417
sS'date'
p3418
S'Mon May 21 20:59:06 2012'
p3419
sS'response'
p3420
g69
(g70
g71
NtRp3421
(dp3422
g74
(dp3423
sg76
(lp3424
g69
(g78
g71
NtRp3425
(dp3426
g74
(dp3427
g82
I5
ssg83
Nsg76
(lp3428
g69
(g85
g71
NtRp3429
(dp3430
g74
(dp3431
sg83
g3425
sg76
(lp3432
g69
(g90
g71
NtRp3433
(dp3434
g74
(dp3435
g94
g95
ssg83
g3429
sg76
(lp3436
g191
asbag69
(g90
g71
NtRp3437
(dp3438
g74
(dp3439
g101
g102
ssg83
g3429
sg76
(lp3440
S':'
asbag69
(g90
g71
NtRp3441
(dp3442
g74
(dp3443
sg83
g3429
sg76
(lp3444
g69
(g70
g71
NtRp3445
(dp3446
g74
(dp3447
g82
I5
ssg83
g3441
sg76
(lp3448
S'<cStringIO.StringO object at 0xaf7a7320>'
p3449
asbasbasbag69
(g85
g71
NtRp3450
(dp3451
g74
(dp3452
sg83
g3425
sg76
(lp3453
g69
(g90
g71
NtRp3454
(dp3455
g74
(dp3456
g94
g95
ssg83
g3450
sg76
(lp3457
g257
asbag69
(g90
g71
NtRp3458
(dp3459
g74
(dp3460
g101
g102
ssg83
g3450
sg76
(lp3461
S':'
asbag69
(g90
g71
NtRp3462
(dp3463
g74
(dp3464
sg83
g3450
sg76
(lp3465
g69
(g70
g71
NtRp3466
(dp3467
g74
(dp3468
g82
I5
ssg83
g3462
sg76
(lp3469
g69
(g78
g71
NtRp3470
(dp3471
g74
(dp3472
g82
I4
ssg83
Nsg76
(lp3473
g69
(g85
g71
NtRp3474
(dp3475
g74
(dp3476
sg83
g3470
sg76
(lp3477
g69
(g90
g71
NtRp3478
(dp3479
g74
(dp3480
g94
g95
ssg83
g3474
sg76
(lp3481
S'session_id_bigvotes'
p3482
asbag69
(g90
g71
NtRp3483
(dp3484
g74
(dp3485
g101
g102
ssg83
g3474
sg76
(lp3486
S':'
asbag69
(g90
g71
NtRp3487
(dp3488
g74
(dp3489
sg83
g3474
sg76
(lp3490
g69
(g70
g71
NtRp3491
(dp3492
g74
(dp3493
g82
I4
ssg83
g3487
sg76
(lp3494
g69
(g78
g71
NtRp3495
(dp3496
g74
(dp3497
g82
I3
ssg83
Nsg76
(lp3498
g69
(g85
g71
NtRp3499
(dp3500
g74
(dp3501
sg83
g3495
sg76
(lp3502
g69
(g90
g71
NtRp3503
(dp3504
g74
(dp3505
g94
g95
ssg83
g3499
sg76
(lp3506
g307
asbag69
(g90
g71
NtRp3507
(dp3508
g74
(dp3509
g101
g102
ssg83
g3499
sg76
(lp3510
S':'
asbag69
(g90
g71
NtRp3511
(dp3512
g74
(dp3513
sg83
g3499
sg76
(lp3514
g69
(g70
g71
NtRp3515
(dp3516
g74
(dp3517
g82
I3
ssg83
g3511
sg76
(lp3518
S''
asbasbasbag69
(g85
g71
NtRp3519
(dp3520
g74
(dp3521
sg83
g3495
sg76
(lp3522
g69
(g90
g71
NtRp3523
(dp3524
g74
(dp3525
g94
g95
ssg83
g3519
sg76
(lp3526
g328
asbag69
(g90
g71
NtRp3527
(dp3528
g74
(dp3529
g101
g102
ssg83
g3519
sg76
(lp3530
S':'
asbag69
(g90
g71
NtRp3531
(dp3532
g74
(dp3533
sg83
g3519
sg76
(lp3534
g69
(g70
g71
NtRp3535
(dp3536
g74
(dp3537
g82
I3
ssg83
g3531
sg76
(lp3538
S''
asbasbasbag69
(g85
g71
NtRp3539
(dp3540
g74
(dp3541
sg83
g3495
sg76
(lp3542
g69
(g90
g71
NtRp3543
(dp3544
g74
(dp3545
g94
g95
ssg83
g3539
sg76
(lp3546
g349
asbag69
(g90
g71
NtRp3547
(dp3548
g74
(dp3549
g101
g102
ssg83
g3539
sg76
(lp3550
S':'
asbag69
(g90
g71
NtRp3551
(dp3552
g74
(dp3553
sg83
g3539
sg76
(lp3554
g69
(g70
g71
NtRp3555
(dp3556
g74
(dp3557
g82
I3
ssg83
g3551
sg76
(lp3558
S''
asbasbasbag69
(g85
g71
NtRp3559
(dp3560
g74
(dp3561
sg83
g3495
sg76
(lp3562
g69
(g90
g71
NtRp3563
(dp3564
g74
(dp3565
g94
g95
ssg83
g3559
sg76
(lp3566
g370
asbag69
(g90
g71
NtRp3567
(dp3568
g74
(dp3569
g101
g102
ssg83
g3559
sg76
(lp3570
S':'
asbag69
(g90
g71
NtRp3571
(dp3572
g74
(dp3573
sg83
g3559
sg76
(lp3574
g69
(g70
g71
NtRp3575
(dp3576
g74
(dp3577
g82
I3
ssg83
g3571
sg76
(lp3578
S''
asbasbasbag69
(g85
g71
NtRp3579
(dp3580
g74
(dp3581
sg83
g3495
sg76
(lp3582
g69
(g90
g71
NtRp3583
(dp3584
g74
(dp3585
g94
g95
ssg83
g3579
sg76
(lp3586
g391
asbag69
(g90
g71
NtRp3587
(dp3588
g74
(dp3589
g101
g102
ssg83
g3579
sg76
(lp3590
S':'
asbag69
(g90
g71
NtRp3591
(dp3592
g74
(dp3593
sg83
g3579
sg76
(lp3594
g69
(g70
g71
NtRp3595
(dp3596
g74
(dp3597
g82
I3
ssg83
g3591
sg76
(lp3598
S''
asbasbasbag69
(g85
g71
NtRp3599
(dp3600
g74
(dp3601
sg83
g3495
sg76
(lp3602
g69
(g90
g71
NtRp3603
(dp3604
g74
(dp3605
g94
g95
ssg83
g3599
sg76
(lp3606
g412
asbag69
(g90
g71
NtRp3607
(dp3608
g74
(dp3609
g101
g102
ssg83
g3599
sg76
(lp3610
S':'
asbag69
(g90
g71
NtRp3611
(dp3612
g74
(dp3613
sg83
g3599
sg76
(lp3614
g69
(g70
g71
NtRp3615
(dp3616
g74
(dp3617
g82
I3
ssg83
g3611
sg76
(lp3618
S'/'
asbasbasbag69
(g85
g71
NtRp3619
(dp3620
g74
(dp3621
sg83
g3495
sg76
(lp3622
g69
(g90
g71
NtRp3623
(dp3624
g74
(dp3625
g94
g95
ssg83
g3619
sg76
(lp3626
g433
asbag69
(g90
g71
NtRp3627
(dp3628
g74
(dp3629
g101
g102
ssg83
g3619
sg76
(lp3630
S':'
asbag69
(g90
g71
NtRp3631
(dp3632
g74
(dp3633
sg83
g3619
sg76
(lp3634
g69
(g70
g71
NtRp3635
(dp3636
g74
(dp3637
g82
I3
ssg83
g3631
sg76
(lp3638
S''
asbasbasbag69
(g85
g71
NtRp3639
(dp3640
g74
(dp3641
sg83
g3495
sg76
(lp3642
g69
(g90
g71
NtRp3643
(dp3644
g74
(dp3645
g94
g95
ssg83
g3639
sg76
(lp3646
g454
asbag69
(g90
g71
NtRp3647
(dp3648
g74
(dp3649
g101
g102
ssg83
g3639
sg76
(lp3650
S':'
asbag69
(g90
g71
NtRp3651
(dp3652
g74
(dp3653
sg83
g3639
sg76
(lp3654
g69
(g70
g71
NtRp3655
(dp3656
g74
(dp3657
g82
I3
ssg83
g3651
sg76
(lp3658
S''
asbasbasbasbasbasbasbasbasbasbasbag69
(g85
g71
NtRp3659
(dp3660
g74
(dp3661
sg83
g3425
sg76
(lp3662
g69
(g90
g71
NtRp3663
(dp3664
g74
(dp3665
g94
g95
ssg83
g3659
sg76
(lp3666
S'delimiters'
p3667
asbag69
(g90
g71
NtRp3668
(dp3669
g74
(dp3670
g101
g102
ssg83
g3659
sg76
(lp3671
S':'
asbag69
(g90
g71
NtRp3672
(dp3673
g74
(dp3674
sg83
g3659
sg76
(lp3675
g69
(g70
g71
NtRp3676
(dp3677
g74
(dp3678
g82
I5
ssg83
g3672
sg76
(lp3679
g69
(g78
g71
NtRp3680
(dp3681
g74
(dp3682
g82
I4
ssg83
Nsg76
(lp3683
g69
(g85
g71
NtRp3684
(dp3685
g74
(dp3686
sg83
g3680
sg76
(lp3687
g69
(g90
g71
NtRp3688
(dp3689
g74
(dp3690
sg83
g3684
sg76
(lp3691
g69
(g70
g71
NtRp3692
(dp3693
g74
(dp3694
g82
I4
ssg83
g3688
sg76
(lp3695
S'{{'
p3696
asbasbasbag69
(g85
g71
NtRp3697
(dp3698
g74
(dp3699
sg83
g3680
sg76
(lp3700
g69
(g90
g71
NtRp3701
(dp3702
g74
(dp3703
sg83
g3697
sg76
(lp3704
g69
(g70
g71
NtRp3705
(dp3706
g74
(dp3707
g82
I4
ssg83
g3701
sg76
(lp3708
S'}}'
p3709
asbasbasbasbasbasbasbag69
(g85
g71
NtRp3710
(dp3711
g74
(dp3712
sg83
g3425
sg76
(lp3713
g69
(g90
g71
NtRp3714
(dp3715
g74
(dp3716
g94
g95
ssg83
g3710
sg76
(lp3717
S'files'
p3718
asbag69
(g90
g71
NtRp3719
(dp3720
g74
(dp3721
g101
g102
ssg83
g3710
sg76
(lp3722
S':'
asbag69
(g90
g71
NtRp3723
(dp3724
g74
(dp3725
sg83
g3710
sg76
(lp3726
g69
(g70
g71
NtRp3727
(dp3728
g74
(dp3729
g82
I5
ssg83
g3723
sg76
(lp3730
g69
(g78
g71
NtRp3731
(dp3732
g74
(dp3733
g82
I4
ssg83
Nsg76
(lp3734
sbasbasbasbag69
(g85
g71
NtRp3735
(dp3736
g74
(dp3737
sg83
g3425
sg76
(lp3738
g69
(g90
g71
NtRp3739
(dp3740
g74
(dp3741
g94
g95
ssg83
g3735
sg76
(lp3742
S'flash'
p3743
asbag69
(g90
g71
NtRp3744
(dp3745
g74
(dp3746
g101
g102
ssg83
g3735
sg76
(lp3747
S':'
asbag69
(g90
g71
NtRp3748
(dp3749
g74
(dp3750
sg83
g3735
sg76
(lp3751
g69
(g70
g71
NtRp3752
(dp3753
g74
(dp3754
g82
I5
ssg83
g3748
sg76
(lp3755
S''
asbasbasbag69
(g85
g71
NtRp3756
(dp3757
g74
(dp3758
sg83
g3425
sg76
(lp3759
g69
(g90
g71
NtRp3760
(dp3761
g74
(dp3762
g94
g95
ssg83
g3756
sg76
(lp3763
S'generic_patterns'
p3764
asbag69
(g90
g71
NtRp3765
(dp3766
g74
(dp3767
g101
g102
ssg83
g3756
sg76
(lp3768
S':'
asbag69
(g90
g71
NtRp3769
(dp3770
g74
(dp3771
sg83
g3756
sg76
(lp3772
g69
(g70
g71
NtRp3773
(dp3774
g74
(dp3775
g82
I5
ssg83
g3769
sg76
(lp3776
g69
(g78
g71
NtRp3777
(dp3778
g74
(dp3779
g82
I4
ssg83
Nsg76
(lp3780
g69
(g85
g71
NtRp3781
(dp3782
g74
(dp3783
sg83
g3777
sg76
(lp3784
g69
(g90
g71
NtRp3785
(dp3786
g74
(dp3787
sg83
g3781
sg76
(lp3788
g69
(g70
g71
NtRp3789
(dp3790
g74
(dp3791
g82
I4
ssg83
g3785
sg76
(lp3792
S'*'
asbasbasbasbasbasbasbag69
(g85
g71
NtRp3793
(dp3794
g74
(dp3795
sg83
g3425
sg76
(lp3796
g69
(g90
g71
NtRp3797
(dp3798
g74
(dp3799
g94
g95
ssg83
g3793
sg76
(lp3800
S'headers'
p3801
asbag69
(g90
g71
NtRp3802
(dp3803
g74
(dp3804
g101
g102
ssg83
g3793
sg76
(lp3805
S':'
asbag69
(g90
g71
NtRp3806
(dp3807
g74
(dp3808
sg83
g3793
sg76
(lp3809
g69
(g70
g71
NtRp3810
(dp3811
g74
(dp3812
g82
I5
ssg83
g3806
sg76
(lp3813
g69
(g78
g71
NtRp3814
(dp3815
g74
(dp3816
g82
I4
ssg83
Nsg76
(lp3817
g69
(g85
g71
NtRp3818
(dp3819
g74
(dp3820
sg83
g3814
sg76
(lp3821
g69
(g90
g71
NtRp3822
(dp3823
g74
(dp3824
g94
g95
ssg83
g3818
sg76
(lp3825
S'Cache-Control'
p3826
asbag69
(g90
g71
NtRp3827
(dp3828
g74
(dp3829
g101
g102
ssg83
g3818
sg76
(lp3830
S':'
asbag69
(g90
g71
NtRp3831
(dp3832
g74
(dp3833
sg83
g3818
sg76
(lp3834
g69
(g70
g71
NtRp3835
(dp3836
g74
(dp3837
g82
I4
ssg83
g3831
sg76
(lp3838
S'no-store, no-cache, must-revalidate, post-check=0, pre-check=0'
p3839
asbasbasbag69
(g85
g71
NtRp3840
(dp3841
g74
(dp3842
sg83
g3814
sg76
(lp3843
g69
(g90
g71
NtRp3844
(dp3845
g74
(dp3846
g94
g95
ssg83
g3840
sg76
(lp3847
S'Content-Type'
p3848
asbag69
(g90
g71
NtRp3849
(dp3850
g74
(dp3851
g101
g102
ssg83
g3840
sg76
(lp3852
S':'
asbag69
(g90
g71
NtRp3853
(dp3854
g74
(dp3855
sg83
g3840
sg76
(lp3856
g69
(g70
g71
NtRp3857
(dp3858
g74
(dp3859
g82
I4
ssg83
g3853
sg76
(lp3860
S'text/html; charset=utf-8'
p3861
asbasbasbag69
(g85
g71
NtRp3862
(dp3863
g74
(dp3864
sg83
g3814
sg76
(lp3865
g69
(g90
g71
NtRp3866
(dp3867
g74
(dp3868
g94
g95
ssg83
g3862
sg76
(lp3869
S'Expires'
p3870
asbag69
(g90
g71
NtRp3871
(dp3872
g74
(dp3873
g101
g102
ssg83
g3862
sg76
(lp3874
S':'
asbag69
(g90
g71
NtRp3875
(dp3876
g74
(dp3877
sg83
g3862
sg76
(lp3878
g69
(g70
g71
NtRp3879
(dp3880
g74
(dp3881
g82
I4
ssg83
g3875
sg76
(lp3882
S'Mon, 21 May 2012 23:59:06 GMT'
p3883
asbasbasbag69
(g85
g71
NtRp3884
(dp3885
g74
(dp3886
sg83
g3814
sg76
(lp3887
g69
(g90
g71
NtRp3888
(dp3889
g74
(dp3890
g94
g95
ssg83
g3884
sg76
(lp3891
S'Pragma'
p3892
asbag69
(g90
g71
NtRp3893
(dp3894
g74
(dp3895
g101
g102
ssg83
g3884
sg76
(lp3896
S':'
asbag69
(g90
g71
NtRp3897
(dp3898
g74
(dp3899
sg83
g3884
sg76
(lp3900
g69
(g70
g71
NtRp3901
(dp3902
g74
(dp3903
g82
I4
ssg83
g3897
sg76
(lp3904
S'no-cache'
p3905
asbasbasbag69
(g85
g71
NtRp3906
(dp3907
g74
(dp3908
sg83
g3814
sg76
(lp3909
g69
(g90
g71
NtRp3910
(dp3911
g74
(dp3912
g94
g95
ssg83
g3906
sg76
(lp3913
S'X-Powered-By'
p3914
asbag69
(g90
g71
NtRp3915
(dp3916
g74
(dp3917
g101
g102
ssg83
g3906
sg76
(lp3918
S':'
asbag69
(g90
g71
NtRp3919
(dp3920
g74
(dp3921
sg83
g3906
sg76
(lp3922
g69
(g70
g71
NtRp3923
(dp3924
g74
(dp3925
g82
I4
ssg83
g3919
sg76
(lp3926
S'web2py'
p3927
asbasbasbasbasbasbasbag69
(g85
g71
NtRp3928
(dp3929
g74
(dp3930
sg83
g3425
sg76
(lp3931
g69
(g90
g71
NtRp3932
(dp3933
g74
(dp3934
g94
g95
ssg83
g3928
sg76
(lp3935
S'menu'
p3936
asbag69
(g90
g71
NtRp3937
(dp3938
g74
(dp3939
g101
g102
ssg83
g3928
sg76
(lp3940
S':'
asbag69
(g90
g71
NtRp3941
(dp3942
g74
(dp3943
sg83
g3928
sg76
(lp3944
g69
(g70
g71
NtRp3945
(dp3946
g74
(dp3947
g82
I5
ssg83
g3941
sg76
(lp3948
g69
(g78
g71
NtRp3949
(dp3950
g74
(dp3951
g82
I4
ssg83
Nsg76
(lp3952
g69
(g85
g71
NtRp3953
(dp3954
g74
(dp3955
sg83
g3949
sg76
(lp3956
g69
(g90
g71
NtRp3957
(dp3958
g74
(dp3959
sg83
g3953
sg76
(lp3960
g69
(g70
g71
NtRp3961
(dp3962
g74
(dp3963
g82
I4
ssg83
g3957
sg76
(lp3964
g69
(g78
g71
NtRp3965
(dp3966
g74
(dp3967
g82
I3
ssg83
Nsg76
(lp3968
g69
(g85
g71
NtRp3969
(dp3970
g74
(dp3971
sg83
g3965
sg76
(lp3972
g69
(g90
g71
NtRp3973
(dp3974
g74
(dp3975
sg83
g3969
sg76
(lp3976
g69
(g70
g71
NtRp3977
(dp3978
g74
(dp3979
g82
I3
ssg83
g3973
sg76
(lp3980
cgluon.languages
lazyT_unpickle
p3981
(S't\x05\x00\x00\x00Votes'
tRp3982
asbasbasbag69
(g85
g71
NtRp3983
(dp3984
g74
(dp3985
sg83
g3965
sg76
(lp3986
g69
(g90
g71
NtRp3987
(dp3988
g74
(dp3989
sg83
g3983
sg76
(lp3990
g69
(g70
g71
NtRp3991
(dp3992
g74
(dp3993
g82
I3
ssg83
g3987
sg76
(lp3994
g112
asbasbasbag69
(g85
g71
NtRp3995
(dp3996
g74
(dp3997
sg83
g3965
sg76
(lp3998
g69
(g90
g71
NtRp3999
(dp4000
g74
(dp4001
sg83
g3995
sg76
(lp4002
g69
(g70
g71
NtRp4003
(dp4004
g74
(dp4005
g82
I3
ssg83
g3999
sg76
(lp4006
S'/bigvotes/default/index'
p4007
asbasbasbag69
(g85
g71
NtRp4008
(dp4009
g74
(dp4010
sg83
g3965
sg76
(lp4011
g69
(g90
g71
NtRp4012
(dp4013
g74
(dp4014
sg83
g4008
sg76
(lp4015
g69
(g70
g71
NtRp4016
(dp4017
g74
(dp4018
g82
I3
ssg83
g4012
sg76
(lp4019
g69
(g78
g71
NtRp4020
(dp4021
g74
(dp4022
g82
I2
ssg83
Nsg76
(lp4023
sbasbasbasbasbasbasbasbag69
(g85
g71
NtRp4024
(dp4025
g74
(dp4026
sg83
g3949
sg76
(lp4027
g69
(g90
g71
NtRp4028
(dp4029
g74
(dp4030
sg83
g4024
sg76
(lp4031
g69
(g70
g71
NtRp4032
(dp4033
g74
(dp4034
g82
I4
ssg83
g4028
sg76
(lp4035
g69
(g78
g71
NtRp4036
(dp4037
g74
(dp4038
g82
I3
ssg83
Nsg76
(lp4039
g69
(g85
g71
NtRp4040
(dp4041
g74
(dp4042
sg83
g4036
sg76
(lp4043
g69
(g90
g71
NtRp4044
(dp4045
g74
(dp4046
sg83
g4040
sg76
(lp4047
g69
(g70
g71
NtRp4048
(dp4049
g74
(dp4050
g82
I3
ssg83
g4044
sg76
(lp4051
g3981
(S't\x07\x00\x00\x00Members'
tRp4052
asbasbasbag69
(g85
g71
NtRp4053
(dp4054
g74
(dp4055
sg83
g4036
sg76
(lp4056
g69
(g90
g71
NtRp4057
(dp4058
g74
(dp4059
sg83
g4053
sg76
(lp4060
g69
(g70
g71
NtRp4061
(dp4062
g74
(dp4063
g82
I3
ssg83
g4057
sg76
(lp4064
g112
asbasbasbag69
(g85
g71
NtRp4065
(dp4066
g74
(dp4067
sg83
g4036
sg76
(lp4068
g69
(g90
g71
NtRp4069
(dp4070
g74
(dp4071
sg83
g4065
sg76
(lp4072
g69
(g70
g71
NtRp4073
(dp4074
g74
(dp4075
g82
I3
ssg83
g4069
sg76
(lp4076
S'/bigvotes/member/index'
p4077
asbasbasbag69
(g85
g71
NtRp4078
(dp4079
g74
(dp4080
sg83
g4036
sg76
(lp4081
g69
(g90
g71
NtRp4082
(dp4083
g74
(dp4084
sg83
g4078
sg76
(lp4085
g69
(g70
g71
NtRp4086
(dp4087
g74
(dp4088
g82
I3
ssg83
g4082
sg76
(lp4089
g69
(g78
g71
NtRp4090
(dp4091
g74
(dp4092
g82
I2
ssg83
Nsg76
(lp4093
sbasbasbasbasbasbasbasbag69
(g85
g71
NtRp4094
(dp4095
g74
(dp4096
sg83
g3949
sg76
(lp4097
g69
(g90
g71
NtRp4098
(dp4099
g74
(dp4100
sg83
g4094
sg76
(lp4101
g69
(g70
g71
NtRp4102
(dp4103
g74
(dp4104
g82
I4
ssg83
g4098
sg76
(lp4105
g69
(g78
g71
NtRp4106
(dp4107
g74
(dp4108
g82
I3
ssg83
Nsg76
(lp4109
g69
(g85
g71
NtRp4110
(dp4111
g74
(dp4112
sg83
g4106
sg76
(lp4113
g69
(g90
g71
NtRp4114
(dp4115
g74
(dp4116
sg83
g4110
sg76
(lp4117
g69
(g70
g71
NtRp4118
(dp4119
g74
(dp4120
g82
I3
ssg83
g4114
sg76
(lp4121
g3981
(S's\x12\x00\x00\x00Members Eliminated'
tRp4122
asbasbasbag69
(g85
g71
NtRp4123
(dp4124
g74
(dp4125
sg83
g4106
sg76
(lp4126
g69
(g90
g71
NtRp4127
(dp4128
g74
(dp4129
sg83
g4123
sg76
(lp4130
g69
(g70
g71
NtRp4131
(dp4132
g74
(dp4133
g82
I3
ssg83
g4127
sg76
(lp4134
g112
asbasbasbag69
(g85
g71
NtRp4135
(dp4136
g74
(dp4137
sg83
g4106
sg76
(lp4138
g69
(g90
g71
NtRp4139
(dp4140
g74
(dp4141
sg83
g4135
sg76
(lp4142
g69
(g70
g71
NtRp4143
(dp4144
g74
(dp4145
g82
I3
ssg83
g4139
sg76
(lp4146
S'/bigvotes/member/eliminated'
p4147
asbasbasbag69
(g85
g71
NtRp4148
(dp4149
g74
(dp4150
sg83
g4106
sg76
(lp4151
g69
(g90
g71
NtRp4152
(dp4153
g74
(dp4154
sg83
g4148
sg76
(lp4155
g69
(g70
g71
NtRp4156
(dp4157
g74
(dp4158
g82
I3
ssg83
g4152
sg76
(lp4159
g69
(g78
g71
NtRp4160
(dp4161
g74
(dp4162
g82
I2
ssg83
Nsg76
(lp4163
sbasbasbasbasbasbasbasbasbasbasbasbag69
(g85
g71
NtRp4164
(dp4165
g74
(dp4166
sg83
g3425
sg76
(lp4167
g69
(g90
g71
NtRp4168
(dp4169
g74
(dp4170
g94
g95
ssg83
g4164
sg76
(lp4171
S'meta'
p4172
asbag69
(g90
g71
NtRp4173
(dp4174
g74
(dp4175
g101
g102
ssg83
g4164
sg76
(lp4176
S':'
asbag69
(g90
g71
NtRp4177
(dp4178
g74
(dp4179
sg83
g4164
sg76
(lp4180
g69
(g70
g71
NtRp4181
(dp4182
g74
(dp4183
g82
I5
ssg83
g4177
sg76
(lp4184
g69
(g78
g71
NtRp4185
(dp4186
g74
(dp4187
g82
I4
ssg83
Nsg76
(lp4188
g69
(g85
g71
NtRp4189
(dp4190
g74
(dp4191
sg83
g4185
sg76
(lp4192
g69
(g90
g71
NtRp4193
(dp4194
g74
(dp4195
g94
g95
ssg83
g4189
sg76
(lp4196
S'author'
p4197
asbag69
(g90
g71
NtRp4198
(dp4199
g74
(dp4200
g101
g102
ssg83
g4189
sg76
(lp4201
S':'
asbag69
(g90
g71
NtRp4202
(dp4203
g74
(dp4204
sg83
g4189
sg76
(lp4205
g69
(g70
g71
NtRp4206
(dp4207
g74
(dp4208
g82
I4
ssg83
g4202
sg76
(lp4209
S'Kaique da Silva <kaique.developer@gmail.com>'
p4210
asbasbasbag69
(g85
g71
NtRp4211
(dp4212
g74
(dp4213
sg83
g4185
sg76
(lp4214
g69
(g90
g71
NtRp4215
(dp4216
g74
(dp4217
g94
g95
ssg83
g4211
sg76
(lp4218
S'copyright'
p4219
asbag69
(g90
g71
NtRp4220
(dp4221
g74
(dp4222
g101
g102
ssg83
g4211
sg76
(lp4223
S':'
asbag69
(g90
g71
NtRp4224
(dp4225
g74
(dp4226
sg83
g4211
sg76
(lp4227
g69
(g70
g71
NtRp4228
(dp4229
g74
(dp4230
g82
I4
ssg83
g4224
sg76
(lp4231
S'Copyright 2012'
p4232
asbasbasbag69
(g85
g71
NtRp4233
(dp4234
g74
(dp4235
sg83
g4185
sg76
(lp4236
g69
(g90
g71
NtRp4237
(dp4238
g74
(dp4239
g94
g95
ssg83
g4233
sg76
(lp4240
S'description'
p4241
asbag69
(g90
g71
NtRp4242
(dp4243
g74
(dp4244
g101
g102
ssg83
g4233
sg76
(lp4245
S':'
asbag69
(g90
g71
NtRp4246
(dp4247
g74
(dp4248
sg83
g4233
sg76
(lp4249
g69
(g70
g71
NtRp4250
(dp4251
g74
(dp4252
g82
I4
ssg83
g4246
sg76
(lp4253
S'Challenge app'
p4254
asbasbasbag69
(g85
g71
NtRp4255
(dp4256
g74
(dp4257
sg83
g4185
sg76
(lp4258
g69
(g90
g71
NtRp4259
(dp4260
g74
(dp4261
g94
g95
ssg83
g4255
sg76
(lp4262
S'generator'
p4263
asbag69
(g90
g71
NtRp4264
(dp4265
g74
(dp4266
g101
g102
ssg83
g4255
sg76
(lp4267
S':'
asbag69
(g90
g71
NtRp4268
(dp4269
g74
(dp4270
sg83
g4255
sg76
(lp4271
g69
(g70
g71
NtRp4272
(dp4273
g74
(dp4274
g82
I4
ssg83
g4268
sg76
(lp4275
S'Web2py Web Framework'
p4276
asbasbasbag69
(g85
g71
NtRp4277
(dp4278
g74
(dp4279
sg83
g4185
sg76
(lp4280
g69
(g90
g71
NtRp4281
(dp4282
g74
(dp4283
g94
g95
ssg83
g4277
sg76
(lp4284
S'keywords'
p4285
asbag69
(g90
g71
NtRp4286
(dp4287
g74
(dp4288
g101
g102
ssg83
g4277
sg76
(lp4289
S':'
asbag69
(g90
g71
NtRp4290
(dp4291
g74
(dp4292
sg83
g4277
sg76
(lp4293
g69
(g70
g71
NtRp4294
(dp4295
g74
(dp4296
g82
I4
ssg83
g4290
sg76
(lp4297
S'BBB, votes, challenge'
p4298
asbasbasbasbasbasbasbag69
(g85
g71
NtRp4299
(dp4300
g74
(dp4301
sg83
g3425
sg76
(lp4302
g69
(g90
g71
NtRp4303
(dp4304
g74
(dp4305
g94
g95
ssg83
g4299
sg76
(lp4306
S'postprocessing'
p4307
asbag69
(g90
g71
NtRp4308
(dp4309
g74
(dp4310
g101
g102
ssg83
g4299
sg76
(lp4311
S':'
asbag69
(g90
g71
NtRp4312
(dp4313
g74
(dp4314
sg83
g4299
sg76
(lp4315
g69
(g70
g71
NtRp4316
(dp4317
g74
(dp4318
g82
I5
ssg83
g4312
sg76
(lp4319
g69
(g78
g71
NtRp4320
(dp4321
g74
(dp4322
g82
I4
ssg83
Nsg76
(lp4323
sbasbasbasbag69
(g85
g71
NtRp4324
(dp4325
g74
(dp4326
sg83
g3425
sg76
(lp4327
g69
(g90
g71
NtRp4328
(dp4329
g74
(dp4330
g94
g95
ssg83
g4324
sg76
(lp4331
S'session_file'
p4332
asbag69
(g90
g71
NtRp4333
(dp4334
g74
(dp4335
g101
g102
ssg83
g4324
sg76
(lp4336
S':'
asbag69
(g90
g71
NtRp4337
(dp4338
g74
(dp4339
sg83
g4324
sg76
(lp4340
g69
(g70
g71
NtRp4341
(dp4342
g74
(dp4343
g82
I5
ssg83
g4337
sg76
(lp4344
S"<open file '/home/kaique/Projects/web/big-votes/web2py/applications/bigvotes/sessions/127.0.0.1-ba5ce9fa-c895-45be-84b3-2df477c6d5e4', mode 'rb+' at 0xafe2c700>"
p4345
asbasbasbag69
(g85
g71
NtRp4346
(dp4347
g74
(dp4348
sg83
g3425
sg76
(lp4349
g69
(g90
g71
NtRp4350
(dp4351
g74
(dp4352
g94
g95
ssg83
g4346
sg76
(lp4353
S'session_filename'
p4354
asbag69
(g90
g71
NtRp4355
(dp4356
g74
(dp4357
g101
g102
ssg83
g4346
sg76
(lp4358
S':'
asbag69
(g90
g71
NtRp4359
(dp4360
g74
(dp4361
sg83
g4346
sg76
(lp4362
g69
(g70
g71
NtRp4363
(dp4364
g74
(dp4365
g82
I5
ssg83
g4359
sg76
(lp4366
S'/home/kaique/Projects/web/big-votes/web2py/applications/bigvotes/sessions/127.0.0.1-ba5ce9fa-c895-45be-84b3-2df477c6d5e4'
p4367
asbasbasbag69
(g85
g71
NtRp4368
(dp4369
g74
(dp4370
sg83
g3425
sg76
(lp4371
g69
(g90
g71
NtRp4372
(dp4373
g74
(dp4374
g94
g95
ssg83
g4368
sg76
(lp4375
S'session_id'
p4376
asbag69
(g90
g71
NtRp4377
(dp4378
g74
(dp4379
g101
g102
ssg83
g4368
sg76
(lp4380
S':'
asbag69
(g90
g71
NtRp4381
(dp4382
g74
(dp4383
sg83
g4368
sg76
(lp4384
g69
(g70
g71
NtRp4385
(dp4386
g74
(dp4387
g82
I5
ssg83
g4381
sg76
(lp4388
S'127.0.0.1-ba5ce9fa-c895-45be-84b3-2df477c6d5e4'
p4389
asbasbasbag69
(g85
g71
NtRp4390
(dp4391
g74
(dp4392
sg83
g3425
sg76
(lp4393
g69
(g90
g71
NtRp4394
(dp4395
g74
(dp4396
g94
g95
ssg83
g4390
sg76
(lp4397
S'session_id_name'
p4398
asbag69
(g90
g71
NtRp4399
(dp4400
g74
(dp4401
g101
g102
ssg83
g4390
sg76
(lp4402
S':'
asbag69
(g90
g71
NtRp4403
(dp4404
g74
(dp4405
sg83
g4390
sg76
(lp4406
g69
(g70
g71
NtRp4407
(dp4408
g74
(dp4409
g82
I5
ssg83
g4403
sg76
(lp4410
g3482
asbasbasbag69
(g85
g71
NtRp4411
(dp4412
g74
(dp4413
sg83
g3425
sg76
(lp4414
g69
(g90
g71
NtRp4415
(dp4416
g74
(dp4417
g94
g95
ssg83
g4411
sg76
(lp4418
S'session_locked'
p4419
asbag69
(g90
g71
NtRp4420
(dp4421
g74
(dp4422
g101
g102
ssg83
g4411
sg76
(lp4423
S':'
asbag69
(g90
g71
NtRp4424
(dp4425
g74
(dp4426
sg83
g4411
sg76
(lp4427
g69
(g70
g71
NtRp4428
(dp4429
g74
(dp4430
g82
I5
ssg83
g4424
sg76
(lp4431
g1941
asbasbasbag69
(g85
g71
NtRp4432
(dp4433
g74
(dp4434
sg83
g3425
sg76
(lp4435
g69
(g90
g71
NtRp4436
(dp4437
g74
(dp4438
g94
g95
ssg83
g4432
sg76
(lp4439
S'session_new'
p4440
asbag69
(g90
g71
NtRp4441
(dp4442
g74
(dp4443
g101
g102
ssg83
g4432
sg76
(lp4444
S':'
asbag69
(g90
g71
NtRp4445
(dp4446
g74
(dp4447
sg83
g4432
sg76
(lp4448
g69
(g70
g71
NtRp4449
(dp4450
g74
(dp4451
g82
I5
ssg83
g4445
sg76
(lp4452
g112
asbasbasbag69
(g85
g71
NtRp4453
(dp4454
g74
(dp4455
sg83
g3425
sg76
(lp4456
g69
(g90
g71
NtRp4457
(dp4458
g74
(dp4459
g94
g95
ssg83
g4453
sg76
(lp4460
S'status'
p4461
asbag69
(g90
g71
NtRp4462
(dp4463
g74
(dp4464
g101
g102
ssg83
g4453
sg76
(lp4465
S':'
asbag69
(g90
g71
NtRp4466
(dp4467
g74
(dp4468
sg83
g4453
sg76
(lp4469
g69
(g70
g71
NtRp4470
(dp4471
g74
(dp4472
g82
I5
ssg83
g4466
sg76
(lp4473
S'200'
p4474
asbasbasbag69
(g85
g71
NtRp4475
(dp4476
g74
(dp4477
sg83
g3425
sg76
(lp4478
g69
(g90
g71
NtRp4479
(dp4480
g74
(dp4481
g94
g95
ssg83
g4475
sg76
(lp4482
S'subtitle'
p4483
asbag69
(g90
g71
NtRp4484
(dp4485
g74
(dp4486
g101
g102
ssg83
g4475
sg76
(lp4487
S':'
asbag69
(g90
g71
NtRp4488
(dp4489
g74
(dp4490
sg83
g4475
sg76
(lp4491
g69
(g70
g71
NtRp4492
(dp4493
g74
(dp4494
g82
I5
ssg83
g4488
sg76
(lp4495
S'A simple chanllenge'
p4496
asbasbasbag69
(g85
g71
NtRp4497
(dp4498
g74
(dp4499
sg83
g3425
sg76
(lp4500
g69
(g90
g71
NtRp4501
(dp4502
g74
(dp4503
g94
g95
ssg83
g4497
sg76
(lp4504
S'title'
p4505
asbag69
(g90
g71
NtRp4506
(dp4507
g74
(dp4508
g101
g102
ssg83
g4497
sg76
(lp4509
S':'
asbag69
(g90
g71
NtRp4510
(dp4511
g74
(dp4512
sg83
g4497
sg76
(lp4513
g69
(g70
g71
NtRp4514
(dp4515
g74
(dp4516
g82
I5
ssg83
g4510
sg76
(lp4517
S'Big Votes'
p4518
asbasbasbag69
(g85
g71
NtRp4519
(dp4520
g74
(dp4521
sg83
g3425
sg76
(lp4522
g69
(g90
g71
NtRp4523
(dp4524
g74
(dp4525
g94
g95
ssg83
g4519
sg76
(lp4526
g2627
asbag69
(g90
g71
NtRp4527
(dp4528
g74
(dp4529
g101
g102
ssg83
g4519
sg76
(lp4530
S':'
asbag69
(g90
g71
NtRp4531
(dp4532
g74
(dp4533
sg83
g4519
sg76
(lp4534
g69
(g70
g71
NtRp4535
(dp4536
g74
(dp4537
g82
I5
ssg83
g4531
sg76
(lp4538
g2640
asbasbasbag69
(g85
g71
NtRp4539
(dp4540
g74
(dp4541
sg83
g3425
sg76
(lp4542
g69
(g90
g71
NtRp4543
(dp4544
g74
(dp4545
g94
g95
ssg83
g4539
sg76
(lp4546
S'view'
p4547
asbag69
(g90
g71
NtRp4548
(dp4549
g74
(dp4550
g101
g102
ssg83
g4539
sg76
(lp4551
S':'
asbag69
(g90
g71
NtRp4552
(dp4553
g74
(dp4554
sg83
g4539
sg76
(lp4555
g69
(g70
g71
NtRp4556
(dp4557
g74
(dp4558
g82
I5
ssg83
g4552
sg76
(lp4559
S'vote/index.html'
p4560
asbasbasbasbasbsS'locals'
p4561
(dp4562
g4
S"'/home/kaique/Projects/web/big-votes/web2py/applications/bigvotes/controllers/vote.py'"
p4563
sg6
S"'# -*- coding: utf-8 -*-\\nfrom bigvotes import Vot...():\\n\\tpass\\nresponse._vars=response._caller(index)\\n'"
p4564
sssS'traceback'
p4565
S'Traceback (most recent call last):\n  File "/home/kaique/Projects/web/big-votes/web2py/gluon/restricted.py", line 204, in restricted\n    ccode = compile2(code,layer)\n  File "/home/kaique/Projects/web/big-votes/web2py/gluon/restricted.py", line 189, in compile2\n    return compile(code.rstrip().replace(\'\\r\\n\',\'\\n\')+\'\\n\', layer, \'exec\')\n  File "/home/kaique/Projects/web/big-votes/web2py/applications/bigvotes/controllers/vote.py", line 32\n    members[\'tied\'] = members[\'max_score\'] === members[\'min_score\']\n                                             ^\nSyntaxError: invalid syntax\n'
p4566
s.