(dp1
S'output'
p2
S"<type 'exceptions.SyntaxError'> invalid syntax (vote.py, line 45)"
p3
sS'layer'
p4
S'/home/kaique/Projects/web/big-votes/web2py/applications/bigvotes/controllers/vote.py'
p5
sS'code'
p6
S"# -*- coding: utf-8 -*-\nfrom bigvotes import Votes\nimport datetime\n\ndef index():\n\targs = request.args\n\tclient_ip = request.client\n\tnow = datetime.datetime.now\n\telapsed_time = datetime.timedelta( seconds = 60*5 )\n\toutput = False\n\n\tif args and len( args ) > 0 and client_ip:\n\t\tconsult = Votes(db).consult({\n\t\t\t'vote_id': args[0],\n\t\t\t'vote_ip': client_ip,\n\t\t})\n\n\t\tif now() > ( consult.vote_register + elapsed_time ):\n\t\t\toutput = Votes(db).newVote( { 'vote': args[0], 'member': args[1] } )\n\n\t\t\tif output:\n\t\t\t\tmembers = {}\n\t\t\t\t# Profile of members in the score\n\t\t\t\tmembers['profile'] = Votes(db).getScore( args[0] )\n\t\t\t\t# Score of members\n\t\t\t\tmembers['scores'] = [ members['profile'][member]['score'] for member in members['profile'] ]\n\t\t\t\t# Max score to eliminate\n\t\t\t\tmembers['max_score'] = max( members['scores'] )\n\t\t\t\t# Min score\n\t\t\t\tmembers['min_score'] = min( members['scores'] )\n\t\t\t\t# Members is tied\n\t\t\t\tmembers['tied'] = ( members['max_score'] == members['min_score'] )\n\t\t\t\t# Id of members in the profile score\n\t\t\t\tmembers['ids'] = [ int( member ) for member in members['profile'] ]\n\t\t\t\t# Names of members\n\t\t\t\tmembers['names'] = [ member['name'] for member in members['profile'] ]\n\t\t\t\t# Id of eliminated member\n\t\t\t\tmembers['eliminated'] = {\n\t\t\t\t\t'id': members['ids'][ members['scores'].index( members['max_score'] ) ],\n\t\t\t\t\t'name': members['names'][ members['scores'].index( members['max_score'] ) ],\n\t\t\t\t} \n\n\t\t\t\tif members:\n\t\t\t\t\tresponse.flash = T('Voted in %s' % ( members['profile'] )\n\t\telse:\n\t\t\tredirect( URL('default', 'index') )\n\telse:\n\t\tredirect( URL('default', 'index') )\n\n\treturn {\n\t\t'vote': args[1],\n\t\t'members': members\n\t}\n\ndef result():\n\tpass\nresponse._vars=response._caller(index)\n"
p7
sS'snapshot'
p8
(dp9
S'exception'
p10
(dp11
S'__getslice__'
p12
S"<method-wrapper '__getslice__' of exceptions.SyntaxError object>"
p13
sS'text'
p14
S"'\\t\\telse:\\n'"
p15
sS'__str__'
p16
S"<method-wrapper '__str__' of exceptions.SyntaxError object>"
p17
sS'__reduce__'
p18
S'<built-in method __reduce__ of exceptions.SyntaxError object>'
p19
sS'__dict__'
p20
S'{}'
p21
sS'__sizeof__'
p22
S'<built-in method __sizeof__ of exceptions.SyntaxError object>'
p23
sS'__init__'
p24
S"<method-wrapper '__init__' of exceptions.SyntaxError object>"
p25
sS'__setattr__'
p26
S"<method-wrapper '__setattr__' of exceptions.SyntaxError object>"
p27
sS'__reduce_ex__'
p28
S'<built-in method __reduce_ex__ of exceptions.SyntaxError object>'
p29
sS'__new__'
p30
S'<built-in method __new__ of type object>'
p31
sS'__format__'
p32
S'<built-in method __format__ of exceptions.SyntaxError object>'
p33
sS'__class__'
p34
S"<type 'exceptions.SyntaxError'>"
p35
sS'filename'
p36
S"'/home/kaique/Projects/web/big-votes/web2py/applications/bigvotes/controllers/vote.py'"
p37
sS'lineno'
p38
S'45'
p39
sS'msg'
p40
S"'invalid syntax'"
p41
sS'__doc__'
p42
S"'Invalid syntax.'"
p43
sS'__getitem__'
p44
S"<method-wrapper '__getitem__' of exceptions.SyntaxError object>"
p45
sS'__setstate__'
p46
S'<built-in method __setstate__ of exceptions.SyntaxError object>'
p47
sS'__getattribute__'
p48
S"<method-wrapper '__getattribute__' of exceptions.SyntaxError object>"
p49
sS'print_file_and_line'
p50
S'None'
p51
sS'args'
p52
S"('invalid syntax', ('/home/kaique/Projects/web/big-votes/web2py/applications/bigvotes/controllers/vote.py', 45, 6, '\\t\\telse:\\n'))"
p53
sS'__subclasshook__'
p54
S'<built-in method __subclasshook__ of type object>'
p55
sS'offset'
p56
S'6'
sS'__unicode__'
p57
S'<built-in method __unicode__ of exceptions.SyntaxError object>'
p58
sS'__delattr__'
p59
S"<method-wrapper '__delattr__' of exceptions.SyntaxError object>"
p60
sS'__repr__'
p61
S"<method-wrapper '__repr__' of exceptions.SyntaxError object>"
p62
sS'__hash__'
p63
S"<method-wrapper '__hash__' of exceptions.SyntaxError object>"
p64
ssS'evalue'
p65
S'invalid syntax (vote.py, line 45)'
p66
sS'request'
p67
ccopy_reg
_reconstructor
p68
(cgluon.html
BEAUTIFY
p69
c__builtin__
object
p70
NtRp71
(dp72
S'attributes'
p73
(dp74
sS'components'
p75
(lp76
g68
(cgluon.html
TABLE
p77
g70
NtRp78
(dp79
g73
(dp80
S'level'
p81
I5
ssS'parent'
p82
Nsg75
(lp83
g68
(cgluon.html
TR
p84
g70
NtRp85
(dp86
g73
(dp87
sg82
g78
sg75
(lp88
g68
(cgluon.html
TD
p89
g70
NtRp90
(dp91
g73
(dp92
S'_style'
p93
S'font-weight:bold;vertical-align:top'
p94
ssg82
g85
sg75
(lp95
S'ajax'
p96
asbag68
(g89
g70
NtRp97
(dp98
g73
(dp99
S'_valign'
p100
S'top'
p101
ssg82
g85
sg75
(lp102
S':'
asbag68
(g89
g70
NtRp103
(dp104
g73
(dp105
sg82
g85
sg75
(lp106
g68
(g69
g70
NtRp107
(dp108
g73
(dp109
g81
I5
ssg82
g103
sg75
(lp110
S'False'
p111
asbasbasbag68
(g84
g70
NtRp112
(dp113
g73
(dp114
sg82
g78
sg75
(lp115
g68
(g89
g70
NtRp116
(dp117
g73
(dp118
g93
g94
ssg82
g112
sg75
(lp119
S'application'
p120
asbag68
(g89
g70
NtRp121
(dp122
g73
(dp123
g100
g101
ssg82
g112
sg75
(lp124
S':'
asbag68
(g89
g70
NtRp125
(dp126
g73
(dp127
sg82
g112
sg75
(lp128
g68
(g69
g70
NtRp129
(dp130
g73
(dp131
g81
I5
ssg82
g125
sg75
(lp132
S'bigvotes'
p133
asbasbasbag68
(g84
g70
NtRp134
(dp135
g73
(dp136
sg82
g78
sg75
(lp137
g68
(g89
g70
NtRp138
(dp139
g73
(dp140
g93
g94
ssg82
g134
sg75
(lp141
g52
asbag68
(g89
g70
NtRp142
(dp143
g73
(dp144
g100
g101
ssg82
g134
sg75
(lp145
S':'
asbag68
(g89
g70
NtRp146
(dp147
g73
(dp148
sg82
g134
sg75
(lp149
g68
(g69
g70
NtRp150
(dp151
g73
(dp152
g81
I5
ssg82
g146
sg75
(lp153
g68
(g77
g70
NtRp154
(dp155
g73
(dp156
g81
I4
ssg82
Nsg75
(lp157
g68
(g84
g70
NtRp158
(dp159
g73
(dp160
sg82
g154
sg75
(lp161
g68
(g89
g70
NtRp162
(dp163
g73
(dp164
sg82
g158
sg75
(lp165
g68
(g69
g70
NtRp166
(dp167
g73
(dp168
g81
I4
ssg82
g162
sg75
(lp169
S'1'
asbasbasbag68
(g84
g70
NtRp170
(dp171
g73
(dp172
sg82
g154
sg75
(lp173
g68
(g89
g70
NtRp174
(dp175
g73
(dp176
sg82
g170
sg75
(lp177
g68
(g69
g70
NtRp178
(dp179
g73
(dp180
g81
I4
ssg82
g174
sg75
(lp181
S'1'
asbasbasbasbasbasbasbag68
(g84
g70
NtRp182
(dp183
g73
(dp184
sg82
g78
sg75
(lp185
g68
(g89
g70
NtRp186
(dp187
g73
(dp188
g93
g94
ssg82
g182
sg75
(lp189
S'body'
p190
asbag68
(g89
g70
NtRp191
(dp192
g73
(dp193
g100
g101
ssg82
g182
sg75
(lp194
S':'
asbag68
(g89
g70
NtRp195
(dp196
g73
(dp197
sg82
g182
sg75
(lp198
g68
(g69
g70
NtRp199
(dp200
g73
(dp201
g81
I5
ssg82
g195
sg75
(lp202
S'<cStringIO.StringO object at 0xa0d35c0>'
p203
asbasbasbag68
(g84
g70
NtRp204
(dp205
g73
(dp206
sg82
g78
sg75
(lp207
g68
(g89
g70
NtRp208
(dp209
g73
(dp210
g93
g94
ssg82
g204
sg75
(lp211
S'client'
p212
asbag68
(g89
g70
NtRp213
(dp214
g73
(dp215
g100
g101
ssg82
g204
sg75
(lp216
S':'
asbag68
(g89
g70
NtRp217
(dp218
g73
(dp219
sg82
g204
sg75
(lp220
g68
(g69
g70
NtRp221
(dp222
g73
(dp223
g81
I5
ssg82
g217
sg75
(lp224
S'127.0.0.1'
p225
asbasbasbag68
(g84
g70
NtRp226
(dp227
g73
(dp228
sg82
g78
sg75
(lp229
g68
(g89
g70
NtRp230
(dp231
g73
(dp232
g93
g94
ssg82
g226
sg75
(lp233
S'controller'
p234
asbag68
(g89
g70
NtRp235
(dp236
g73
(dp237
g100
g101
ssg82
g226
sg75
(lp238
S':'
asbag68
(g89
g70
NtRp239
(dp240
g73
(dp241
sg82
g226
sg75
(lp242
g68
(g69
g70
NtRp243
(dp244
g73
(dp245
g81
I5
ssg82
g239
sg75
(lp246
S'vote'
p247
asbasbasbag68
(g84
g70
NtRp248
(dp249
g73
(dp250
sg82
g78
sg75
(lp251
g68
(g89
g70
NtRp252
(dp253
g73
(dp254
g93
g94
ssg82
g248
sg75
(lp255
S'cookies'
p256
asbag68
(g89
g70
NtRp257
(dp258
g73
(dp259
g100
g101
ssg82
g248
sg75
(lp260
S':'
asbag68
(g89
g70
NtRp261
(dp262
g73
(dp263
sg82
g248
sg75
(lp264
g68
(g69
g70
NtRp265
(dp266
g73
(dp267
g81
I5
ssg82
g261
sg75
(lp268
g68
(g77
g70
NtRp269
(dp270
g73
(dp271
g81
I4
ssg82
Nsg75
(lp272
g68
(g84
g70
NtRp273
(dp274
g73
(dp275
sg82
g269
sg75
(lp276
g68
(g89
g70
NtRp277
(dp278
g73
(dp279
g93
g94
ssg82
g273
sg75
(lp280
S'session_id_admin'
p281
asbag68
(g89
g70
NtRp282
(dp283
g73
(dp284
g100
g101
ssg82
g273
sg75
(lp285
S':'
asbag68
(g89
g70
NtRp286
(dp287
g73
(dp288
sg82
g273
sg75
(lp289
g68
(g69
g70
NtRp290
(dp291
g73
(dp292
g81
I4
ssg82
g286
sg75
(lp293
g68
(g77
g70
NtRp294
(dp295
g73
(dp296
g81
I3
ssg82
Nsg75
(lp297
g68
(g84
g70
NtRp298
(dp299
g73
(dp300
sg82
g294
sg75
(lp301
g68
(g89
g70
NtRp302
(dp303
g73
(dp304
g93
g94
ssg82
g298
sg75
(lp305
S'comment'
p306
asbag68
(g89
g70
NtRp307
(dp308
g73
(dp309
g100
g101
ssg82
g298
sg75
(lp310
S':'
asbag68
(g89
g70
NtRp311
(dp312
g73
(dp313
sg82
g298
sg75
(lp314
g68
(g69
g70
NtRp315
(dp316
g73
(dp317
g81
I3
ssg82
g311
sg75
(lp318
S''
asbasbasbag68
(g84
g70
NtRp319
(dp320
g73
(dp321
sg82
g294
sg75
(lp322
g68
(g89
g70
NtRp323
(dp324
g73
(dp325
g93
g94
ssg82
g319
sg75
(lp326
S'domain'
p327
asbag68
(g89
g70
NtRp328
(dp329
g73
(dp330
g100
g101
ssg82
g319
sg75
(lp331
S':'
asbag68
(g89
g70
NtRp332
(dp333
g73
(dp334
sg82
g319
sg75
(lp335
g68
(g69
g70
NtRp336
(dp337
g73
(dp338
g81
I3
ssg82
g332
sg75
(lp339
S''
asbasbasbag68
(g84
g70
NtRp340
(dp341
g73
(dp342
sg82
g294
sg75
(lp343
g68
(g89
g70
NtRp344
(dp345
g73
(dp346
g93
g94
ssg82
g340
sg75
(lp347
S'expires'
p348
asbag68
(g89
g70
NtRp349
(dp350
g73
(dp351
g100
g101
ssg82
g340
sg75
(lp352
S':'
asbag68
(g89
g70
NtRp353
(dp354
g73
(dp355
sg82
g340
sg75
(lp356
g68
(g69
g70
NtRp357
(dp358
g73
(dp359
g81
I3
ssg82
g353
sg75
(lp360
S''
asbasbasbag68
(g84
g70
NtRp361
(dp362
g73
(dp363
sg82
g294
sg75
(lp364
g68
(g89
g70
NtRp365
(dp366
g73
(dp367
g93
g94
ssg82
g361
sg75
(lp368
S'httponly'
p369
asbag68
(g89
g70
NtRp370
(dp371
g73
(dp372
g100
g101
ssg82
g361
sg75
(lp373
S':'
asbag68
(g89
g70
NtRp374
(dp375
g73
(dp376
sg82
g361
sg75
(lp377
g68
(g69
g70
NtRp378
(dp379
g73
(dp380
g81
I3
ssg82
g374
sg75
(lp381
S''
asbasbasbag68
(g84
g70
NtRp382
(dp383
g73
(dp384
sg82
g294
sg75
(lp385
g68
(g89
g70
NtRp386
(dp387
g73
(dp388
g93
g94
ssg82
g382
sg75
(lp389
S'max-age'
p390
asbag68
(g89
g70
NtRp391
(dp392
g73
(dp393
g100
g101
ssg82
g382
sg75
(lp394
S':'
asbag68
(g89
g70
NtRp395
(dp396
g73
(dp397
sg82
g382
sg75
(lp398
g68
(g69
g70
NtRp399
(dp400
g73
(dp401
g81
I3
ssg82
g395
sg75
(lp402
S''
asbasbasbag68
(g84
g70
NtRp403
(dp404
g73
(dp405
sg82
g294
sg75
(lp406
g68
(g89
g70
NtRp407
(dp408
g73
(dp409
g93
g94
ssg82
g403
sg75
(lp410
S'path'
p411
asbag68
(g89
g70
NtRp412
(dp413
g73
(dp414
g100
g101
ssg82
g403
sg75
(lp415
S':'
asbag68
(g89
g70
NtRp416
(dp417
g73
(dp418
sg82
g403
sg75
(lp419
g68
(g69
g70
NtRp420
(dp421
g73
(dp422
g81
I3
ssg82
g416
sg75
(lp423
S''
asbasbasbag68
(g84
g70
NtRp424
(dp425
g73
(dp426
sg82
g294
sg75
(lp427
g68
(g89
g70
NtRp428
(dp429
g73
(dp430
g93
g94
ssg82
g424
sg75
(lp431
S'secure'
p432
asbag68
(g89
g70
NtRp433
(dp434
g73
(dp435
g100
g101
ssg82
g424
sg75
(lp436
S':'
asbag68
(g89
g70
NtRp437
(dp438
g73
(dp439
sg82
g424
sg75
(lp440
g68
(g69
g70
NtRp441
(dp442
g73
(dp443
g81
I3
ssg82
g437
sg75
(lp444
S''
asbasbasbag68
(g84
g70
NtRp445
(dp446
g73
(dp447
sg82
g294
sg75
(lp448
g68
(g89
g70
NtRp449
(dp450
g73
(dp451
g93
g94
ssg82
g445
sg75
(lp452
S'version'
p453
asbag68
(g89
g70
NtRp454
(dp455
g73
(dp456
g100
g101
ssg82
g445
sg75
(lp457
S':'
asbag68
(g89
g70
NtRp458
(dp459
g73
(dp460
sg82
g445
sg75
(lp461
g68
(g69
g70
NtRp462
(dp463
g73
(dp464
g81
I3
ssg82
g458
sg75
(lp465
S''
asbasbasbasbasbasbasbag68
(g84
g70
NtRp466
(dp467
g73
(dp468
sg82
g269
sg75
(lp469
g68
(g89
g70
NtRp470
(dp471
g73
(dp472
g93
g94
ssg82
g466
sg75
(lp473
S'session_id_bigvotes'
p474
asbag68
(g89
g70
NtRp475
(dp476
g73
(dp477
g100
g101
ssg82
g466
sg75
(lp478
S':'
asbag68
(g89
g70
NtRp479
(dp480
g73
(dp481
sg82
g466
sg75
(lp482
g68
(g69
g70
NtRp483
(dp484
g73
(dp485
g81
I4
ssg82
g479
sg75
(lp486
g68
(g77
g70
NtRp487
(dp488
g73
(dp489
g81
I3
ssg82
Nsg75
(lp490
g68
(g84
g70
NtRp491
(dp492
g73
(dp493
sg82
g487
sg75
(lp494
g68
(g89
g70
NtRp495
(dp496
g73
(dp497
g93
g94
ssg82
g491
sg75
(lp498
g306
asbag68
(g89
g70
NtRp499
(dp500
g73
(dp501
g100
g101
ssg82
g491
sg75
(lp502
S':'
asbag68
(g89
g70
NtRp503
(dp504
g73
(dp505
sg82
g491
sg75
(lp506
g68
(g69
g70
NtRp507
(dp508
g73
(dp509
g81
I3
ssg82
g503
sg75
(lp510
S''
asbasbasbag68
(g84
g70
NtRp511
(dp512
g73
(dp513
sg82
g487
sg75
(lp514
g68
(g89
g70
NtRp515
(dp516
g73
(dp517
g93
g94
ssg82
g511
sg75
(lp518
g327
asbag68
(g89
g70
NtRp519
(dp520
g73
(dp521
g100
g101
ssg82
g511
sg75
(lp522
S':'
asbag68
(g89
g70
NtRp523
(dp524
g73
(dp525
sg82
g511
sg75
(lp526
g68
(g69
g70
NtRp527
(dp528
g73
(dp529
g81
I3
ssg82
g523
sg75
(lp530
S''
asbasbasbag68
(g84
g70
NtRp531
(dp532
g73
(dp533
sg82
g487
sg75
(lp534
g68
(g89
g70
NtRp535
(dp536
g73
(dp537
g93
g94
ssg82
g531
sg75
(lp538
g348
asbag68
(g89
g70
NtRp539
(dp540
g73
(dp541
g100
g101
ssg82
g531
sg75
(lp542
S':'
asbag68
(g89
g70
NtRp543
(dp544
g73
(dp545
sg82
g531
sg75
(lp546
g68
(g69
g70
NtRp547
(dp548
g73
(dp549
g81
I3
ssg82
g543
sg75
(lp550
S''
asbasbasbag68
(g84
g70
NtRp551
(dp552
g73
(dp553
sg82
g487
sg75
(lp554
g68
(g89
g70
NtRp555
(dp556
g73
(dp557
g93
g94
ssg82
g551
sg75
(lp558
g369
asbag68
(g89
g70
NtRp559
(dp560
g73
(dp561
g100
g101
ssg82
g551
sg75
(lp562
S':'
asbag68
(g89
g70
NtRp563
(dp564
g73
(dp565
sg82
g551
sg75
(lp566
g68
(g69
g70
NtRp567
(dp568
g73
(dp569
g81
I3
ssg82
g563
sg75
(lp570
S''
asbasbasbag68
(g84
g70
NtRp571
(dp572
g73
(dp573
sg82
g487
sg75
(lp574
g68
(g89
g70
NtRp575
(dp576
g73
(dp577
g93
g94
ssg82
g571
sg75
(lp578
g390
asbag68
(g89
g70
NtRp579
(dp580
g73
(dp581
g100
g101
ssg82
g571
sg75
(lp582
S':'
asbag68
(g89
g70
NtRp583
(dp584
g73
(dp585
sg82
g571
sg75
(lp586
g68
(g69
g70
NtRp587
(dp588
g73
(dp589
g81
I3
ssg82
g583
sg75
(lp590
S''
asbasbasbag68
(g84
g70
NtRp591
(dp592
g73
(dp593
sg82
g487
sg75
(lp594
g68
(g89
g70
NtRp595
(dp596
g73
(dp597
g93
g94
ssg82
g591
sg75
(lp598
g411
asbag68
(g89
g70
NtRp599
(dp600
g73
(dp601
g100
g101
ssg82
g591
sg75
(lp602
S':'
asbag68
(g89
g70
NtRp603
(dp604
g73
(dp605
sg82
g591
sg75
(lp606
g68
(g69
g70
NtRp607
(dp608
g73
(dp609
g81
I3
ssg82
g603
sg75
(lp610
S''
asbasbasbag68
(g84
g70
NtRp611
(dp612
g73
(dp613
sg82
g487
sg75
(lp614
g68
(g89
g70
NtRp615
(dp616
g73
(dp617
g93
g94
ssg82
g611
sg75
(lp618
g432
asbag68
(g89
g70
NtRp619
(dp620
g73
(dp621
g100
g101
ssg82
g611
sg75
(lp622
S':'
asbag68
(g89
g70
NtRp623
(dp624
g73
(dp625
sg82
g611
sg75
(lp626
g68
(g69
g70
NtRp627
(dp628
g73
(dp629
g81
I3
ssg82
g623
sg75
(lp630
S''
asbasbasbag68
(g84
g70
NtRp631
(dp632
g73
(dp633
sg82
g487
sg75
(lp634
g68
(g89
g70
NtRp635
(dp636
g73
(dp637
g93
g94
ssg82
g631
sg75
(lp638
g453
asbag68
(g89
g70
NtRp639
(dp640
g73
(dp641
g100
g101
ssg82
g631
sg75
(lp642
S':'
asbag68
(g89
g70
NtRp643
(dp644
g73
(dp645
sg82
g631
sg75
(lp646
g68
(g69
g70
NtRp647
(dp648
g73
(dp649
g81
I3
ssg82
g643
sg75
(lp650
S''
asbasbasbasbasbasbasbag68
(g84
g70
NtRp651
(dp652
g73
(dp653
sg82
g269
sg75
(lp654
g68
(g89
g70
NtRp655
(dp656
g73
(dp657
g93
g94
ssg82
g651
sg75
(lp658
S'session_id_welcome'
p659
asbag68
(g89
g70
NtRp660
(dp661
g73
(dp662
g100
g101
ssg82
g651
sg75
(lp663
S':'
asbag68
(g89
g70
NtRp664
(dp665
g73
(dp666
sg82
g651
sg75
(lp667
g68
(g69
g70
NtRp668
(dp669
g73
(dp670
g81
I4
ssg82
g664
sg75
(lp671
g68
(g77
g70
NtRp672
(dp673
g73
(dp674
g81
I3
ssg82
Nsg75
(lp675
g68
(g84
g70
NtRp676
(dp677
g73
(dp678
sg82
g672
sg75
(lp679
g68
(g89
g70
NtRp680
(dp681
g73
(dp682
g93
g94
ssg82
g676
sg75
(lp683
g306
asbag68
(g89
g70
NtRp684
(dp685
g73
(dp686
g100
g101
ssg82
g676
sg75
(lp687
S':'
asbag68
(g89
g70
NtRp688
(dp689
g73
(dp690
sg82
g676
sg75
(lp691
g68
(g69
g70
NtRp692
(dp693
g73
(dp694
g81
I3
ssg82
g688
sg75
(lp695
S''
asbasbasbag68
(g84
g70
NtRp696
(dp697
g73
(dp698
sg82
g672
sg75
(lp699
g68
(g89
g70
NtRp700
(dp701
g73
(dp702
g93
g94
ssg82
g696
sg75
(lp703
g327
asbag68
(g89
g70
NtRp704
(dp705
g73
(dp706
g100
g101
ssg82
g696
sg75
(lp707
S':'
asbag68
(g89
g70
NtRp708
(dp709
g73
(dp710
sg82
g696
sg75
(lp711
g68
(g69
g70
NtRp712
(dp713
g73
(dp714
g81
I3
ssg82
g708
sg75
(lp715
S''
asbasbasbag68
(g84
g70
NtRp716
(dp717
g73
(dp718
sg82
g672
sg75
(lp719
g68
(g89
g70
NtRp720
(dp721
g73
(dp722
g93
g94
ssg82
g716
sg75
(lp723
g348
asbag68
(g89
g70
NtRp724
(dp725
g73
(dp726
g100
g101
ssg82
g716
sg75
(lp727
S':'
asbag68
(g89
g70
NtRp728
(dp729
g73
(dp730
sg82
g716
sg75
(lp731
g68
(g69
g70
NtRp732
(dp733
g73
(dp734
g81
I3
ssg82
g728
sg75
(lp735
S''
asbasbasbag68
(g84
g70
NtRp736
(dp737
g73
(dp738
sg82
g672
sg75
(lp739
g68
(g89
g70
NtRp740
(dp741
g73
(dp742
g93
g94
ssg82
g736
sg75
(lp743
g369
asbag68
(g89
g70
NtRp744
(dp745
g73
(dp746
g100
g101
ssg82
g736
sg75
(lp747
S':'
asbag68
(g89
g70
NtRp748
(dp749
g73
(dp750
sg82
g736
sg75
(lp751
g68
(g69
g70
NtRp752
(dp753
g73
(dp754
g81
I3
ssg82
g748
sg75
(lp755
S''
asbasbasbag68
(g84
g70
NtRp756
(dp757
g73
(dp758
sg82
g672
sg75
(lp759
g68
(g89
g70
NtRp760
(dp761
g73
(dp762
g93
g94
ssg82
g756
sg75
(lp763
g390
asbag68
(g89
g70
NtRp764
(dp765
g73
(dp766
g100
g101
ssg82
g756
sg75
(lp767
S':'
asbag68
(g89
g70
NtRp768
(dp769
g73
(dp770
sg82
g756
sg75
(lp771
g68
(g69
g70
NtRp772
(dp773
g73
(dp774
g81
I3
ssg82
g768
sg75
(lp775
S''
asbasbasbag68
(g84
g70
NtRp776
(dp777
g73
(dp778
sg82
g672
sg75
(lp779
g68
(g89
g70
NtRp780
(dp781
g73
(dp782
g93
g94
ssg82
g776
sg75
(lp783
g411
asbag68
(g89
g70
NtRp784
(dp785
g73
(dp786
g100
g101
ssg82
g776
sg75
(lp787
S':'
asbag68
(g89
g70
NtRp788
(dp789
g73
(dp790
sg82
g776
sg75
(lp791
g68
(g69
g70
NtRp792
(dp793
g73
(dp794
g81
I3
ssg82
g788
sg75
(lp795
S''
asbasbasbag68
(g84
g70
NtRp796
(dp797
g73
(dp798
sg82
g672
sg75
(lp799
g68
(g89
g70
NtRp800
(dp801
g73
(dp802
g93
g94
ssg82
g796
sg75
(lp803
g432
asbag68
(g89
g70
NtRp804
(dp805
g73
(dp806
g100
g101
ssg82
g796
sg75
(lp807
S':'
asbag68
(g89
g70
NtRp808
(dp809
g73
(dp810
sg82
g796
sg75
(lp811
g68
(g69
g70
NtRp812
(dp813
g73
(dp814
g81
I3
ssg82
g808
sg75
(lp815
S''
asbasbasbag68
(g84
g70
NtRp816
(dp817
g73
(dp818
sg82
g672
sg75
(lp819
g68
(g89
g70
NtRp820
(dp821
g73
(dp822
g93
g94
ssg82
g816
sg75
(lp823
g453
asbag68
(g89
g70
NtRp824
(dp825
g73
(dp826
g100
g101
ssg82
g816
sg75
(lp827
S':'
asbag68
(g89
g70
NtRp828
(dp829
g73
(dp830
sg82
g816
sg75
(lp831
g68
(g69
g70
NtRp832
(dp833
g73
(dp834
g81
I3
ssg82
g828
sg75
(lp835
S''
asbasbasbasbasbasbasbasbasbasbasbag68
(g84
g70
NtRp836
(dp837
g73
(dp838
sg82
g78
sg75
(lp839
g68
(g89
g70
NtRp840
(dp841
g73
(dp842
g93
g94
ssg82
g836
sg75
(lp843
S'env'
p844
asbag68
(g89
g70
NtRp845
(dp846
g73
(dp847
g100
g101
ssg82
g836
sg75
(lp848
S':'
asbag68
(g89
g70
NtRp849
(dp850
g73
(dp851
sg82
g836
sg75
(lp852
g68
(g69
g70
NtRp853
(dp854
g73
(dp855
g81
I5
ssg82
g849
sg75
(lp856
g68
(g77
g70
NtRp857
(dp858
g73
(dp859
g81
I4
ssg82
Nsg75
(lp860
g68
(g84
g70
NtRp861
(dp862
g73
(dp863
sg82
g857
sg75
(lp864
g68
(g89
g70
NtRp865
(dp866
g73
(dp867
g93
g94
ssg82
g861
sg75
(lp868
S'app_folders'
p869
asbag68
(g89
g70
NtRp870
(dp871
g73
(dp872
g100
g101
ssg82
g861
sg75
(lp873
S':'
asbag68
(g89
g70
NtRp874
(dp875
g73
(dp876
sg82
g861
sg75
(lp877
g68
(g69
g70
NtRp878
(dp879
g73
(dp880
g81
I4
ssg82
g874
sg75
(lp881
S"set(['/home/kaique/Projects/web/big-votes/web2py/applications/bigvotes/', '/home/kaique/Projects/web/big-votes/web2py/applications/admin/'])"
p882
asbasbasbag68
(g84
g70
NtRp883
(dp884
g73
(dp885
sg82
g857
sg75
(lp886
g68
(g89
g70
NtRp887
(dp888
g73
(dp889
g93
g94
ssg82
g883
sg75
(lp890
S'applications_parent'
p891
asbag68
(g89
g70
NtRp892
(dp893
g73
(dp894
g100
g101
ssg82
g883
sg75
(lp895
S':'
asbag68
(g89
g70
NtRp896
(dp897
g73
(dp898
sg82
g883
sg75
(lp899
g68
(g69
g70
NtRp900
(dp901
g73
(dp902
g81
I4
ssg82
g896
sg75
(lp903
S'/home/kaique/Projects/web/big-votes/web2py'
p904
asbasbasbag68
(g84
g70
NtRp905
(dp906
g73
(dp907
sg82
g857
sg75
(lp908
g68
(g89
g70
NtRp909
(dp910
g73
(dp911
g93
g94
ssg82
g905
sg75
(lp912
S'cmd_args'
p913
asbag68
(g89
g70
NtRp914
(dp915
g73
(dp916
g100
g101
ssg82
g905
sg75
(lp917
S':'
asbag68
(g89
g70
NtRp918
(dp919
g73
(dp920
sg82
g905
sg75
(lp921
g68
(g69
g70
NtRp922
(dp923
g73
(dp924
g81
I4
ssg82
g918
sg75
(lp925
g68
(g77
g70
NtRp926
(dp927
g73
(dp928
g81
I3
ssg82
Nsg75
(lp929
sbasbasbasbag68
(g84
g70
NtRp930
(dp931
g73
(dp932
sg82
g857
sg75
(lp933
g68
(g89
g70
NtRp934
(dp935
g73
(dp936
g93
g94
ssg82
g930
sg75
(lp937
S'cmd_options'
p938
asbag68
(g89
g70
NtRp939
(dp940
g73
(dp941
g100
g101
ssg82
g930
sg75
(lp942
S':'
asbag68
(g89
g70
NtRp943
(dp944
g73
(dp945
sg82
g930
sg75
(lp946
g68
(g69
g70
NtRp947
(dp948
g73
(dp949
g81
I4
ssg82
g943
sg75
(lp950
S"<Values at 0xa236eec: {'verbose': False, 'ip': '127.0.0.1', 'shutdown_timeout': 5, 'taskbar': False, 'nocron': False, 'pid_filename': 'httpserver.pid', 'maxthreads': None, 'softcron': False, 'server_name': 'main', 'bpython': False, 'nogui': False, 'port': 8000, 'extcron': False, 'debuglevel': 30, 'test': None, 'folder': '/home/kaique/Projects/web/big-votes/web2py', 'config': '', 'import_models': False, 'winservice': '', 'shell': None, 'run': '', 'log_filename': 'httpserver.log', 'args': [''], 'socket_timeout': 5, 'ssl_ca_certificate': None, 'scheduler': None, 'profiler_filename': None, 'ssl_private_key': '', 'password': 'dev', 'request_queue_size': 5, 'ssl_certificate': '', 'cronjob': False, 'numthreads': None, 'quiet': False, 'interfaces': None, 'minthreads': None, 'timeout': 10, 'plain': False, 'nobanner': False}>"
p951
asbasbasbag68
(g84
g70
NtRp952
(dp953
g73
(dp954
sg82
g857
sg75
(lp955
g68
(g89
g70
NtRp956
(dp957
g73
(dp958
g93
g94
ssg82
g952
sg75
(lp959
S'db_sessions'
p960
asbag68
(g89
g70
NtRp961
(dp962
g73
(dp963
g100
g101
ssg82
g952
sg75
(lp964
S':'
asbag68
(g89
g70
NtRp965
(dp966
g73
(dp967
sg82
g952
sg75
(lp968
g68
(g69
g70
NtRp969
(dp970
g73
(dp971
g81
I4
ssg82
g965
sg75
(lp972
S'set([])'
p973
asbasbasbag68
(g84
g70
NtRp974
(dp975
g73
(dp976
sg82
g857
sg75
(lp977
g68
(g89
g70
NtRp978
(dp979
g73
(dp980
g93
g94
ssg82
g974
sg75
(lp981
S'debugging'
p982
asbag68
(g89
g70
NtRp983
(dp984
g73
(dp985
g100
g101
ssg82
g974
sg75
(lp986
S':'
asbag68
(g89
g70
NtRp987
(dp988
g73
(dp989
sg82
g974
sg75
(lp990
g68
(g69
g70
NtRp991
(dp992
g73
(dp993
g81
I4
ssg82
g987
sg75
(lp994
g111
asbasbasbag68
(g84
g70
NtRp995
(dp996
g73
(dp997
sg82
g857
sg75
(lp998
g68
(g89
g70
NtRp999
(dp1000
g73
(dp1001
g93
g94
ssg82
g995
sg75
(lp1002
S'gluon_parent'
p1003
asbag68
(g89
g70
NtRp1004
(dp1005
g73
(dp1006
g100
g101
ssg82
g995
sg75
(lp1007
S':'
asbag68
(g89
g70
NtRp1008
(dp1009
g73
(dp1010
sg82
g995
sg75
(lp1011
g68
(g69
g70
NtRp1012
(dp1013
g73
(dp1014
g81
I4
ssg82
g1008
sg75
(lp1015
S'/home/kaique/Projects/web/big-votes/web2py'
p1016
asbasbasbag68
(g84
g70
NtRp1017
(dp1018
g73
(dp1019
sg82
g857
sg75
(lp1020
g68
(g89
g70
NtRp1021
(dp1022
g73
(dp1023
g93
g94
ssg82
g1017
sg75
(lp1024
S'http_accept'
p1025
asbag68
(g89
g70
NtRp1026
(dp1027
g73
(dp1028
g100
g101
ssg82
g1017
sg75
(lp1029
S':'
asbag68
(g89
g70
NtRp1030
(dp1031
g73
(dp1032
sg82
g1017
sg75
(lp1033
g68
(g69
g70
NtRp1034
(dp1035
g73
(dp1036
g81
I4
ssg82
g1030
sg75
(lp1037
S'text/html,application/xhtml+xml,application/xml;q=0.9,*/*;q=0.8'
p1038
asbasbasbag68
(g84
g70
NtRp1039
(dp1040
g73
(dp1041
sg82
g857
sg75
(lp1042
g68
(g89
g70
NtRp1043
(dp1044
g73
(dp1045
g93
g94
ssg82
g1039
sg75
(lp1046
S'http_accept_encoding'
p1047
asbag68
(g89
g70
NtRp1048
(dp1049
g73
(dp1050
g100
g101
ssg82
g1039
sg75
(lp1051
S':'
asbag68
(g89
g70
NtRp1052
(dp1053
g73
(dp1054
sg82
g1039
sg75
(lp1055
g68
(g69
g70
NtRp1056
(dp1057
g73
(dp1058
g81
I4
ssg82
g1052
sg75
(lp1059
S'gzip, deflate'
p1060
asbasbasbag68
(g84
g70
NtRp1061
(dp1062
g73
(dp1063
sg82
g857
sg75
(lp1064
g68
(g89
g70
NtRp1065
(dp1066
g73
(dp1067
g93
g94
ssg82
g1061
sg75
(lp1068
S'http_accept_language'
p1069
asbag68
(g89
g70
NtRp1070
(dp1071
g73
(dp1072
g100
g101
ssg82
g1061
sg75
(lp1073
S':'
asbag68
(g89
g70
NtRp1074
(dp1075
g73
(dp1076
sg82
g1061
sg75
(lp1077
g68
(g69
g70
NtRp1078
(dp1079
g73
(dp1080
g81
I4
ssg82
g1074
sg75
(lp1081
S'en-us,en;q=0.5'
p1082
asbasbasbag68
(g84
g70
NtRp1083
(dp1084
g73
(dp1085
sg82
g857
sg75
(lp1086
g68
(g89
g70
NtRp1087
(dp1088
g73
(dp1089
g93
g94
ssg82
g1083
sg75
(lp1090
S'http_cache_control'
p1091
asbag68
(g89
g70
NtRp1092
(dp1093
g73
(dp1094
g100
g101
ssg82
g1083
sg75
(lp1095
S':'
asbag68
(g89
g70
NtRp1096
(dp1097
g73
(dp1098
sg82
g1083
sg75
(lp1099
g68
(g69
g70
NtRp1100
(dp1101
g73
(dp1102
g81
I4
ssg82
g1096
sg75
(lp1103
S'max-age=0'
p1104
asbasbasbag68
(g84
g70
NtRp1105
(dp1106
g73
(dp1107
sg82
g857
sg75
(lp1108
g68
(g89
g70
NtRp1109
(dp1110
g73
(dp1111
g93
g94
ssg82
g1105
sg75
(lp1112
S'http_connection'
p1113
asbag68
(g89
g70
NtRp1114
(dp1115
g73
(dp1116
g100
g101
ssg82
g1105
sg75
(lp1117
S':'
asbag68
(g89
g70
NtRp1118
(dp1119
g73
(dp1120
sg82
g1105
sg75
(lp1121
g68
(g69
g70
NtRp1122
(dp1123
g73
(dp1124
g81
I4
ssg82
g1118
sg75
(lp1125
S'keep-alive'
p1126
asbasbasbag68
(g84
g70
NtRp1127
(dp1128
g73
(dp1129
sg82
g857
sg75
(lp1130
g68
(g89
g70
NtRp1131
(dp1132
g73
(dp1133
g93
g94
ssg82
g1127
sg75
(lp1134
S'http_cookie'
p1135
asbag68
(g89
g70
NtRp1136
(dp1137
g73
(dp1138
g100
g101
ssg82
g1127
sg75
(lp1139
S':'
asbag68
(g89
g70
NtRp1140
(dp1141
g73
(dp1142
sg82
g1127
sg75
(lp1143
g68
(g69
g70
NtRp1144
(dp1145
g73
(dp1146
g81
I4
ssg82
g1140
sg75
(lp1147
S'session_id_welcome=127.0.0.1-2ecfa9c2-5112-46c3-a61d-d3ed2a022cb8; session_id_admin=127.0.0.1-bbb3d6a0-08e9-48b9-b2e9-87a0603316cc; session_id_bigvotes=127.0.0.1-72286364-99c3-4aae-95dc-f33a83b4d6f1'
p1148
asbasbasbag68
(g84
g70
NtRp1149
(dp1150
g73
(dp1151
sg82
g857
sg75
(lp1152
g68
(g89
g70
NtRp1153
(dp1154
g73
(dp1155
g93
g94
ssg82
g1149
sg75
(lp1156
S'http_host'
p1157
asbag68
(g89
g70
NtRp1158
(dp1159
g73
(dp1160
g100
g101
ssg82
g1149
sg75
(lp1161
S':'
asbag68
(g89
g70
NtRp1162
(dp1163
g73
(dp1164
sg82
g1149
sg75
(lp1165
g68
(g69
g70
NtRp1166
(dp1167
g73
(dp1168
g81
I4
ssg82
g1162
sg75
(lp1169
S'localhost:8000'
p1170
asbasbasbag68
(g84
g70
NtRp1171
(dp1172
g73
(dp1173
sg82
g857
sg75
(lp1174
g68
(g89
g70
NtRp1175
(dp1176
g73
(dp1177
g93
g94
ssg82
g1171
sg75
(lp1178
S'http_referer'
p1179
asbag68
(g89
g70
NtRp1180
(dp1181
g73
(dp1182
g100
g101
ssg82
g1171
sg75
(lp1183
S':'
asbag68
(g89
g70
NtRp1184
(dp1185
g73
(dp1186
sg82
g1171
sg75
(lp1187
g68
(g69
g70
NtRp1188
(dp1189
g73
(dp1190
g81
I4
ssg82
g1184
sg75
(lp1191
S'http://localhost:8000/bigvotes/default/index'
p1192
asbasbasbag68
(g84
g70
NtRp1193
(dp1194
g73
(dp1195
sg82
g857
sg75
(lp1196
g68
(g89
g70
NtRp1197
(dp1198
g73
(dp1199
g93
g94
ssg82
g1193
sg75
(lp1200
S'http_user_agent'
p1201
asbag68
(g89
g70
NtRp1202
(dp1203
g73
(dp1204
g100
g101
ssg82
g1193
sg75
(lp1205
S':'
asbag68
(g89
g70
NtRp1206
(dp1207
g73
(dp1208
sg82
g1193
sg75
(lp1209
g68
(g69
g70
NtRp1210
(dp1211
g73
(dp1212
g81
I4
ssg82
g1206
sg75
(lp1213
S'Mozilla/5.0 (X11; Linux i686; rv:12.0) Gecko/20100101 Firefox/12.0'
p1214
asbasbasbag68
(g84
g70
NtRp1215
(dp1216
g73
(dp1217
sg82
g857
sg75
(lp1218
g68
(g89
g70
NtRp1219
(dp1220
g73
(dp1221
g93
g94
ssg82
g1215
sg75
(lp1222
S'is_jython'
p1223
asbag68
(g89
g70
NtRp1224
(dp1225
g73
(dp1226
g100
g101
ssg82
g1215
sg75
(lp1227
S':'
asbag68
(g89
g70
NtRp1228
(dp1229
g73
(dp1230
sg82
g1215
sg75
(lp1231
g68
(g69
g70
NtRp1232
(dp1233
g73
(dp1234
g81
I4
ssg82
g1228
sg75
(lp1235
g111
asbasbasbag68
(g84
g70
NtRp1236
(dp1237
g73
(dp1238
sg82
g857
sg75
(lp1239
g68
(g89
g70
NtRp1240
(dp1241
g73
(dp1242
g93
g94
ssg82
g1236
sg75
(lp1243
S'is_pypy'
p1244
asbag68
(g89
g70
NtRp1245
(dp1246
g73
(dp1247
g100
g101
ssg82
g1236
sg75
(lp1248
S':'
asbag68
(g89
g70
NtRp1249
(dp1250
g73
(dp1251
sg82
g1236
sg75
(lp1252
g68
(g69
g70
NtRp1253
(dp1254
g73
(dp1255
g81
I4
ssg82
g1249
sg75
(lp1256
g111
asbasbasbag68
(g84
g70
NtRp1257
(dp1258
g73
(dp1259
sg82
g857
sg75
(lp1260
g68
(g89
g70
NtRp1261
(dp1262
g73
(dp1263
g93
g94
ssg82
g1257
sg75
(lp1264
S'path_info'
p1265
asbag68
(g89
g70
NtRp1266
(dp1267
g73
(dp1268
g100
g101
ssg82
g1257
sg75
(lp1269
S':'
asbag68
(g89
g70
NtRp1270
(dp1271
g73
(dp1272
sg82
g1257
sg75
(lp1273
g68
(g69
g70
NtRp1274
(dp1275
g73
(dp1276
g81
I4
ssg82
g1270
sg75
(lp1277
S'/bigvotes/vote/index/1/1'
p1278
asbasbasbag68
(g84
g70
NtRp1279
(dp1280
g73
(dp1281
sg82
g857
sg75
(lp1282
g68
(g89
g70
NtRp1283
(dp1284
g73
(dp1285
g93
g94
ssg82
g1279
sg75
(lp1286
S'query_string'
p1287
asbag68
(g89
g70
NtRp1288
(dp1289
g73
(dp1290
g100
g101
ssg82
g1279
sg75
(lp1291
S':'
asbag68
(g89
g70
NtRp1292
(dp1293
g73
(dp1294
sg82
g1279
sg75
(lp1295
g68
(g69
g70
NtRp1296
(dp1297
g73
(dp1298
g81
I4
ssg82
g1292
sg75
(lp1299
S''
asbasbasbag68
(g84
g70
NtRp1300
(dp1301
g73
(dp1302
sg82
g857
sg75
(lp1303
g68
(g89
g70
NtRp1304
(dp1305
g73
(dp1306
g93
g94
ssg82
g1300
sg75
(lp1307
S'remote_addr'
p1308
asbag68
(g89
g70
NtRp1309
(dp1310
g73
(dp1311
g100
g101
ssg82
g1300
sg75
(lp1312
S':'
asbag68
(g89
g70
NtRp1313
(dp1314
g73
(dp1315
sg82
g1300
sg75
(lp1316
g68
(g69
g70
NtRp1317
(dp1318
g73
(dp1319
g81
I4
ssg82
g1313
sg75
(lp1320
g225
asbasbasbag68
(g84
g70
NtRp1321
(dp1322
g73
(dp1323
sg82
g857
sg75
(lp1324
g68
(g89
g70
NtRp1325
(dp1326
g73
(dp1327
g93
g94
ssg82
g1321
sg75
(lp1328
S'remote_port'
p1329
asbag68
(g89
g70
NtRp1330
(dp1331
g73
(dp1332
g100
g101
ssg82
g1321
sg75
(lp1333
S':'
asbag68
(g89
g70
NtRp1334
(dp1335
g73
(dp1336
sg82
g1321
sg75
(lp1337
g68
(g69
g70
NtRp1338
(dp1339
g73
(dp1340
g81
I4
ssg82
g1334
sg75
(lp1341
S'59465'
p1342
asbasbasbag68
(g84
g70
NtRp1343
(dp1344
g73
(dp1345
sg82
g857
sg75
(lp1346
g68
(g89
g70
NtRp1347
(dp1348
g73
(dp1349
g93
g94
ssg82
g1343
sg75
(lp1350
S'request_method'
p1351
asbag68
(g89
g70
NtRp1352
(dp1353
g73
(dp1354
g100
g101
ssg82
g1343
sg75
(lp1355
S':'
asbag68
(g89
g70
NtRp1356
(dp1357
g73
(dp1358
sg82
g1343
sg75
(lp1359
g68
(g69
g70
NtRp1360
(dp1361
g73
(dp1362
g81
I4
ssg82
g1356
sg75
(lp1363
S'GET'
p1364
asbasbasbag68
(g84
g70
NtRp1365
(dp1366
g73
(dp1367
sg82
g857
sg75
(lp1368
g68
(g89
g70
NtRp1369
(dp1370
g73
(dp1371
g93
g94
ssg82
g1365
sg75
(lp1372
S'request_uri'
p1373
asbag68
(g89
g70
NtRp1374
(dp1375
g73
(dp1376
g100
g101
ssg82
g1365
sg75
(lp1377
S':'
asbag68
(g89
g70
NtRp1378
(dp1379
g73
(dp1380
sg82
g1365
sg75
(lp1381
g68
(g69
g70
NtRp1382
(dp1383
g73
(dp1384
g81
I4
ssg82
g1378
sg75
(lp1385
g1278
asbasbasbag68
(g84
g70
NtRp1386
(dp1387
g73
(dp1388
sg82
g857
sg75
(lp1389
g68
(g89
g70
NtRp1390
(dp1391
g73
(dp1392
g93
g94
ssg82
g1386
sg75
(lp1393
S'script_name'
p1394
asbag68
(g89
g70
NtRp1395
(dp1396
g73
(dp1397
g100
g101
ssg82
g1386
sg75
(lp1398
S':'
asbag68
(g89
g70
NtRp1399
(dp1400
g73
(dp1401
sg82
g1386
sg75
(lp1402
g68
(g69
g70
NtRp1403
(dp1404
g73
(dp1405
g81
I4
ssg82
g1399
sg75
(lp1406
S''
asbasbasbag68
(g84
g70
NtRp1407
(dp1408
g73
(dp1409
sg82
g857
sg75
(lp1410
g68
(g89
g70
NtRp1411
(dp1412
g73
(dp1413
g93
g94
ssg82
g1407
sg75
(lp1414
S'server_name'
p1415
asbag68
(g89
g70
NtRp1416
(dp1417
g73
(dp1418
g100
g101
ssg82
g1407
sg75
(lp1419
S':'
asbag68
(g89
g70
NtRp1420
(dp1421
g73
(dp1422
sg82
g1407
sg75
(lp1423
g68
(g69
g70
NtRp1424
(dp1425
g73
(dp1426
g81
I4
ssg82
g1420
sg75
(lp1427
S'main'
p1428
asbasbasbag68
(g84
g70
NtRp1429
(dp1430
g73
(dp1431
sg82
g857
sg75
(lp1432
g68
(g89
g70
NtRp1433
(dp1434
g73
(dp1435
g93
g94
ssg82
g1429
sg75
(lp1436
S'server_port'
p1437
asbag68
(g89
g70
NtRp1438
(dp1439
g73
(dp1440
g100
g101
ssg82
g1429
sg75
(lp1441
S':'
asbag68
(g89
g70
NtRp1442
(dp1443
g73
(dp1444
sg82
g1429
sg75
(lp1445
g68
(g69
g70
NtRp1446
(dp1447
g73
(dp1448
g81
I4
ssg82
g1442
sg75
(lp1449
S'8000'
p1450
asbasbasbag68
(g84
g70
NtRp1451
(dp1452
g73
(dp1453
sg82
g857
sg75
(lp1454
g68
(g89
g70
NtRp1455
(dp1456
g73
(dp1457
g93
g94
ssg82
g1451
sg75
(lp1458
S'server_protocol'
p1459
asbag68
(g89
g70
NtRp1460
(dp1461
g73
(dp1462
g100
g101
ssg82
g1451
sg75
(lp1463
S':'
asbag68
(g89
g70
NtRp1464
(dp1465
g73
(dp1466
sg82
g1451
sg75
(lp1467
g68
(g69
g70
NtRp1468
(dp1469
g73
(dp1470
g81
I4
ssg82
g1464
sg75
(lp1471
S'HTTP/1.1'
p1472
asbasbasbag68
(g84
g70
NtRp1473
(dp1474
g73
(dp1475
sg82
g857
sg75
(lp1476
g68
(g89
g70
NtRp1477
(dp1478
g73
(dp1479
g93
g94
ssg82
g1473
sg75
(lp1480
S'server_software'
p1481
asbag68
(g89
g70
NtRp1482
(dp1483
g73
(dp1484
g100
g101
ssg82
g1473
sg75
(lp1485
S':'
asbag68
(g89
g70
NtRp1486
(dp1487
g73
(dp1488
sg82
g1473
sg75
(lp1489
g68
(g69
g70
NtRp1490
(dp1491
g73
(dp1492
g81
I4
ssg82
g1486
sg75
(lp1493
S'Rocket 1.2.4'
p1494
asbasbasbag68
(g84
g70
NtRp1495
(dp1496
g73
(dp1497
sg82
g857
sg75
(lp1498
g68
(g89
g70
NtRp1499
(dp1500
g73
(dp1501
g93
g94
ssg82
g1495
sg75
(lp1502
S'web2py_crontype'
p1503
asbag68
(g89
g70
NtRp1504
(dp1505
g73
(dp1506
g100
g101
ssg82
g1495
sg75
(lp1507
S':'
asbag68
(g89
g70
NtRp1508
(dp1509
g73
(dp1510
sg82
g1495
sg75
(lp1511
g68
(g69
g70
NtRp1512
(dp1513
g73
(dp1514
g81
I4
ssg82
g1508
sg75
(lp1515
S'hard'
p1516
asbasbasbag68
(g84
g70
NtRp1517
(dp1518
g73
(dp1519
sg82
g857
sg75
(lp1520
g68
(g89
g70
NtRp1521
(dp1522
g73
(dp1523
g93
g94
ssg82
g1517
sg75
(lp1524
S'web2py_original_uri'
p1525
asbag68
(g89
g70
NtRp1526
(dp1527
g73
(dp1528
g100
g101
ssg82
g1517
sg75
(lp1529
S':'
asbag68
(g89
g70
NtRp1530
(dp1531
g73
(dp1532
sg82
g1517
sg75
(lp1533
g68
(g69
g70
NtRp1534
(dp1535
g73
(dp1536
g81
I4
ssg82
g1530
sg75
(lp1537
g1278
asbasbasbag68
(g84
g70
NtRp1538
(dp1539
g73
(dp1540
sg82
g857
sg75
(lp1541
g68
(g89
g70
NtRp1542
(dp1543
g73
(dp1544
g93
g94
ssg82
g1538
sg75
(lp1545
S'web2py_path'
p1546
asbag68
(g89
g70
NtRp1547
(dp1548
g73
(dp1549
g100
g101
ssg82
g1538
sg75
(lp1550
S':'
asbag68
(g89
g70
NtRp1551
(dp1552
g73
(dp1553
sg82
g1538
sg75
(lp1554
g68
(g69
g70
NtRp1555
(dp1556
g73
(dp1557
g81
I4
ssg82
g1551
sg75
(lp1558
g904
asbasbasbag68
(g84
g70
NtRp1559
(dp1560
g73
(dp1561
sg82
g857
sg75
(lp1562
g68
(g89
g70
NtRp1563
(dp1564
g73
(dp1565
g93
g94
ssg82
g1559
sg75
(lp1566
S'web2py_version'
p1567
asbag68
(g89
g70
NtRp1568
(dp1569
g73
(dp1570
g100
g101
ssg82
g1559
sg75
(lp1571
S':'
asbag68
(g89
g70
NtRp1572
(dp1573
g73
(dp1574
sg82
g1559
sg75
(lp1575
g68
(g69
g70
NtRp1576
(dp1577
g73
(dp1578
g81
I4
ssg82
g1572
sg75
(lp1579
g68
(g77
g70
NtRp1580
(dp1581
g73
(dp1582
g81
I3
ssg82
Nsg75
(lp1583
g68
(g84
g70
NtRp1584
(dp1585
g73
(dp1586
sg82
g1580
sg75
(lp1587
g68
(g89
g70
NtRp1588
(dp1589
g73
(dp1590
sg82
g1584
sg75
(lp1591
g68
(g69
g70
NtRp1592
(dp1593
g73
(dp1594
g81
I3
ssg82
g1588
sg75
(lp1595
S'1'
asbasbasbag68
(g84
g70
NtRp1596
(dp1597
g73
(dp1598
sg82
g1580
sg75
(lp1599
g68
(g89
g70
NtRp1600
(dp1601
g73
(dp1602
sg82
g1596
sg75
(lp1603
g68
(g69
g70
NtRp1604
(dp1605
g73
(dp1606
g81
I3
ssg82
g1600
sg75
(lp1607
S'99'
p1608
asbasbasbag68
(g84
g70
NtRp1609
(dp1610
g73
(dp1611
sg82
g1580
sg75
(lp1612
g68
(g89
g70
NtRp1613
(dp1614
g73
(dp1615
sg82
g1609
sg75
(lp1616
g68
(g69
g70
NtRp1617
(dp1618
g73
(dp1619
g81
I3
ssg82
g1613
sg75
(lp1620
S'7'
asbasbasbag68
(g84
g70
NtRp1621
(dp1622
g73
(dp1623
sg82
g1580
sg75
(lp1624
g68
(g89
g70
NtRp1625
(dp1626
g73
(dp1627
sg82
g1621
sg75
(lp1628
g68
(g69
g70
NtRp1629
(dp1630
g73
(dp1631
g81
I3
ssg82
g1625
sg75
(lp1632
S'datetime.datetime(2012, 3, 4, 22, 12, 8)'
p1633
asbasbasbag68
(g84
g70
NtRp1634
(dp1635
g73
(dp1636
sg82
g1580
sg75
(lp1637
g68
(g89
g70
NtRp1638
(dp1639
g73
(dp1640
sg82
g1634
sg75
(lp1641
g68
(g69
g70
NtRp1642
(dp1643
g73
(dp1644
g81
I3
ssg82
g1638
sg75
(lp1645
S'stable'
p1646
asbasbasbasbasbasbasbag68
(g84
g70
NtRp1647
(dp1648
g73
(dp1649
sg82
g857
sg75
(lp1650
g68
(g89
g70
NtRp1651
(dp1652
g73
(dp1653
g93
g94
ssg82
g1647
sg75
(lp1654
S'wsgi_errors'
p1655
asbag68
(g89
g70
NtRp1656
(dp1657
g73
(dp1658
g100
g101
ssg82
g1647
sg75
(lp1659
S':'
asbag68
(g89
g70
NtRp1660
(dp1661
g73
(dp1662
sg82
g1647
sg75
(lp1663
g68
(g69
g70
NtRp1664
(dp1665
g73
(dp1666
g81
I4
ssg82
g1660
sg75
(lp1667
S"<open file '<stderr>', mode 'w' at 0xb77e20d0>"
p1668
asbasbasbag68
(g84
g70
NtRp1669
(dp1670
g73
(dp1671
sg82
g857
sg75
(lp1672
g68
(g89
g70
NtRp1673
(dp1674
g73
(dp1675
g93
g94
ssg82
g1669
sg75
(lp1676
S'wsgi_file_wrapper'
p1677
asbag68
(g89
g70
NtRp1678
(dp1679
g73
(dp1680
g100
g101
ssg82
g1669
sg75
(lp1681
S':'
asbag68
(g89
g70
NtRp1682
(dp1683
g73
(dp1684
sg82
g1669
sg75
(lp1685
g68
(g69
g70
NtRp1686
(dp1687
g73
(dp1688
g81
I4
ssg82
g1682
sg75
(lp1689
S'<class wsgiref.util.FileWrapper at 0xa054efc>'
p1690
asbasbasbag68
(g84
g70
NtRp1691
(dp1692
g73
(dp1693
sg82
g857
sg75
(lp1694
g68
(g89
g70
NtRp1695
(dp1696
g73
(dp1697
g93
g94
ssg82
g1691
sg75
(lp1698
S'wsgi_input'
p1699
asbag68
(g89
g70
NtRp1700
(dp1701
g73
(dp1702
g100
g101
ssg82
g1691
sg75
(lp1703
S':'
asbag68
(g89
g70
NtRp1704
(dp1705
g73
(dp1706
sg82
g1691
sg75
(lp1707
g68
(g69
g70
NtRp1708
(dp1709
g73
(dp1710
g81
I4
ssg82
g1704
sg75
(lp1711
S'<socket._fileobject object at 0xb05af8ec>'
p1712
asbasbasbag68
(g84
g70
NtRp1713
(dp1714
g73
(dp1715
sg82
g857
sg75
(lp1716
g68
(g89
g70
NtRp1717
(dp1718
g73
(dp1719
g93
g94
ssg82
g1713
sg75
(lp1720
S'wsgi_multiprocess'
p1721
asbag68
(g89
g70
NtRp1722
(dp1723
g73
(dp1724
g100
g101
ssg82
g1713
sg75
(lp1725
S':'
asbag68
(g89
g70
NtRp1726
(dp1727
g73
(dp1728
sg82
g1713
sg75
(lp1729
g68
(g69
g70
NtRp1730
(dp1731
g73
(dp1732
g81
I4
ssg82
g1726
sg75
(lp1733
g111
asbasbasbag68
(g84
g70
NtRp1734
(dp1735
g73
(dp1736
sg82
g857
sg75
(lp1737
g68
(g89
g70
NtRp1738
(dp1739
g73
(dp1740
g93
g94
ssg82
g1734
sg75
(lp1741
S'wsgi_multithread'
p1742
asbag68
(g89
g70
NtRp1743
(dp1744
g73
(dp1745
g100
g101
ssg82
g1734
sg75
(lp1746
S':'
asbag68
(g89
g70
NtRp1747
(dp1748
g73
(dp1749
sg82
g1734
sg75
(lp1750
g68
(g69
g70
NtRp1751
(dp1752
g73
(dp1753
g81
I4
ssg82
g1747
sg75
(lp1754
S'True'
p1755
asbasbasbag68
(g84
g70
NtRp1756
(dp1757
g73
(dp1758
sg82
g857
sg75
(lp1759
g68
(g89
g70
NtRp1760
(dp1761
g73
(dp1762
g93
g94
ssg82
g1756
sg75
(lp1763
S'wsgi_run_once'
p1764
asbag68
(g89
g70
NtRp1765
(dp1766
g73
(dp1767
g100
g101
ssg82
g1756
sg75
(lp1768
S':'
asbag68
(g89
g70
NtRp1769
(dp1770
g73
(dp1771
sg82
g1756
sg75
(lp1772
g68
(g69
g70
NtRp1773
(dp1774
g73
(dp1775
g81
I4
ssg82
g1769
sg75
(lp1776
g111
asbasbasbag68
(g84
g70
NtRp1777
(dp1778
g73
(dp1779
sg82
g857
sg75
(lp1780
g68
(g89
g70
NtRp1781
(dp1782
g73
(dp1783
g93
g94
ssg82
g1777
sg75
(lp1784
S'wsgi_url_scheme'
p1785
asbag68
(g89
g70
NtRp1786
(dp1787
g73
(dp1788
g100
g101
ssg82
g1777
sg75
(lp1789
S':'
asbag68
(g89
g70
NtRp1790
(dp1791
g73
(dp1792
sg82
g1777
sg75
(lp1793
g68
(g69
g70
NtRp1794
(dp1795
g73
(dp1796
g81
I4
ssg82
g1790
sg75
(lp1797
S'http'
p1798
asbasbasbag68
(g84
g70
NtRp1799
(dp1800
g73
(dp1801
sg82
g857
sg75
(lp1802
g68
(g89
g70
NtRp1803
(dp1804
g73
(dp1805
g93
g94
ssg82
g1799
sg75
(lp1806
S'wsgi_version'
p1807
asbag68
(g89
g70
NtRp1808
(dp1809
g73
(dp1810
g100
g101
ssg82
g1799
sg75
(lp1811
S':'
asbag68
(g89
g70
NtRp1812
(dp1813
g73
(dp1814
sg82
g1799
sg75
(lp1815
g68
(g69
g70
NtRp1816
(dp1817
g73
(dp1818
g81
I4
ssg82
g1812
sg75
(lp1819
g68
(g77
g70
NtRp1820
(dp1821
g73
(dp1822
g81
I3
ssg82
Nsg75
(lp1823
g68
(g84
g70
NtRp1824
(dp1825
g73
(dp1826
sg82
g1820
sg75
(lp1827
g68
(g89
g70
NtRp1828
(dp1829
g73
(dp1830
sg82
g1824
sg75
(lp1831
g68
(g69
g70
NtRp1832
(dp1833
g73
(dp1834
g81
I3
ssg82
g1828
sg75
(lp1835
S'1'
asbasbasbag68
(g84
g70
NtRp1836
(dp1837
g73
(dp1838
sg82
g1820
sg75
(lp1839
g68
(g89
g70
NtRp1840
(dp1841
g73
(dp1842
sg82
g1836
sg75
(lp1843
g68
(g69
g70
NtRp1844
(dp1845
g73
(dp1846
g81
I3
ssg82
g1840
sg75
(lp1847
S'0'
asbasbasbasbasbasbasbasbasbasbasbag68
(g84
g70
NtRp1848
(dp1849
g73
(dp1850
sg82
g78
sg75
(lp1851
g68
(g89
g70
NtRp1852
(dp1853
g73
(dp1854
g93
g94
ssg82
g1848
sg75
(lp1855
S'extension'
p1856
asbag68
(g89
g70
NtRp1857
(dp1858
g73
(dp1859
g100
g101
ssg82
g1848
sg75
(lp1860
S':'
asbag68
(g89
g70
NtRp1861
(dp1862
g73
(dp1863
sg82
g1848
sg75
(lp1864
g68
(g69
g70
NtRp1865
(dp1866
g73
(dp1867
g81
I5
ssg82
g1861
sg75
(lp1868
S'html'
p1869
asbasbasbag68
(g84
g70
NtRp1870
(dp1871
g73
(dp1872
sg82
g78
sg75
(lp1873
g68
(g89
g70
NtRp1874
(dp1875
g73
(dp1876
g93
g94
ssg82
g1870
sg75
(lp1877
S'folder'
p1878
asbag68
(g89
g70
NtRp1879
(dp1880
g73
(dp1881
g100
g101
ssg82
g1870
sg75
(lp1882
S':'
asbag68
(g89
g70
NtRp1883
(dp1884
g73
(dp1885
sg82
g1870
sg75
(lp1886
g68
(g69
g70
NtRp1887
(dp1888
g73
(dp1889
g81
I5
ssg82
g1883
sg75
(lp1890
S'/home/kaique/Projects/web/big-votes/web2py/applications/bigvotes/'
p1891
asbasbasbag68
(g84
g70
NtRp1892
(dp1893
g73
(dp1894
sg82
g78
sg75
(lp1895
g68
(g89
g70
NtRp1896
(dp1897
g73
(dp1898
g93
g94
ssg82
g1892
sg75
(lp1899
S'function'
p1900
asbag68
(g89
g70
NtRp1901
(dp1902
g73
(dp1903
g100
g101
ssg82
g1892
sg75
(lp1904
S':'
asbag68
(g89
g70
NtRp1905
(dp1906
g73
(dp1907
sg82
g1892
sg75
(lp1908
g68
(g69
g70
NtRp1909
(dp1910
g73
(dp1911
g81
I5
ssg82
g1905
sg75
(lp1912
S'index'
p1913
asbasbasbag68
(g84
g70
NtRp1914
(dp1915
g73
(dp1916
sg82
g78
sg75
(lp1917
g68
(g89
g70
NtRp1918
(dp1919
g73
(dp1920
g93
g94
ssg82
g1914
sg75
(lp1921
S'get_vars'
p1922
asbag68
(g89
g70
NtRp1923
(dp1924
g73
(dp1925
g100
g101
ssg82
g1914
sg75
(lp1926
S':'
asbag68
(g89
g70
NtRp1927
(dp1928
g73
(dp1929
sg82
g1914
sg75
(lp1930
g68
(g69
g70
NtRp1931
(dp1932
g73
(dp1933
g81
I5
ssg82
g1927
sg75
(lp1934
g68
(g77
g70
NtRp1935
(dp1936
g73
(dp1937
g81
I4
ssg82
Nsg75
(lp1938
sbasbasbasbag68
(g84
g70
NtRp1939
(dp1940
g73
(dp1941
sg82
g78
sg75
(lp1942
g68
(g89
g70
NtRp1943
(dp1944
g73
(dp1945
g93
g94
ssg82
g1939
sg75
(lp1946
S'global_settings'
p1947
asbag68
(g89
g70
NtRp1948
(dp1949
g73
(dp1950
g100
g101
ssg82
g1939
sg75
(lp1951
S':'
asbag68
(g89
g70
NtRp1952
(dp1953
g73
(dp1954
sg82
g1939
sg75
(lp1955
g68
(g69
g70
NtRp1956
(dp1957
g73
(dp1958
g81
I5
ssg82
g1952
sg75
(lp1959
g68
(g77
g70
NtRp1960
(dp1961
g73
(dp1962
g81
I4
ssg82
Nsg75
(lp1963
g68
(g84
g70
NtRp1964
(dp1965
g73
(dp1966
sg82
g1960
sg75
(lp1967
g68
(g89
g70
NtRp1968
(dp1969
g73
(dp1970
g93
g94
ssg82
g1964
sg75
(lp1971
g869
asbag68
(g89
g70
NtRp1972
(dp1973
g73
(dp1974
g100
g101
ssg82
g1964
sg75
(lp1975
S':'
asbag68
(g89
g70
NtRp1976
(dp1977
g73
(dp1978
sg82
g1964
sg75
(lp1979
g68
(g69
g70
NtRp1980
(dp1981
g73
(dp1982
g81
I4
ssg82
g1976
sg75
(lp1983
S"set(['/home/kaique/Projects/web/big-votes/web2py/applications/bigvotes/', '/home/kaique/Projects/web/big-votes/web2py/applications/admin/'])"
p1984
asbasbasbag68
(g84
g70
NtRp1985
(dp1986
g73
(dp1987
sg82
g1960
sg75
(lp1988
g68
(g89
g70
NtRp1989
(dp1990
g73
(dp1991
g93
g94
ssg82
g1985
sg75
(lp1992
g891
asbag68
(g89
g70
NtRp1993
(dp1994
g73
(dp1995
g100
g101
ssg82
g1985
sg75
(lp1996
S':'
asbag68
(g89
g70
NtRp1997
(dp1998
g73
(dp1999
sg82
g1985
sg75
(lp2000
g68
(g69
g70
NtRp2001
(dp2002
g73
(dp2003
g81
I4
ssg82
g1997
sg75
(lp2004
g904
asbasbasbag68
(g84
g70
NtRp2005
(dp2006
g73
(dp2007
sg82
g1960
sg75
(lp2008
g68
(g89
g70
NtRp2009
(dp2010
g73
(dp2011
g93
g94
ssg82
g2005
sg75
(lp2012
g913
asbag68
(g89
g70
NtRp2013
(dp2014
g73
(dp2015
g100
g101
ssg82
g2005
sg75
(lp2016
S':'
asbag68
(g89
g70
NtRp2017
(dp2018
g73
(dp2019
sg82
g2005
sg75
(lp2020
g68
(g69
g70
NtRp2021
(dp2022
g73
(dp2023
g81
I4
ssg82
g2017
sg75
(lp2024
g68
(g77
g70
NtRp2025
(dp2026
g73
(dp2027
g81
I3
ssg82
Nsg75
(lp2028
sbasbasbasbag68
(g84
g70
NtRp2029
(dp2030
g73
(dp2031
sg82
g1960
sg75
(lp2032
g68
(g89
g70
NtRp2033
(dp2034
g73
(dp2035
g93
g94
ssg82
g2029
sg75
(lp2036
g938
asbag68
(g89
g70
NtRp2037
(dp2038
g73
(dp2039
g100
g101
ssg82
g2029
sg75
(lp2040
S':'
asbag68
(g89
g70
NtRp2041
(dp2042
g73
(dp2043
sg82
g2029
sg75
(lp2044
g68
(g69
g70
NtRp2045
(dp2046
g73
(dp2047
g81
I4
ssg82
g2041
sg75
(lp2048
S"<Values at 0xa236eec: {'verbose': False, 'ip': '127.0.0.1', 'shutdown_timeout': 5, 'taskbar': False, 'nocron': False, 'pid_filename': 'httpserver.pid', 'maxthreads': None, 'softcron': False, 'server_name': 'main', 'bpython': False, 'nogui': False, 'port': 8000, 'extcron': False, 'debuglevel': 30, 'test': None, 'folder': '/home/kaique/Projects/web/big-votes/web2py', 'config': '', 'import_models': False, 'winservice': '', 'shell': None, 'run': '', 'log_filename': 'httpserver.log', 'args': [''], 'socket_timeout': 5, 'ssl_ca_certificate': None, 'scheduler': None, 'profiler_filename': None, 'ssl_private_key': '', 'password': 'dev', 'request_queue_size': 5, 'ssl_certificate': '', 'cronjob': False, 'numthreads': None, 'quiet': False, 'interfaces': None, 'minthreads': None, 'timeout': 10, 'plain': False, 'nobanner': False}>"
p2049
asbasbasbag68
(g84
g70
NtRp2050
(dp2051
g73
(dp2052
sg82
g1960
sg75
(lp2053
g68
(g89
g70
NtRp2054
(dp2055
g73
(dp2056
g93
g94
ssg82
g2050
sg75
(lp2057
g960
asbag68
(g89
g70
NtRp2058
(dp2059
g73
(dp2060
g100
g101
ssg82
g2050
sg75
(lp2061
S':'
asbag68
(g89
g70
NtRp2062
(dp2063
g73
(dp2064
sg82
g2050
sg75
(lp2065
g68
(g69
g70
NtRp2066
(dp2067
g73
(dp2068
g81
I4
ssg82
g2062
sg75
(lp2069
S'set([])'
p2070
asbasbasbag68
(g84
g70
NtRp2071
(dp2072
g73
(dp2073
sg82
g1960
sg75
(lp2074
g68
(g89
g70
NtRp2075
(dp2076
g73
(dp2077
g93
g94
ssg82
g2071
sg75
(lp2078
g982
asbag68
(g89
g70
NtRp2079
(dp2080
g73
(dp2081
g100
g101
ssg82
g2071
sg75
(lp2082
S':'
asbag68
(g89
g70
NtRp2083
(dp2084
g73
(dp2085
sg82
g2071
sg75
(lp2086
g68
(g69
g70
NtRp2087
(dp2088
g73
(dp2089
g81
I4
ssg82
g2083
sg75
(lp2090
g111
asbasbasbag68
(g84
g70
NtRp2091
(dp2092
g73
(dp2093
sg82
g1960
sg75
(lp2094
g68
(g89
g70
NtRp2095
(dp2096
g73
(dp2097
g93
g94
ssg82
g2091
sg75
(lp2098
g1003
asbag68
(g89
g70
NtRp2099
(dp2100
g73
(dp2101
g100
g101
ssg82
g2091
sg75
(lp2102
S':'
asbag68
(g89
g70
NtRp2103
(dp2104
g73
(dp2105
sg82
g2091
sg75
(lp2106
g68
(g69
g70
NtRp2107
(dp2108
g73
(dp2109
g81
I4
ssg82
g2103
sg75
(lp2110
g1016
asbasbasbag68
(g84
g70
NtRp2111
(dp2112
g73
(dp2113
sg82
g1960
sg75
(lp2114
g68
(g89
g70
NtRp2115
(dp2116
g73
(dp2117
g93
g94
ssg82
g2111
sg75
(lp2118
g1223
asbag68
(g89
g70
NtRp2119
(dp2120
g73
(dp2121
g100
g101
ssg82
g2111
sg75
(lp2122
S':'
asbag68
(g89
g70
NtRp2123
(dp2124
g73
(dp2125
sg82
g2111
sg75
(lp2126
g68
(g69
g70
NtRp2127
(dp2128
g73
(dp2129
g81
I4
ssg82
g2123
sg75
(lp2130
g111
asbasbasbag68
(g84
g70
NtRp2131
(dp2132
g73
(dp2133
sg82
g1960
sg75
(lp2134
g68
(g89
g70
NtRp2135
(dp2136
g73
(dp2137
g93
g94
ssg82
g2131
sg75
(lp2138
g1244
asbag68
(g89
g70
NtRp2139
(dp2140
g73
(dp2141
g100
g101
ssg82
g2131
sg75
(lp2142
S':'
asbag68
(g89
g70
NtRp2143
(dp2144
g73
(dp2145
sg82
g2131
sg75
(lp2146
g68
(g69
g70
NtRp2147
(dp2148
g73
(dp2149
g81
I4
ssg82
g2143
sg75
(lp2150
g111
asbasbasbag68
(g84
g70
NtRp2151
(dp2152
g73
(dp2153
sg82
g1960
sg75
(lp2154
g68
(g89
g70
NtRp2155
(dp2156
g73
(dp2157
g93
g94
ssg82
g2151
sg75
(lp2158
g1503
asbag68
(g89
g70
NtRp2159
(dp2160
g73
(dp2161
g100
g101
ssg82
g2151
sg75
(lp2162
S':'
asbag68
(g89
g70
NtRp2163
(dp2164
g73
(dp2165
sg82
g2151
sg75
(lp2166
g68
(g69
g70
NtRp2167
(dp2168
g73
(dp2169
g81
I4
ssg82
g2163
sg75
(lp2170
g1516
asbasbasbag68
(g84
g70
NtRp2171
(dp2172
g73
(dp2173
sg82
g1960
sg75
(lp2174
g68
(g89
g70
NtRp2175
(dp2176
g73
(dp2177
g93
g94
ssg82
g2171
sg75
(lp2178
g1567
asbag68
(g89
g70
NtRp2179
(dp2180
g73
(dp2181
g100
g101
ssg82
g2171
sg75
(lp2182
S':'
asbag68
(g89
g70
NtRp2183
(dp2184
g73
(dp2185
sg82
g2171
sg75
(lp2186
g68
(g69
g70
NtRp2187
(dp2188
g73
(dp2189
g81
I4
ssg82
g2183
sg75
(lp2190
g68
(g77
g70
NtRp2191
(dp2192
g73
(dp2193
g81
I3
ssg82
Nsg75
(lp2194
g68
(g84
g70
NtRp2195
(dp2196
g73
(dp2197
sg82
g2191
sg75
(lp2198
g68
(g89
g70
NtRp2199
(dp2200
g73
(dp2201
sg82
g2195
sg75
(lp2202
g68
(g69
g70
NtRp2203
(dp2204
g73
(dp2205
g81
I3
ssg82
g2199
sg75
(lp2206
S'1'
asbasbasbag68
(g84
g70
NtRp2207
(dp2208
g73
(dp2209
sg82
g2191
sg75
(lp2210
g68
(g89
g70
NtRp2211
(dp2212
g73
(dp2213
sg82
g2207
sg75
(lp2214
g68
(g69
g70
NtRp2215
(dp2216
g73
(dp2217
g81
I3
ssg82
g2211
sg75
(lp2218
S'99'
p2219
asbasbasbag68
(g84
g70
NtRp2220
(dp2221
g73
(dp2222
sg82
g2191
sg75
(lp2223
g68
(g89
g70
NtRp2224
(dp2225
g73
(dp2226
sg82
g2220
sg75
(lp2227
g68
(g69
g70
NtRp2228
(dp2229
g73
(dp2230
g81
I3
ssg82
g2224
sg75
(lp2231
S'7'
asbasbasbag68
(g84
g70
NtRp2232
(dp2233
g73
(dp2234
sg82
g2191
sg75
(lp2235
g68
(g89
g70
NtRp2236
(dp2237
g73
(dp2238
sg82
g2232
sg75
(lp2239
g68
(g69
g70
NtRp2240
(dp2241
g73
(dp2242
g81
I3
ssg82
g2236
sg75
(lp2243
S'datetime.datetime(2012, 3, 4, 22, 12, 8)'
p2244
asbasbasbag68
(g84
g70
NtRp2245
(dp2246
g73
(dp2247
sg82
g2191
sg75
(lp2248
g68
(g89
g70
NtRp2249
(dp2250
g73
(dp2251
sg82
g2245
sg75
(lp2252
g68
(g69
g70
NtRp2253
(dp2254
g73
(dp2255
g81
I3
ssg82
g2249
sg75
(lp2256
g1646
asbasbasbasbasbasbasbasbasbasbasbag68
(g84
g70
NtRp2257
(dp2258
g73
(dp2259
sg82
g78
sg75
(lp2260
g68
(g89
g70
NtRp2261
(dp2262
g73
(dp2263
g93
g94
ssg82
g2257
sg75
(lp2264
S'is_https'
p2265
asbag68
(g89
g70
NtRp2266
(dp2267
g73
(dp2268
g100
g101
ssg82
g2257
sg75
(lp2269
S':'
asbag68
(g89
g70
NtRp2270
(dp2271
g73
(dp2272
sg82
g2257
sg75
(lp2273
g68
(g69
g70
NtRp2274
(dp2275
g73
(dp2276
g81
I5
ssg82
g2270
sg75
(lp2277
g111
asbasbasbag68
(g84
g70
NtRp2278
(dp2279
g73
(dp2280
sg82
g78
sg75
(lp2281
g68
(g89
g70
NtRp2282
(dp2283
g73
(dp2284
g93
g94
ssg82
g2278
sg75
(lp2285
S'is_local'
p2286
asbag68
(g89
g70
NtRp2287
(dp2288
g73
(dp2289
g100
g101
ssg82
g2278
sg75
(lp2290
S':'
asbag68
(g89
g70
NtRp2291
(dp2292
g73
(dp2293
sg82
g2278
sg75
(lp2294
g68
(g69
g70
NtRp2295
(dp2296
g73
(dp2297
g81
I5
ssg82
g2291
sg75
(lp2298
g1755
asbasbasbag68
(g84
g70
NtRp2299
(dp2300
g73
(dp2301
sg82
g78
sg75
(lp2302
g68
(g89
g70
NtRp2303
(dp2304
g73
(dp2305
g93
g94
ssg82
g2299
sg75
(lp2306
S'is_restful'
p2307
asbag68
(g89
g70
NtRp2308
(dp2309
g73
(dp2310
g100
g101
ssg82
g2299
sg75
(lp2311
S':'
asbag68
(g89
g70
NtRp2312
(dp2313
g73
(dp2314
sg82
g2299
sg75
(lp2315
g68
(g69
g70
NtRp2316
(dp2317
g73
(dp2318
g81
I5
ssg82
g2312
sg75
(lp2319
g111
asbasbasbag68
(g84
g70
NtRp2320
(dp2321
g73
(dp2322
sg82
g78
sg75
(lp2323
g68
(g89
g70
NtRp2324
(dp2325
g73
(dp2326
g93
g94
ssg82
g2320
sg75
(lp2327
S'now'
p2328
asbag68
(g89
g70
NtRp2329
(dp2330
g73
(dp2331
g100
g101
ssg82
g2320
sg75
(lp2332
S':'
asbag68
(g89
g70
NtRp2333
(dp2334
g73
(dp2335
sg82
g2320
sg75
(lp2336
g68
(g69
g70
NtRp2337
(dp2338
g73
(dp2339
g81
I5
ssg82
g2333
sg75
(lp2340
S'datetime.datetime(2012, 5, 21, 22, 41, 15, 693963)'
p2341
asbasbasbag68
(g84
g70
NtRp2342
(dp2343
g73
(dp2344
sg82
g78
sg75
(lp2345
g68
(g89
g70
NtRp2346
(dp2347
g73
(dp2348
g93
g94
ssg82
g2342
sg75
(lp2349
S'post_vars'
p2350
asbag68
(g89
g70
NtRp2351
(dp2352
g73
(dp2353
g100
g101
ssg82
g2342
sg75
(lp2354
S':'
asbag68
(g89
g70
NtRp2355
(dp2356
g73
(dp2357
sg82
g2342
sg75
(lp2358
g68
(g69
g70
NtRp2359
(dp2360
g73
(dp2361
g81
I5
ssg82
g2355
sg75
(lp2362
g68
(g77
g70
NtRp2363
(dp2364
g73
(dp2365
g81
I4
ssg82
Nsg75
(lp2366
sbasbasbasbag68
(g84
g70
NtRp2367
(dp2368
g73
(dp2369
sg82
g78
sg75
(lp2370
g68
(g89
g70
NtRp2371
(dp2372
g73
(dp2373
g93
g94
ssg82
g2367
sg75
(lp2374
S'raw_args'
p2375
asbag68
(g89
g70
NtRp2376
(dp2377
g73
(dp2378
g100
g101
ssg82
g2367
sg75
(lp2379
S':'
asbag68
(g89
g70
NtRp2380
(dp2381
g73
(dp2382
sg82
g2367
sg75
(lp2383
g68
(g69
g70
NtRp2384
(dp2385
g73
(dp2386
g81
I5
ssg82
g2380
sg75
(lp2387
S'1/1'
p2388
asbasbasbag68
(g84
g70
NtRp2389
(dp2390
g73
(dp2391
sg82
g78
sg75
(lp2392
g68
(g89
g70
NtRp2393
(dp2394
g73
(dp2395
g93
g94
ssg82
g2389
sg75
(lp2396
S'url'
p2397
asbag68
(g89
g70
NtRp2398
(dp2399
g73
(dp2400
g100
g101
ssg82
g2389
sg75
(lp2401
S':'
asbag68
(g89
g70
NtRp2402
(dp2403
g73
(dp2404
sg82
g2389
sg75
(lp2405
g68
(g69
g70
NtRp2406
(dp2407
g73
(dp2408
g81
I5
ssg82
g2402
sg75
(lp2409
S'/bigvotes/vote/index/1/1'
p2410
asbasbasbag68
(g84
g70
NtRp2411
(dp2412
g73
(dp2413
sg82
g78
sg75
(lp2414
g68
(g89
g70
NtRp2415
(dp2416
g73
(dp2417
g93
g94
ssg82
g2411
sg75
(lp2418
S'utcnow'
p2419
asbag68
(g89
g70
NtRp2420
(dp2421
g73
(dp2422
g100
g101
ssg82
g2411
sg75
(lp2423
S':'
asbag68
(g89
g70
NtRp2424
(dp2425
g73
(dp2426
sg82
g2411
sg75
(lp2427
g68
(g69
g70
NtRp2428
(dp2429
g73
(dp2430
g81
I5
ssg82
g2424
sg75
(lp2431
S'datetime.datetime(2012, 5, 22, 1, 41, 15, 693987)'
p2432
asbasbasbag68
(g84
g70
NtRp2433
(dp2434
g73
(dp2435
sg82
g78
sg75
(lp2436
g68
(g89
g70
NtRp2437
(dp2438
g73
(dp2439
g93
g94
ssg82
g2433
sg75
(lp2440
S'uuid'
p2441
asbag68
(g89
g70
NtRp2442
(dp2443
g73
(dp2444
g100
g101
ssg82
g2433
sg75
(lp2445
S':'
asbag68
(g89
g70
NtRp2446
(dp2447
g73
(dp2448
sg82
g2433
sg75
(lp2449
g68
(g69
g70
NtRp2450
(dp2451
g73
(dp2452
g81
I5
ssg82
g2446
sg75
(lp2453
S'bigvotes/127.0.0.1.2012-05-21.22-41-15.58a6d69d-1c7b-46ce-904d-36ec6e7a7ea2'
p2454
asbasbasbag68
(g84
g70
NtRp2455
(dp2456
g73
(dp2457
sg82
g78
sg75
(lp2458
g68
(g89
g70
NtRp2459
(dp2460
g73
(dp2461
g93
g94
ssg82
g2455
sg75
(lp2462
S'vars'
p2463
asbag68
(g89
g70
NtRp2464
(dp2465
g73
(dp2466
g100
g101
ssg82
g2455
sg75
(lp2467
S':'
asbag68
(g89
g70
NtRp2468
(dp2469
g73
(dp2470
sg82
g2455
sg75
(lp2471
g68
(g69
g70
NtRp2472
(dp2473
g73
(dp2474
g81
I5
ssg82
g2468
sg75
(lp2475
g68
(g77
g70
NtRp2476
(dp2477
g73
(dp2478
g81
I4
ssg82
Nsg75
(lp2479
sbasbasbasbag68
(g84
g70
NtRp2480
(dp2481
g73
(dp2482
sg82
g78
sg75
(lp2483
g68
(g89
g70
NtRp2484
(dp2485
g73
(dp2486
g93
g94
ssg82
g2480
sg75
(lp2487
S'wsgi'
p2488
asbag68
(g89
g70
NtRp2489
(dp2490
g73
(dp2491
g100
g101
ssg82
g2480
sg75
(lp2492
S':'
asbag68
(g89
g70
NtRp2493
(dp2494
g73
(dp2495
sg82
g2480
sg75
(lp2496
g68
(g69
g70
NtRp2497
(dp2498
g73
(dp2499
g81
I5
ssg82
g2493
sg75
(lp2500
g68
(g77
g70
NtRp2501
(dp2502
g73
(dp2503
g81
I4
ssg82
Nsg75
(lp2504
g68
(g84
g70
NtRp2505
(dp2506
g73
(dp2507
sg82
g2501
sg75
(lp2508
g68
(g89
g70
NtRp2509
(dp2510
g73
(dp2511
g93
g94
ssg82
g2505
sg75
(lp2512
S'environ'
p2513
asbag68
(g89
g70
NtRp2514
(dp2515
g73
(dp2516
g100
g101
ssg82
g2505
sg75
(lp2517
S':'
asbag68
(g89
g70
NtRp2518
(dp2519
g73
(dp2520
sg82
g2505
sg75
(lp2521
g68
(g69
g70
NtRp2522
(dp2523
g73
(dp2524
g81
I4
ssg82
g2518
sg75
(lp2525
g68
(g77
g70
NtRp2526
(dp2527
g73
(dp2528
g81
I3
ssg82
Nsg75
(lp2529
g68
(g84
g70
NtRp2530
(dp2531
g73
(dp2532
sg82
g2526
sg75
(lp2533
g68
(g89
g70
NtRp2534
(dp2535
g73
(dp2536
g93
g94
ssg82
g2530
sg75
(lp2537
S'HTTP_ACCEPT'
p2538
asbag68
(g89
g70
NtRp2539
(dp2540
g73
(dp2541
g100
g101
ssg82
g2530
sg75
(lp2542
S':'
asbag68
(g89
g70
NtRp2543
(dp2544
g73
(dp2545
sg82
g2530
sg75
(lp2546
g68
(g69
g70
NtRp2547
(dp2548
g73
(dp2549
g81
I3
ssg82
g2543
sg75
(lp2550
g1038
asbasbasbag68
(g84
g70
NtRp2551
(dp2552
g73
(dp2553
sg82
g2526
sg75
(lp2554
g68
(g89
g70
NtRp2555
(dp2556
g73
(dp2557
g93
g94
ssg82
g2551
sg75
(lp2558
S'HTTP_ACCEPT_ENCODING'
p2559
asbag68
(g89
g70
NtRp2560
(dp2561
g73
(dp2562
g100
g101
ssg82
g2551
sg75
(lp2563
S':'
asbag68
(g89
g70
NtRp2564
(dp2565
g73
(dp2566
sg82
g2551
sg75
(lp2567
g68
(g69
g70
NtRp2568
(dp2569
g73
(dp2570
g81
I3
ssg82
g2564
sg75
(lp2571
g1060
asbasbasbag68
(g84
g70
NtRp2572
(dp2573
g73
(dp2574
sg82
g2526
sg75
(lp2575
g68
(g89
g70
NtRp2576
(dp2577
g73
(dp2578
g93
g94
ssg82
g2572
sg75
(lp2579
S'HTTP_ACCEPT_LANGUAGE'
p2580
asbag68
(g89
g70
NtRp2581
(dp2582
g73
(dp2583
g100
g101
ssg82
g2572
sg75
(lp2584
S':'
asbag68
(g89
g70
NtRp2585
(dp2586
g73
(dp2587
sg82
g2572
sg75
(lp2588
g68
(g69
g70
NtRp2589
(dp2590
g73
(dp2591
g81
I3
ssg82
g2585
sg75
(lp2592
g1082
asbasbasbag68
(g84
g70
NtRp2593
(dp2594
g73
(dp2595
sg82
g2526
sg75
(lp2596
g68
(g89
g70
NtRp2597
(dp2598
g73
(dp2599
g93
g94
ssg82
g2593
sg75
(lp2600
S'HTTP_CACHE_CONTROL'
p2601
asbag68
(g89
g70
NtRp2602
(dp2603
g73
(dp2604
g100
g101
ssg82
g2593
sg75
(lp2605
S':'
asbag68
(g89
g70
NtRp2606
(dp2607
g73
(dp2608
sg82
g2593
sg75
(lp2609
g68
(g69
g70
NtRp2610
(dp2611
g73
(dp2612
g81
I3
ssg82
g2606
sg75
(lp2613
g1104
asbasbasbag68
(g84
g70
NtRp2614
(dp2615
g73
(dp2616
sg82
g2526
sg75
(lp2617
g68
(g89
g70
NtRp2618
(dp2619
g73
(dp2620
g93
g94
ssg82
g2614
sg75
(lp2621
S'HTTP_CONNECTION'
p2622
asbag68
(g89
g70
NtRp2623
(dp2624
g73
(dp2625
g100
g101
ssg82
g2614
sg75
(lp2626
S':'
asbag68
(g89
g70
NtRp2627
(dp2628
g73
(dp2629
sg82
g2614
sg75
(lp2630
g68
(g69
g70
NtRp2631
(dp2632
g73
(dp2633
g81
I3
ssg82
g2627
sg75
(lp2634
g1126
asbasbasbag68
(g84
g70
NtRp2635
(dp2636
g73
(dp2637
sg82
g2526
sg75
(lp2638
g68
(g89
g70
NtRp2639
(dp2640
g73
(dp2641
g93
g94
ssg82
g2635
sg75
(lp2642
S'HTTP_COOKIE'
p2643
asbag68
(g89
g70
NtRp2644
(dp2645
g73
(dp2646
g100
g101
ssg82
g2635
sg75
(lp2647
S':'
asbag68
(g89
g70
NtRp2648
(dp2649
g73
(dp2650
sg82
g2635
sg75
(lp2651
g68
(g69
g70
NtRp2652
(dp2653
g73
(dp2654
g81
I3
ssg82
g2648
sg75
(lp2655
g1148
asbasbasbag68
(g84
g70
NtRp2656
(dp2657
g73
(dp2658
sg82
g2526
sg75
(lp2659
g68
(g89
g70
NtRp2660
(dp2661
g73
(dp2662
g93
g94
ssg82
g2656
sg75
(lp2663
S'HTTP_HOST'
p2664
asbag68
(g89
g70
NtRp2665
(dp2666
g73
(dp2667
g100
g101
ssg82
g2656
sg75
(lp2668
S':'
asbag68
(g89
g70
NtRp2669
(dp2670
g73
(dp2671
sg82
g2656
sg75
(lp2672
g68
(g69
g70
NtRp2673
(dp2674
g73
(dp2675
g81
I3
ssg82
g2669
sg75
(lp2676
g1170
asbasbasbag68
(g84
g70
NtRp2677
(dp2678
g73
(dp2679
sg82
g2526
sg75
(lp2680
g68
(g89
g70
NtRp2681
(dp2682
g73
(dp2683
g93
g94
ssg82
g2677
sg75
(lp2684
S'HTTP_REFERER'
p2685
asbag68
(g89
g70
NtRp2686
(dp2687
g73
(dp2688
g100
g101
ssg82
g2677
sg75
(lp2689
S':'
asbag68
(g89
g70
NtRp2690
(dp2691
g73
(dp2692
sg82
g2677
sg75
(lp2693
g68
(g69
g70
NtRp2694
(dp2695
g73
(dp2696
g81
I3
ssg82
g2690
sg75
(lp2697
g1192
asbasbasbag68
(g84
g70
NtRp2698
(dp2699
g73
(dp2700
sg82
g2526
sg75
(lp2701
g68
(g89
g70
NtRp2702
(dp2703
g73
(dp2704
g93
g94
ssg82
g2698
sg75
(lp2705
S'HTTP_USER_AGENT'
p2706
asbag68
(g89
g70
NtRp2707
(dp2708
g73
(dp2709
g100
g101
ssg82
g2698
sg75
(lp2710
S':'
asbag68
(g89
g70
NtRp2711
(dp2712
g73
(dp2713
sg82
g2698
sg75
(lp2714
g68
(g69
g70
NtRp2715
(dp2716
g73
(dp2717
g81
I3
ssg82
g2711
sg75
(lp2718
g1214
asbasbasbag68
(g84
g70
NtRp2719
(dp2720
g73
(dp2721
sg82
g2526
sg75
(lp2722
g68
(g89
g70
NtRp2723
(dp2724
g73
(dp2725
g93
g94
ssg82
g2719
sg75
(lp2726
S'PATH_INFO'
p2727
asbag68
(g89
g70
NtRp2728
(dp2729
g73
(dp2730
g100
g101
ssg82
g2719
sg75
(lp2731
S':'
asbag68
(g89
g70
NtRp2732
(dp2733
g73
(dp2734
sg82
g2719
sg75
(lp2735
g68
(g69
g70
NtRp2736
(dp2737
g73
(dp2738
g81
I3
ssg82
g2732
sg75
(lp2739
g1278
asbasbasbag68
(g84
g70
NtRp2740
(dp2741
g73
(dp2742
sg82
g2526
sg75
(lp2743
g68
(g89
g70
NtRp2744
(dp2745
g73
(dp2746
g93
g94
ssg82
g2740
sg75
(lp2747
S'QUERY_STRING'
p2748
asbag68
(g89
g70
NtRp2749
(dp2750
g73
(dp2751
g100
g101
ssg82
g2740
sg75
(lp2752
S':'
asbag68
(g89
g70
NtRp2753
(dp2754
g73
(dp2755
sg82
g2740
sg75
(lp2756
g68
(g69
g70
NtRp2757
(dp2758
g73
(dp2759
g81
I3
ssg82
g2753
sg75
(lp2760
S''
asbasbasbag68
(g84
g70
NtRp2761
(dp2762
g73
(dp2763
sg82
g2526
sg75
(lp2764
g68
(g89
g70
NtRp2765
(dp2766
g73
(dp2767
g93
g94
ssg82
g2761
sg75
(lp2768
S'REMOTE_ADDR'
p2769
asbag68
(g89
g70
NtRp2770
(dp2771
g73
(dp2772
g100
g101
ssg82
g2761
sg75
(lp2773
S':'
asbag68
(g89
g70
NtRp2774
(dp2775
g73
(dp2776
sg82
g2761
sg75
(lp2777
g68
(g69
g70
NtRp2778
(dp2779
g73
(dp2780
g81
I3
ssg82
g2774
sg75
(lp2781
g225
asbasbasbag68
(g84
g70
NtRp2782
(dp2783
g73
(dp2784
sg82
g2526
sg75
(lp2785
g68
(g89
g70
NtRp2786
(dp2787
g73
(dp2788
g93
g94
ssg82
g2782
sg75
(lp2789
S'REMOTE_PORT'
p2790
asbag68
(g89
g70
NtRp2791
(dp2792
g73
(dp2793
g100
g101
ssg82
g2782
sg75
(lp2794
S':'
asbag68
(g89
g70
NtRp2795
(dp2796
g73
(dp2797
sg82
g2782
sg75
(lp2798
g68
(g69
g70
NtRp2799
(dp2800
g73
(dp2801
g81
I3
ssg82
g2795
sg75
(lp2802
g1342
asbasbasbag68
(g84
g70
NtRp2803
(dp2804
g73
(dp2805
sg82
g2526
sg75
(lp2806
g68
(g89
g70
NtRp2807
(dp2808
g73
(dp2809
g93
g94
ssg82
g2803
sg75
(lp2810
S'REQUEST_METHOD'
p2811
asbag68
(g89
g70
NtRp2812
(dp2813
g73
(dp2814
g100
g101
ssg82
g2803
sg75
(lp2815
S':'
asbag68
(g89
g70
NtRp2816
(dp2817
g73
(dp2818
sg82
g2803
sg75
(lp2819
g68
(g69
g70
NtRp2820
(dp2821
g73
(dp2822
g81
I3
ssg82
g2816
sg75
(lp2823
g1364
asbasbasbag68
(g84
g70
NtRp2824
(dp2825
g73
(dp2826
sg82
g2526
sg75
(lp2827
g68
(g89
g70
NtRp2828
(dp2829
g73
(dp2830
g93
g94
ssg82
g2824
sg75
(lp2831
S'REQUEST_URI'
p2832
asbag68
(g89
g70
NtRp2833
(dp2834
g73
(dp2835
g100
g101
ssg82
g2824
sg75
(lp2836
S':'
asbag68
(g89
g70
NtRp2837
(dp2838
g73
(dp2839
sg82
g2824
sg75
(lp2840
g68
(g69
g70
NtRp2841
(dp2842
g73
(dp2843
g81
I3
ssg82
g2837
sg75
(lp2844
g1278
asbasbasbag68
(g84
g70
NtRp2845
(dp2846
g73
(dp2847
sg82
g2526
sg75
(lp2848
g68
(g89
g70
NtRp2849
(dp2850
g73
(dp2851
g93
g94
ssg82
g2845
sg75
(lp2852
S'SCRIPT_NAME'
p2853
asbag68
(g89
g70
NtRp2854
(dp2855
g73
(dp2856
g100
g101
ssg82
g2845
sg75
(lp2857
S':'
asbag68
(g89
g70
NtRp2858
(dp2859
g73
(dp2860
sg82
g2845
sg75
(lp2861
g68
(g69
g70
NtRp2862
(dp2863
g73
(dp2864
g81
I3
ssg82
g2858
sg75
(lp2865
S''
asbasbasbag68
(g84
g70
NtRp2866
(dp2867
g73
(dp2868
sg82
g2526
sg75
(lp2869
g68
(g89
g70
NtRp2870
(dp2871
g73
(dp2872
g93
g94
ssg82
g2866
sg75
(lp2873
S'SERVER_NAME'
p2874
asbag68
(g89
g70
NtRp2875
(dp2876
g73
(dp2877
g100
g101
ssg82
g2866
sg75
(lp2878
S':'
asbag68
(g89
g70
NtRp2879
(dp2880
g73
(dp2881
sg82
g2866
sg75
(lp2882
g68
(g69
g70
NtRp2883
(dp2884
g73
(dp2885
g81
I3
ssg82
g2879
sg75
(lp2886
g1428
asbasbasbag68
(g84
g70
NtRp2887
(dp2888
g73
(dp2889
sg82
g2526
sg75
(lp2890
g68
(g89
g70
NtRp2891
(dp2892
g73
(dp2893
g93
g94
ssg82
g2887
sg75
(lp2894
S'SERVER_PORT'
p2895
asbag68
(g89
g70
NtRp2896
(dp2897
g73
(dp2898
g100
g101
ssg82
g2887
sg75
(lp2899
S':'
asbag68
(g89
g70
NtRp2900
(dp2901
g73
(dp2902
sg82
g2887
sg75
(lp2903
g68
(g69
g70
NtRp2904
(dp2905
g73
(dp2906
g81
I3
ssg82
g2900
sg75
(lp2907
g1450
asbasbasbag68
(g84
g70
NtRp2908
(dp2909
g73
(dp2910
sg82
g2526
sg75
(lp2911
g68
(g89
g70
NtRp2912
(dp2913
g73
(dp2914
g93
g94
ssg82
g2908
sg75
(lp2915
S'SERVER_PROTOCOL'
p2916
asbag68
(g89
g70
NtRp2917
(dp2918
g73
(dp2919
g100
g101
ssg82
g2908
sg75
(lp2920
S':'
asbag68
(g89
g70
NtRp2921
(dp2922
g73
(dp2923
sg82
g2908
sg75
(lp2924
g68
(g69
g70
NtRp2925
(dp2926
g73
(dp2927
g81
I3
ssg82
g2921
sg75
(lp2928
g1472
asbasbasbag68
(g84
g70
NtRp2929
(dp2930
g73
(dp2931
sg82
g2526
sg75
(lp2932
g68
(g89
g70
NtRp2933
(dp2934
g73
(dp2935
g93
g94
ssg82
g2929
sg75
(lp2936
S'SERVER_SOFTWARE'
p2937
asbag68
(g89
g70
NtRp2938
(dp2939
g73
(dp2940
g100
g101
ssg82
g2929
sg75
(lp2941
S':'
asbag68
(g89
g70
NtRp2942
(dp2943
g73
(dp2944
sg82
g2929
sg75
(lp2945
g68
(g69
g70
NtRp2946
(dp2947
g73
(dp2948
g81
I3
ssg82
g2942
sg75
(lp2949
g1494
asbasbasbag68
(g84
g70
NtRp2950
(dp2951
g73
(dp2952
sg82
g2526
sg75
(lp2953
g68
(g89
g70
NtRp2954
(dp2955
g73
(dp2956
g93
g94
ssg82
g2950
sg75
(lp2957
S'WEB2PY_ORIGINAL_URI'
p2958
asbag68
(g89
g70
NtRp2959
(dp2960
g73
(dp2961
g100
g101
ssg82
g2950
sg75
(lp2962
S':'
asbag68
(g89
g70
NtRp2963
(dp2964
g73
(dp2965
sg82
g2950
sg75
(lp2966
g68
(g69
g70
NtRp2967
(dp2968
g73
(dp2969
g81
I3
ssg82
g2963
sg75
(lp2970
g1278
asbasbasbag68
(g84
g70
NtRp2971
(dp2972
g73
(dp2973
sg82
g2526
sg75
(lp2974
g68
(g89
g70
NtRp2975
(dp2976
g73
(dp2977
g93
g94
ssg82
g2971
sg75
(lp2978
S'wsgi.errors'
p2979
asbag68
(g89
g70
NtRp2980
(dp2981
g73
(dp2982
g100
g101
ssg82
g2971
sg75
(lp2983
S':'
asbag68
(g89
g70
NtRp2984
(dp2985
g73
(dp2986
sg82
g2971
sg75
(lp2987
g68
(g69
g70
NtRp2988
(dp2989
g73
(dp2990
g81
I3
ssg82
g2984
sg75
(lp2991
S"<open file '<stderr>', mode 'w' at 0xb77e20d0>"
p2992
asbasbasbag68
(g84
g70
NtRp2993
(dp2994
g73
(dp2995
sg82
g2526
sg75
(lp2996
g68
(g89
g70
NtRp2997
(dp2998
g73
(dp2999
g93
g94
ssg82
g2993
sg75
(lp3000
S'wsgi.file_wrapper'
p3001
asbag68
(g89
g70
NtRp3002
(dp3003
g73
(dp3004
g100
g101
ssg82
g2993
sg75
(lp3005
S':'
asbag68
(g89
g70
NtRp3006
(dp3007
g73
(dp3008
sg82
g2993
sg75
(lp3009
g68
(g69
g70
NtRp3010
(dp3011
g73
(dp3012
g81
I3
ssg82
g3006
sg75
(lp3013
S'<class wsgiref.util.FileWrapper at 0xa054efc>'
p3014
asbasbasbag68
(g84
g70
NtRp3015
(dp3016
g73
(dp3017
sg82
g2526
sg75
(lp3018
g68
(g89
g70
NtRp3019
(dp3020
g73
(dp3021
g93
g94
ssg82
g3015
sg75
(lp3022
S'wsgi.input'
p3023
asbag68
(g89
g70
NtRp3024
(dp3025
g73
(dp3026
g100
g101
ssg82
g3015
sg75
(lp3027
S':'
asbag68
(g89
g70
NtRp3028
(dp3029
g73
(dp3030
sg82
g3015
sg75
(lp3031
g68
(g69
g70
NtRp3032
(dp3033
g73
(dp3034
g81
I3
ssg82
g3028
sg75
(lp3035
S'<cStringIO.StringO object at 0xa0d35c0>'
p3036
asbasbasbag68
(g84
g70
NtRp3037
(dp3038
g73
(dp3039
sg82
g2526
sg75
(lp3040
g68
(g89
g70
NtRp3041
(dp3042
g73
(dp3043
g93
g94
ssg82
g3037
sg75
(lp3044
S'wsgi.multiprocess'
p3045
asbag68
(g89
g70
NtRp3046
(dp3047
g73
(dp3048
g100
g101
ssg82
g3037
sg75
(lp3049
S':'
asbag68
(g89
g70
NtRp3050
(dp3051
g73
(dp3052
sg82
g3037
sg75
(lp3053
g68
(g69
g70
NtRp3054
(dp3055
g73
(dp3056
g81
I3
ssg82
g3050
sg75
(lp3057
g111
asbasbasbag68
(g84
g70
NtRp3058
(dp3059
g73
(dp3060
sg82
g2526
sg75
(lp3061
g68
(g89
g70
NtRp3062
(dp3063
g73
(dp3064
g93
g94
ssg82
g3058
sg75
(lp3065
S'wsgi.multithread'
p3066
asbag68
(g89
g70
NtRp3067
(dp3068
g73
(dp3069
g100
g101
ssg82
g3058
sg75
(lp3070
S':'
asbag68
(g89
g70
NtRp3071
(dp3072
g73
(dp3073
sg82
g3058
sg75
(lp3074
g68
(g69
g70
NtRp3075
(dp3076
g73
(dp3077
g81
I3
ssg82
g3071
sg75
(lp3078
g1755
asbasbasbag68
(g84
g70
NtRp3079
(dp3080
g73
(dp3081
sg82
g2526
sg75
(lp3082
g68
(g89
g70
NtRp3083
(dp3084
g73
(dp3085
g93
g94
ssg82
g3079
sg75
(lp3086
S'wsgi.run_once'
p3087
asbag68
(g89
g70
NtRp3088
(dp3089
g73
(dp3090
g100
g101
ssg82
g3079
sg75
(lp3091
S':'
asbag68
(g89
g70
NtRp3092
(dp3093
g73
(dp3094
sg82
g3079
sg75
(lp3095
g68
(g69
g70
NtRp3096
(dp3097
g73
(dp3098
g81
I3
ssg82
g3092
sg75
(lp3099
g111
asbasbasbag68
(g84
g70
NtRp3100
(dp3101
g73
(dp3102
sg82
g2526
sg75
(lp3103
g68
(g89
g70
NtRp3104
(dp3105
g73
(dp3106
g93
g94
ssg82
g3100
sg75
(lp3107
S'wsgi.url_scheme'
p3108
asbag68
(g89
g70
NtRp3109
(dp3110
g73
(dp3111
g100
g101
ssg82
g3100
sg75
(lp3112
S':'
asbag68
(g89
g70
NtRp3113
(dp3114
g73
(dp3115
sg82
g3100
sg75
(lp3116
g68
(g69
g70
NtRp3117
(dp3118
g73
(dp3119
g81
I3
ssg82
g3113
sg75
(lp3120
g1798
asbasbasbag68
(g84
g70
NtRp3121
(dp3122
g73
(dp3123
sg82
g2526
sg75
(lp3124
g68
(g89
g70
NtRp3125
(dp3126
g73
(dp3127
g93
g94
ssg82
g3121
sg75
(lp3128
S'wsgi.version'
p3129
asbag68
(g89
g70
NtRp3130
(dp3131
g73
(dp3132
g100
g101
ssg82
g3121
sg75
(lp3133
S':'
asbag68
(g89
g70
NtRp3134
(dp3135
g73
(dp3136
sg82
g3121
sg75
(lp3137
g68
(g69
g70
NtRp3138
(dp3139
g73
(dp3140
g81
I3
ssg82
g3134
sg75
(lp3141
S'1'
asbasbasbasbasbasbasbasbasbasbasbasbasbsS'frames'
p3142
(lp3143
(dp3144
S'file'
p3145
S'/home/kaique/Projects/web/big-votes/web2py/gluon/restricted.py'
p3146
sS'dump'
p3147
(dp3148
S'code'
p3149
S"'# -*- coding: utf-8 -*-\\nfrom bigvotes import Vot...():\\n\\tpass\\nresponse._vars=response._caller(index)\\n'"
p3150
sS'layer'
p3151
S"'/home/kaique/Projects/web/big-votes/web2py/applications/bigvotes/controllers/vote.py'"
p3152
sS'global compile2'
p3153
S'<function compile2>'
p3154
sS'ccode'
p3155
S'undefined'
p3156
ssS'lnum'
p3157
I204
sS'lines'
p3158
(dp3159
I199
S"    environment['__name__'] = '__restricted__'"
p3160
sI200
S'    try:'
p3161
sI201
S'        if type(code) == types.CodeType:'
p3162
sI202
S'            ccode = code'
p3163
sI203
S'        else:'
p3164
sI204
S'            ccode = compile2(code,layer)'
p3165
sI205
S'        exec ccode in environment'
p3166
sI206
S'    except HTTP:'
p3167
sI207
S'        raise'
p3168
sI208
S'    except RestrictedError:'
p3169
ssS'call'
p3170
S"(code='# -*- coding: utf-8 -*-\\nfrom bigvotes import Vot...():\\n\\tpass\\nresponse._vars=response._caller(index)\\n', environment={'A': <class 'gluon.html.A'>, 'Auth': <class 'gluon.tools.Auth'>, 'B': <class 'gluon.html.B'>, 'BEAUTIFY': <class 'gluon.html.BEAUTIFY'>, 'BODY': <class 'gluon.html.BODY'>, 'BR': <class 'gluon.html.BR'>, 'BUTTON': <class 'gluon.html.BUTTON'>, 'CAT': <class 'gluon.html.CAT'>, 'CENTER': <class 'gluon.html.CENTER'>, 'CLEANUP': <class 'gluon.validators.CLEANUP'>, ...}, layer='/home/kaique/Projects/web/big-votes/web2py/applications/bigvotes/controllers/vote.py')"
p3171
sS'func'
p3172
S'restricted'
p3173
sa(dp3174
g3145
S'/home/kaique/Projects/web/big-votes/web2py/gluon/restricted.py'
p3175
sg3147
(dp3176
S'builtincompile'
p3177
S'<built-in function compile>'
p3178
sS'code'
p3179
S"'# -*- coding: utf-8 -*-\\nfrom bigvotes import Vot...():\\n\\tpass\\nresponse._vars=response._caller(index)\\n'"
p3180
sS'code.rstrip'
p3181
S'<built-in method rstrip of str object>'
p3182
sS').replace'
p3183
g3156
sS'layer'
p3184
S"'/home/kaique/Projects/web/big-votes/web2py/applications/bigvotes/controllers/vote.py'"
p3185
ssg3157
I189
sg3158
(dp3186
I192
S'    """'
p3187
sI193
S'    runs code in environment and returns the output. if an exception occurs'
p3188
sI184
S''
sI185
S'def compile2(code,layer):'
p3189
sI186
S'    """'
p3190
sI187
S"    The +'\\n' is necessary else compile fails when code ends in a comment."
p3191
sI188
S'    """'
p3192
sI189
S"    return compile(code.rstrip().replace('\\r\\n','\\n')+'\\n', layer, 'exec')"
p3193
sI190
S''
sI191
S"def restricted(code, environment=None, layer='Unknown'):"
p3194
ssg3170
S"(code='# -*- coding: utf-8 -*-\\nfrom bigvotes import Vot...():\\n\\tpass\\nresponse._vars=response._caller(index)\\n', layer='/home/kaique/Projects/web/big-votes/web2py/applications/bigvotes/controllers/vote.py')"
p3195
sg3172
S'compile2'
p3196
sasS'pyver'
p3197
S'Python 2.7.3: /usr/bin/python'
p3198
sS'session'
p3199
g68
(g69
g70
NtRp3200
(dp3201
g73
(dp3202
sg75
(lp3203
g68
(g77
g70
NtRp3204
(dp3205
g73
(dp3206
g81
I5
ssg82
Nsg75
(lp3207
g68
(g84
g70
NtRp3208
(dp3209
g73
(dp3210
sg82
g3204
sg75
(lp3211
g68
(g89
g70
NtRp3212
(dp3213
g73
(dp3214
g93
g94
ssg82
g3208
sg75
(lp3215
S'last_query'
p3216
asbag68
(g89
g70
NtRp3217
(dp3218
g73
(dp3219
g100
g101
ssg82
g3208
sg75
(lp3220
S':'
asbag68
(g89
g70
NtRp3221
(dp3222
g73
(dp3223
sg82
g3208
sg75
(lp3224
g68
(g69
g70
NtRp3225
(dp3226
g73
(dp3227
g81
I5
ssg82
g3221
sg75
(lp3228
S'db.voting.id>0'
p3229
asbasbasbasbasbsS'etype'
p3230
S"<type 'exceptions.SyntaxError'>"
p3231
sS'date'
p3232
S'Mon May 21 22:41:15 2012'
p3233
sS'response'
p3234
g68
(g69
g70
NtRp3235
(dp3236
g73
(dp3237
sg75
(lp3238
g68
(g77
g70
NtRp3239
(dp3240
g73
(dp3241
g81
I5
ssg82
Nsg75
(lp3242
g68
(g84
g70
NtRp3243
(dp3244
g73
(dp3245
sg82
g3239
sg75
(lp3246
g68
(g89
g70
NtRp3247
(dp3248
g73
(dp3249
g93
g94
ssg82
g3243
sg75
(lp3250
g190
asbag68
(g89
g70
NtRp3251
(dp3252
g73
(dp3253
g100
g101
ssg82
g3243
sg75
(lp3254
S':'
asbag68
(g89
g70
NtRp3255
(dp3256
g73
(dp3257
sg82
g3243
sg75
(lp3258
g68
(g69
g70
NtRp3259
(dp3260
g73
(dp3261
g81
I5
ssg82
g3255
sg75
(lp3262
S'<cStringIO.StringO object at 0x9d7da60>'
p3263
asbasbasbag68
(g84
g70
NtRp3264
(dp3265
g73
(dp3266
sg82
g3239
sg75
(lp3267
g68
(g89
g70
NtRp3268
(dp3269
g73
(dp3270
g93
g94
ssg82
g3264
sg75
(lp3271
g256
asbag68
(g89
g70
NtRp3272
(dp3273
g73
(dp3274
g100
g101
ssg82
g3264
sg75
(lp3275
S':'
asbag68
(g89
g70
NtRp3276
(dp3277
g73
(dp3278
sg82
g3264
sg75
(lp3279
g68
(g69
g70
NtRp3280
(dp3281
g73
(dp3282
g81
I5
ssg82
g3276
sg75
(lp3283
g68
(g77
g70
NtRp3284
(dp3285
g73
(dp3286
g81
I4
ssg82
Nsg75
(lp3287
g68
(g84
g70
NtRp3288
(dp3289
g73
(dp3290
sg82
g3284
sg75
(lp3291
g68
(g89
g70
NtRp3292
(dp3293
g73
(dp3294
g93
g94
ssg82
g3288
sg75
(lp3295
S'session_id_bigvotes'
p3296
asbag68
(g89
g70
NtRp3297
(dp3298
g73
(dp3299
g100
g101
ssg82
g3288
sg75
(lp3300
S':'
asbag68
(g89
g70
NtRp3301
(dp3302
g73
(dp3303
sg82
g3288
sg75
(lp3304
g68
(g69
g70
NtRp3305
(dp3306
g73
(dp3307
g81
I4
ssg82
g3301
sg75
(lp3308
g68
(g77
g70
NtRp3309
(dp3310
g73
(dp3311
g81
I3
ssg82
Nsg75
(lp3312
g68
(g84
g70
NtRp3313
(dp3314
g73
(dp3315
sg82
g3309
sg75
(lp3316
g68
(g89
g70
NtRp3317
(dp3318
g73
(dp3319
g93
g94
ssg82
g3313
sg75
(lp3320
g306
asbag68
(g89
g70
NtRp3321
(dp3322
g73
(dp3323
g100
g101
ssg82
g3313
sg75
(lp3324
S':'
asbag68
(g89
g70
NtRp3325
(dp3326
g73
(dp3327
sg82
g3313
sg75
(lp3328
g68
(g69
g70
NtRp3329
(dp3330
g73
(dp3331
g81
I3
ssg82
g3325
sg75
(lp3332
S''
asbasbasbag68
(g84
g70
NtRp3333
(dp3334
g73
(dp3335
sg82
g3309
sg75
(lp3336
g68
(g89
g70
NtRp3337
(dp3338
g73
(dp3339
g93
g94
ssg82
g3333
sg75
(lp3340
g327
asbag68
(g89
g70
NtRp3341
(dp3342
g73
(dp3343
g100
g101
ssg82
g3333
sg75
(lp3344
S':'
asbag68
(g89
g70
NtRp3345
(dp3346
g73
(dp3347
sg82
g3333
sg75
(lp3348
g68
(g69
g70
NtRp3349
(dp3350
g73
(dp3351
g81
I3
ssg82
g3345
sg75
(lp3352
S''
asbasbasbag68
(g84
g70
NtRp3353
(dp3354
g73
(dp3355
sg82
g3309
sg75
(lp3356
g68
(g89
g70
NtRp3357
(dp3358
g73
(dp3359
g93
g94
ssg82
g3353
sg75
(lp3360
g348
asbag68
(g89
g70
NtRp3361
(dp3362
g73
(dp3363
g100
g101
ssg82
g3353
sg75
(lp3364
S':'
asbag68
(g89
g70
NtRp3365
(dp3366
g73
(dp3367
sg82
g3353
sg75
(lp3368
g68
(g69
g70
NtRp3369
(dp3370
g73
(dp3371
g81
I3
ssg82
g3365
sg75
(lp3372
S''
asbasbasbag68
(g84
g70
NtRp3373
(dp3374
g73
(dp3375
sg82
g3309
sg75
(lp3376
g68
(g89
g70
NtRp3377
(dp3378
g73
(dp3379
g93
g94
ssg82
g3373
sg75
(lp3380
g369
asbag68
(g89
g70
NtRp3381
(dp3382
g73
(dp3383
g100
g101
ssg82
g3373
sg75
(lp3384
S':'
asbag68
(g89
g70
NtRp3385
(dp3386
g73
(dp3387
sg82
g3373
sg75
(lp3388
g68
(g69
g70
NtRp3389
(dp3390
g73
(dp3391
g81
I3
ssg82
g3385
sg75
(lp3392
S''
asbasbasbag68
(g84
g70
NtRp3393
(dp3394
g73
(dp3395
sg82
g3309
sg75
(lp3396
g68
(g89
g70
NtRp3397
(dp3398
g73
(dp3399
g93
g94
ssg82
g3393
sg75
(lp3400
g390
asbag68
(g89
g70
NtRp3401
(dp3402
g73
(dp3403
g100
g101
ssg82
g3393
sg75
(lp3404
S':'
asbag68
(g89
g70
NtRp3405
(dp3406
g73
(dp3407
sg82
g3393
sg75
(lp3408
g68
(g69
g70
NtRp3409
(dp3410
g73
(dp3411
g81
I3
ssg82
g3405
sg75
(lp3412
S''
asbasbasbag68
(g84
g70
NtRp3413
(dp3414
g73
(dp3415
sg82
g3309
sg75
(lp3416
g68
(g89
g70
NtRp3417
(dp3418
g73
(dp3419
g93
g94
ssg82
g3413
sg75
(lp3420
g411
asbag68
(g89
g70
NtRp3421
(dp3422
g73
(dp3423
g100
g101
ssg82
g3413
sg75
(lp3424
S':'
asbag68
(g89
g70
NtRp3425
(dp3426
g73
(dp3427
sg82
g3413
sg75
(lp3428
g68
(g69
g70
NtRp3429
(dp3430
g73
(dp3431
g81
I3
ssg82
g3425
sg75
(lp3432
S'/'
asbasbasbag68
(g84
g70
NtRp3433
(dp3434
g73
(dp3435
sg82
g3309
sg75
(lp3436
g68
(g89
g70
NtRp3437
(dp3438
g73
(dp3439
g93
g94
ssg82
g3433
sg75
(lp3440
g432
asbag68
(g89
g70
NtRp3441
(dp3442
g73
(dp3443
g100
g101
ssg82
g3433
sg75
(lp3444
S':'
asbag68
(g89
g70
NtRp3445
(dp3446
g73
(dp3447
sg82
g3433
sg75
(lp3448
g68
(g69
g70
NtRp3449
(dp3450
g73
(dp3451
g81
I3
ssg82
g3445
sg75
(lp3452
S''
asbasbasbag68
(g84
g70
NtRp3453
(dp3454
g73
(dp3455
sg82
g3309
sg75
(lp3456
g68
(g89
g70
NtRp3457
(dp3458
g73
(dp3459
g93
g94
ssg82
g3453
sg75
(lp3460
g453
asbag68
(g89
g70
NtRp3461
(dp3462
g73
(dp3463
g100
g101
ssg82
g3453
sg75
(lp3464
S':'
asbag68
(g89
g70
NtRp3465
(dp3466
g73
(dp3467
sg82
g3453
sg75
(lp3468
g68
(g69
g70
NtRp3469
(dp3470
g73
(dp3471
g81
I3
ssg82
g3465
sg75
(lp3472
S''
asbasbasbasbasbasbasbasbasbasbasbag68
(g84
g70
NtRp3473
(dp3474
g73
(dp3475
sg82
g3239
sg75
(lp3476
g68
(g89
g70
NtRp3477
(dp3478
g73
(dp3479
g93
g94
ssg82
g3473
sg75
(lp3480
S'delimiters'
p3481
asbag68
(g89
g70
NtRp3482
(dp3483
g73
(dp3484
g100
g101
ssg82
g3473
sg75
(lp3485
S':'
asbag68
(g89
g70
NtRp3486
(dp3487
g73
(dp3488
sg82
g3473
sg75
(lp3489
g68
(g69
g70
NtRp3490
(dp3491
g73
(dp3492
g81
I5
ssg82
g3486
sg75
(lp3493
g68
(g77
g70
NtRp3494
(dp3495
g73
(dp3496
g81
I4
ssg82
Nsg75
(lp3497
g68
(g84
g70
NtRp3498
(dp3499
g73
(dp3500
sg82
g3494
sg75
(lp3501
g68
(g89
g70
NtRp3502
(dp3503
g73
(dp3504
sg82
g3498
sg75
(lp3505
g68
(g69
g70
NtRp3506
(dp3507
g73
(dp3508
g81
I4
ssg82
g3502
sg75
(lp3509
S'{{'
p3510
asbasbasbag68
(g84
g70
NtRp3511
(dp3512
g73
(dp3513
sg82
g3494
sg75
(lp3514
g68
(g89
g70
NtRp3515
(dp3516
g73
(dp3517
sg82
g3511
sg75
(lp3518
g68
(g69
g70
NtRp3519
(dp3520
g73
(dp3521
g81
I4
ssg82
g3515
sg75
(lp3522
S'}}'
p3523
asbasbasbasbasbasbasbag68
(g84
g70
NtRp3524
(dp3525
g73
(dp3526
sg82
g3239
sg75
(lp3527
g68
(g89
g70
NtRp3528
(dp3529
g73
(dp3530
g93
g94
ssg82
g3524
sg75
(lp3531
S'files'
p3532
asbag68
(g89
g70
NtRp3533
(dp3534
g73
(dp3535
g100
g101
ssg82
g3524
sg75
(lp3536
S':'
asbag68
(g89
g70
NtRp3537
(dp3538
g73
(dp3539
sg82
g3524
sg75
(lp3540
g68
(g69
g70
NtRp3541
(dp3542
g73
(dp3543
g81
I5
ssg82
g3537
sg75
(lp3544
g68
(g77
g70
NtRp3545
(dp3546
g73
(dp3547
g81
I4
ssg82
Nsg75
(lp3548
sbasbasbasbag68
(g84
g70
NtRp3549
(dp3550
g73
(dp3551
sg82
g3239
sg75
(lp3552
g68
(g89
g70
NtRp3553
(dp3554
g73
(dp3555
g93
g94
ssg82
g3549
sg75
(lp3556
S'flash'
p3557
asbag68
(g89
g70
NtRp3558
(dp3559
g73
(dp3560
g100
g101
ssg82
g3549
sg75
(lp3561
S':'
asbag68
(g89
g70
NtRp3562
(dp3563
g73
(dp3564
sg82
g3549
sg75
(lp3565
g68
(g69
g70
NtRp3566
(dp3567
g73
(dp3568
g81
I5
ssg82
g3562
sg75
(lp3569
S''
asbasbasbag68
(g84
g70
NtRp3570
(dp3571
g73
(dp3572
sg82
g3239
sg75
(lp3573
g68
(g89
g70
NtRp3574
(dp3575
g73
(dp3576
g93
g94
ssg82
g3570
sg75
(lp3577
S'generic_patterns'
p3578
asbag68
(g89
g70
NtRp3579
(dp3580
g73
(dp3581
g100
g101
ssg82
g3570
sg75
(lp3582
S':'
asbag68
(g89
g70
NtRp3583
(dp3584
g73
(dp3585
sg82
g3570
sg75
(lp3586
g68
(g69
g70
NtRp3587
(dp3588
g73
(dp3589
g81
I5
ssg82
g3583
sg75
(lp3590
g68
(g77
g70
NtRp3591
(dp3592
g73
(dp3593
g81
I4
ssg82
Nsg75
(lp3594
g68
(g84
g70
NtRp3595
(dp3596
g73
(dp3597
sg82
g3591
sg75
(lp3598
g68
(g89
g70
NtRp3599
(dp3600
g73
(dp3601
sg82
g3595
sg75
(lp3602
g68
(g69
g70
NtRp3603
(dp3604
g73
(dp3605
g81
I4
ssg82
g3599
sg75
(lp3606
S'*'
asbasbasbasbasbasbasbag68
(g84
g70
NtRp3607
(dp3608
g73
(dp3609
sg82
g3239
sg75
(lp3610
g68
(g89
g70
NtRp3611
(dp3612
g73
(dp3613
g93
g94
ssg82
g3607
sg75
(lp3614
S'headers'
p3615
asbag68
(g89
g70
NtRp3616
(dp3617
g73
(dp3618
g100
g101
ssg82
g3607
sg75
(lp3619
S':'
asbag68
(g89
g70
NtRp3620
(dp3621
g73
(dp3622
sg82
g3607
sg75
(lp3623
g68
(g69
g70
NtRp3624
(dp3625
g73
(dp3626
g81
I5
ssg82
g3620
sg75
(lp3627
g68
(g77
g70
NtRp3628
(dp3629
g73
(dp3630
g81
I4
ssg82
Nsg75
(lp3631
g68
(g84
g70
NtRp3632
(dp3633
g73
(dp3634
sg82
g3628
sg75
(lp3635
g68
(g89
g70
NtRp3636
(dp3637
g73
(dp3638
g93
g94
ssg82
g3632
sg75
(lp3639
S'Cache-Control'
p3640
asbag68
(g89
g70
NtRp3641
(dp3642
g73
(dp3643
g100
g101
ssg82
g3632
sg75
(lp3644
S':'
asbag68
(g89
g70
NtRp3645
(dp3646
g73
(dp3647
sg82
g3632
sg75
(lp3648
g68
(g69
g70
NtRp3649
(dp3650
g73
(dp3651
g81
I4
ssg82
g3645
sg75
(lp3652
S'no-store, no-cache, must-revalidate, post-check=0, pre-check=0'
p3653
asbasbasbag68
(g84
g70
NtRp3654
(dp3655
g73
(dp3656
sg82
g3628
sg75
(lp3657
g68
(g89
g70
NtRp3658
(dp3659
g73
(dp3660
g93
g94
ssg82
g3654
sg75
(lp3661
S'Content-Type'
p3662
asbag68
(g89
g70
NtRp3663
(dp3664
g73
(dp3665
g100
g101
ssg82
g3654
sg75
(lp3666
S':'
asbag68
(g89
g70
NtRp3667
(dp3668
g73
(dp3669
sg82
g3654
sg75
(lp3670
g68
(g69
g70
NtRp3671
(dp3672
g73
(dp3673
g81
I4
ssg82
g3667
sg75
(lp3674
S'text/html; charset=utf-8'
p3675
asbasbasbag68
(g84
g70
NtRp3676
(dp3677
g73
(dp3678
sg82
g3628
sg75
(lp3679
g68
(g89
g70
NtRp3680
(dp3681
g73
(dp3682
g93
g94
ssg82
g3676
sg75
(lp3683
S'Expires'
p3684
asbag68
(g89
g70
NtRp3685
(dp3686
g73
(dp3687
g100
g101
ssg82
g3676
sg75
(lp3688
S':'
asbag68
(g89
g70
NtRp3689
(dp3690
g73
(dp3691
sg82
g3676
sg75
(lp3692
g68
(g69
g70
NtRp3693
(dp3694
g73
(dp3695
g81
I4
ssg82
g3689
sg75
(lp3696
S'Tue, 22 May 2012 01:41:15 GMT'
p3697
asbasbasbag68
(g84
g70
NtRp3698
(dp3699
g73
(dp3700
sg82
g3628
sg75
(lp3701
g68
(g89
g70
NtRp3702
(dp3703
g73
(dp3704
g93
g94
ssg82
g3698
sg75
(lp3705
S'Pragma'
p3706
asbag68
(g89
g70
NtRp3707
(dp3708
g73
(dp3709
g100
g101
ssg82
g3698
sg75
(lp3710
S':'
asbag68
(g89
g70
NtRp3711
(dp3712
g73
(dp3713
sg82
g3698
sg75
(lp3714
g68
(g69
g70
NtRp3715
(dp3716
g73
(dp3717
g81
I4
ssg82
g3711
sg75
(lp3718
S'no-cache'
p3719
asbasbasbag68
(g84
g70
NtRp3720
(dp3721
g73
(dp3722
sg82
g3628
sg75
(lp3723
g68
(g89
g70
NtRp3724
(dp3725
g73
(dp3726
g93
g94
ssg82
g3720
sg75
(lp3727
S'X-Powered-By'
p3728
asbag68
(g89
g70
NtRp3729
(dp3730
g73
(dp3731
g100
g101
ssg82
g3720
sg75
(lp3732
S':'
asbag68
(g89
g70
NtRp3733
(dp3734
g73
(dp3735
sg82
g3720
sg75
(lp3736
g68
(g69
g70
NtRp3737
(dp3738
g73
(dp3739
g81
I4
ssg82
g3733
sg75
(lp3740
S'web2py'
p3741
asbasbasbasbasbasbasbag68
(g84
g70
NtRp3742
(dp3743
g73
(dp3744
sg82
g3239
sg75
(lp3745
g68
(g89
g70
NtRp3746
(dp3747
g73
(dp3748
g93
g94
ssg82
g3742
sg75
(lp3749
S'menu'
p3750
asbag68
(g89
g70
NtRp3751
(dp3752
g73
(dp3753
g100
g101
ssg82
g3742
sg75
(lp3754
S':'
asbag68
(g89
g70
NtRp3755
(dp3756
g73
(dp3757
sg82
g3742
sg75
(lp3758
g68
(g69
g70
NtRp3759
(dp3760
g73
(dp3761
g81
I5
ssg82
g3755
sg75
(lp3762
g68
(g77
g70
NtRp3763
(dp3764
g73
(dp3765
g81
I4
ssg82
Nsg75
(lp3766
g68
(g84
g70
NtRp3767
(dp3768
g73
(dp3769
sg82
g3763
sg75
(lp3770
g68
(g89
g70
NtRp3771
(dp3772
g73
(dp3773
sg82
g3767
sg75
(lp3774
g68
(g69
g70
NtRp3775
(dp3776
g73
(dp3777
g81
I4
ssg82
g3771
sg75
(lp3778
g68
(g77
g70
NtRp3779
(dp3780
g73
(dp3781
g81
I3
ssg82
Nsg75
(lp3782
g68
(g84
g70
NtRp3783
(dp3784
g73
(dp3785
sg82
g3779
sg75
(lp3786
g68
(g89
g70
NtRp3787
(dp3788
g73
(dp3789
sg82
g3783
sg75
(lp3790
g68
(g69
g70
NtRp3791
(dp3792
g73
(dp3793
g81
I3
ssg82
g3787
sg75
(lp3794
cgluon.languages
lazyT_unpickle
p3795
(S't\x05\x00\x00\x00Votes'
tRp3796
asbasbasbag68
(g84
g70
NtRp3797
(dp3798
g73
(dp3799
sg82
g3779
sg75
(lp3800
g68
(g89
g70
NtRp3801
(dp3802
g73
(dp3803
sg82
g3797
sg75
(lp3804
g68
(g69
g70
NtRp3805
(dp3806
g73
(dp3807
g81
I3
ssg82
g3801
sg75
(lp3808
g111
asbasbasbag68
(g84
g70
NtRp3809
(dp3810
g73
(dp3811
sg82
g3779
sg75
(lp3812
g68
(g89
g70
NtRp3813
(dp3814
g73
(dp3815
sg82
g3809
sg75
(lp3816
g68
(g69
g70
NtRp3817
(dp3818
g73
(dp3819
g81
I3
ssg82
g3813
sg75
(lp3820
S'/bigvotes/default/index'
p3821
asbasbasbag68
(g84
g70
NtRp3822
(dp3823
g73
(dp3824
sg82
g3779
sg75
(lp3825
g68
(g89
g70
NtRp3826
(dp3827
g73
(dp3828
sg82
g3822
sg75
(lp3829
g68
(g69
g70
NtRp3830
(dp3831
g73
(dp3832
g81
I3
ssg82
g3826
sg75
(lp3833
g68
(g77
g70
NtRp3834
(dp3835
g73
(dp3836
g81
I2
ssg82
Nsg75
(lp3837
sbasbasbasbasbasbasbasbag68
(g84
g70
NtRp3838
(dp3839
g73
(dp3840
sg82
g3763
sg75
(lp3841
g68
(g89
g70
NtRp3842
(dp3843
g73
(dp3844
sg82
g3838
sg75
(lp3845
g68
(g69
g70
NtRp3846
(dp3847
g73
(dp3848
g81
I4
ssg82
g3842
sg75
(lp3849
g68
(g77
g70
NtRp3850
(dp3851
g73
(dp3852
g81
I3
ssg82
Nsg75
(lp3853
g68
(g84
g70
NtRp3854
(dp3855
g73
(dp3856
sg82
g3850
sg75
(lp3857
g68
(g89
g70
NtRp3858
(dp3859
g73
(dp3860
sg82
g3854
sg75
(lp3861
g68
(g69
g70
NtRp3862
(dp3863
g73
(dp3864
g81
I3
ssg82
g3858
sg75
(lp3865
g3795
(S't\x07\x00\x00\x00Members'
tRp3866
asbasbasbag68
(g84
g70
NtRp3867
(dp3868
g73
(dp3869
sg82
g3850
sg75
(lp3870
g68
(g89
g70
NtRp3871
(dp3872
g73
(dp3873
sg82
g3867
sg75
(lp3874
g68
(g69
g70
NtRp3875
(dp3876
g73
(dp3877
g81
I3
ssg82
g3871
sg75
(lp3878
g111
asbasbasbag68
(g84
g70
NtRp3879
(dp3880
g73
(dp3881
sg82
g3850
sg75
(lp3882
g68
(g89
g70
NtRp3883
(dp3884
g73
(dp3885
sg82
g3879
sg75
(lp3886
g68
(g69
g70
NtRp3887
(dp3888
g73
(dp3889
g81
I3
ssg82
g3883
sg75
(lp3890
S'/bigvotes/member/index'
p3891
asbasbasbag68
(g84
g70
NtRp3892
(dp3893
g73
(dp3894
sg82
g3850
sg75
(lp3895
g68
(g89
g70
NtRp3896
(dp3897
g73
(dp3898
sg82
g3892
sg75
(lp3899
g68
(g69
g70
NtRp3900
(dp3901
g73
(dp3902
g81
I3
ssg82
g3896
sg75
(lp3903
g68
(g77
g70
NtRp3904
(dp3905
g73
(dp3906
g81
I2
ssg82
Nsg75
(lp3907
sbasbasbasbasbasbasbasbag68
(g84
g70
NtRp3908
(dp3909
g73
(dp3910
sg82
g3763
sg75
(lp3911
g68
(g89
g70
NtRp3912
(dp3913
g73
(dp3914
sg82
g3908
sg75
(lp3915
g68
(g69
g70
NtRp3916
(dp3917
g73
(dp3918
g81
I4
ssg82
g3912
sg75
(lp3919
g68
(g77
g70
NtRp3920
(dp3921
g73
(dp3922
g81
I3
ssg82
Nsg75
(lp3923
g68
(g84
g70
NtRp3924
(dp3925
g73
(dp3926
sg82
g3920
sg75
(lp3927
g68
(g89
g70
NtRp3928
(dp3929
g73
(dp3930
sg82
g3924
sg75
(lp3931
g68
(g69
g70
NtRp3932
(dp3933
g73
(dp3934
g81
I3
ssg82
g3928
sg75
(lp3935
g3795
(S's\x12\x00\x00\x00Members Eliminated'
tRp3936
asbasbasbag68
(g84
g70
NtRp3937
(dp3938
g73
(dp3939
sg82
g3920
sg75
(lp3940
g68
(g89
g70
NtRp3941
(dp3942
g73
(dp3943
sg82
g3937
sg75
(lp3944
g68
(g69
g70
NtRp3945
(dp3946
g73
(dp3947
g81
I3
ssg82
g3941
sg75
(lp3948
g111
asbasbasbag68
(g84
g70
NtRp3949
(dp3950
g73
(dp3951
sg82
g3920
sg75
(lp3952
g68
(g89
g70
NtRp3953
(dp3954
g73
(dp3955
sg82
g3949
sg75
(lp3956
g68
(g69
g70
NtRp3957
(dp3958
g73
(dp3959
g81
I3
ssg82
g3953
sg75
(lp3960
S'/bigvotes/member/eliminated'
p3961
asbasbasbag68
(g84
g70
NtRp3962
(dp3963
g73
(dp3964
sg82
g3920
sg75
(lp3965
g68
(g89
g70
NtRp3966
(dp3967
g73
(dp3968
sg82
g3962
sg75
(lp3969
g68
(g69
g70
NtRp3970
(dp3971
g73
(dp3972
g81
I3
ssg82
g3966
sg75
(lp3973
g68
(g77
g70
NtRp3974
(dp3975
g73
(dp3976
g81
I2
ssg82
Nsg75
(lp3977
sbasbasbasbasbasbasbasbasbasbasbasbag68
(g84
g70
NtRp3978
(dp3979
g73
(dp3980
sg82
g3239
sg75
(lp3981
g68
(g89
g70
NtRp3982
(dp3983
g73
(dp3984
g93
g94
ssg82
g3978
sg75
(lp3985
S'meta'
p3986
asbag68
(g89
g70
NtRp3987
(dp3988
g73
(dp3989
g100
g101
ssg82
g3978
sg75
(lp3990
S':'
asbag68
(g89
g70
NtRp3991
(dp3992
g73
(dp3993
sg82
g3978
sg75
(lp3994
g68
(g69
g70
NtRp3995
(dp3996
g73
(dp3997
g81
I5
ssg82
g3991
sg75
(lp3998
g68
(g77
g70
NtRp3999
(dp4000
g73
(dp4001
g81
I4
ssg82
Nsg75
(lp4002
g68
(g84
g70
NtRp4003
(dp4004
g73
(dp4005
sg82
g3999
sg75
(lp4006
g68
(g89
g70
NtRp4007
(dp4008
g73
(dp4009
g93
g94
ssg82
g4003
sg75
(lp4010
S'author'
p4011
asbag68
(g89
g70
NtRp4012
(dp4013
g73
(dp4014
g100
g101
ssg82
g4003
sg75
(lp4015
S':'
asbag68
(g89
g70
NtRp4016
(dp4017
g73
(dp4018
sg82
g4003
sg75
(lp4019
g68
(g69
g70
NtRp4020
(dp4021
g73
(dp4022
g81
I4
ssg82
g4016
sg75
(lp4023
S'Kaique da Silva <kaique.developer@gmail.com>'
p4024
asbasbasbag68
(g84
g70
NtRp4025
(dp4026
g73
(dp4027
sg82
g3999
sg75
(lp4028
g68
(g89
g70
NtRp4029
(dp4030
g73
(dp4031
g93
g94
ssg82
g4025
sg75
(lp4032
S'copyright'
p4033
asbag68
(g89
g70
NtRp4034
(dp4035
g73
(dp4036
g100
g101
ssg82
g4025
sg75
(lp4037
S':'
asbag68
(g89
g70
NtRp4038
(dp4039
g73
(dp4040
sg82
g4025
sg75
(lp4041
g68
(g69
g70
NtRp4042
(dp4043
g73
(dp4044
g81
I4
ssg82
g4038
sg75
(lp4045
S'Copyright 2012'
p4046
asbasbasbag68
(g84
g70
NtRp4047
(dp4048
g73
(dp4049
sg82
g3999
sg75
(lp4050
g68
(g89
g70
NtRp4051
(dp4052
g73
(dp4053
g93
g94
ssg82
g4047
sg75
(lp4054
S'description'
p4055
asbag68
(g89
g70
NtRp4056
(dp4057
g73
(dp4058
g100
g101
ssg82
g4047
sg75
(lp4059
S':'
asbag68
(g89
g70
NtRp4060
(dp4061
g73
(dp4062
sg82
g4047
sg75
(lp4063
g68
(g69
g70
NtRp4064
(dp4065
g73
(dp4066
g81
I4
ssg82
g4060
sg75
(lp4067
S'Challenge app'
p4068
asbasbasbag68
(g84
g70
NtRp4069
(dp4070
g73
(dp4071
sg82
g3999
sg75
(lp4072
g68
(g89
g70
NtRp4073
(dp4074
g73
(dp4075
g93
g94
ssg82
g4069
sg75
(lp4076
S'generator'
p4077
asbag68
(g89
g70
NtRp4078
(dp4079
g73
(dp4080
g100
g101
ssg82
g4069
sg75
(lp4081
S':'
asbag68
(g89
g70
NtRp4082
(dp4083
g73
(dp4084
sg82
g4069
sg75
(lp4085
g68
(g69
g70
NtRp4086
(dp4087
g73
(dp4088
g81
I4
ssg82
g4082
sg75
(lp4089
S'Web2py Web Framework'
p4090
asbasbasbag68
(g84
g70
NtRp4091
(dp4092
g73
(dp4093
sg82
g3999
sg75
(lp4094
g68
(g89
g70
NtRp4095
(dp4096
g73
(dp4097
g93
g94
ssg82
g4091
sg75
(lp4098
S'keywords'
p4099
asbag68
(g89
g70
NtRp4100
(dp4101
g73
(dp4102
g100
g101
ssg82
g4091
sg75
(lp4103
S':'
asbag68
(g89
g70
NtRp4104
(dp4105
g73
(dp4106
sg82
g4091
sg75
(lp4107
g68
(g69
g70
NtRp4108
(dp4109
g73
(dp4110
g81
I4
ssg82
g4104
sg75
(lp4111
S'BBB, votes, challenge'
p4112
asbasbasbasbasbasbasbag68
(g84
g70
NtRp4113
(dp4114
g73
(dp4115
sg82
g3239
sg75
(lp4116
g68
(g89
g70
NtRp4117
(dp4118
g73
(dp4119
g93
g94
ssg82
g4113
sg75
(lp4120
S'postprocessing'
p4121
asbag68
(g89
g70
NtRp4122
(dp4123
g73
(dp4124
g100
g101
ssg82
g4113
sg75
(lp4125
S':'
asbag68
(g89
g70
NtRp4126
(dp4127
g73
(dp4128
sg82
g4113
sg75
(lp4129
g68
(g69
g70
NtRp4130
(dp4131
g73
(dp4132
g81
I5
ssg82
g4126
sg75
(lp4133
g68
(g77
g70
NtRp4134
(dp4135
g73
(dp4136
g81
I4
ssg82
Nsg75
(lp4137
sbasbasbasbag68
(g84
g70
NtRp4138
(dp4139
g73
(dp4140
sg82
g3239
sg75
(lp4141
g68
(g89
g70
NtRp4142
(dp4143
g73
(dp4144
g93
g94
ssg82
g4138
sg75
(lp4145
S'session_file'
p4146
asbag68
(g89
g70
NtRp4147
(dp4148
g73
(dp4149
g100
g101
ssg82
g4138
sg75
(lp4150
S':'
asbag68
(g89
g70
NtRp4151
(dp4152
g73
(dp4153
sg82
g4138
sg75
(lp4154
g68
(g69
g70
NtRp4155
(dp4156
g73
(dp4157
g81
I5
ssg82
g4151
sg75
(lp4158
S"<open file '/home/kaique/Projects/web/big-votes/web2py/applications/bigvotes/sessions/127.0.0.1-72286364-99c3-4aae-95dc-f33a83b4d6f1', mode 'rb+' at 0x9d23f98>"
p4159
asbasbasbag68
(g84
g70
NtRp4160
(dp4161
g73
(dp4162
sg82
g3239
sg75
(lp4163
g68
(g89
g70
NtRp4164
(dp4165
g73
(dp4166
g93
g94
ssg82
g4160
sg75
(lp4167
S'session_filename'
p4168
asbag68
(g89
g70
NtRp4169
(dp4170
g73
(dp4171
g100
g101
ssg82
g4160
sg75
(lp4172
S':'
asbag68
(g89
g70
NtRp4173
(dp4174
g73
(dp4175
sg82
g4160
sg75
(lp4176
g68
(g69
g70
NtRp4177
(dp4178
g73
(dp4179
g81
I5
ssg82
g4173
sg75
(lp4180
S'/home/kaique/Projects/web/big-votes/web2py/applications/bigvotes/sessions/127.0.0.1-72286364-99c3-4aae-95dc-f33a83b4d6f1'
p4181
asbasbasbag68
(g84
g70
NtRp4182
(dp4183
g73
(dp4184
sg82
g3239
sg75
(lp4185
g68
(g89
g70
NtRp4186
(dp4187
g73
(dp4188
g93
g94
ssg82
g4182
sg75
(lp4189
S'session_id'
p4190
asbag68
(g89
g70
NtRp4191
(dp4192
g73
(dp4193
g100
g101
ssg82
g4182
sg75
(lp4194
S':'
asbag68
(g89
g70
NtRp4195
(dp4196
g73
(dp4197
sg82
g4182
sg75
(lp4198
g68
(g69
g70
NtRp4199
(dp4200
g73
(dp4201
g81
I5
ssg82
g4195
sg75
(lp4202
S'127.0.0.1-72286364-99c3-4aae-95dc-f33a83b4d6f1'
p4203
asbasbasbag68
(g84
g70
NtRp4204
(dp4205
g73
(dp4206
sg82
g3239
sg75
(lp4207
g68
(g89
g70
NtRp4208
(dp4209
g73
(dp4210
g93
g94
ssg82
g4204
sg75
(lp4211
S'session_id_name'
p4212
asbag68
(g89
g70
NtRp4213
(dp4214
g73
(dp4215
g100
g101
ssg82
g4204
sg75
(lp4216
S':'
asbag68
(g89
g70
NtRp4217
(dp4218
g73
(dp4219
sg82
g4204
sg75
(lp4220
g68
(g69
g70
NtRp4221
(dp4222
g73
(dp4223
g81
I5
ssg82
g4217
sg75
(lp4224
g3296
asbasbasbag68
(g84
g70
NtRp4225
(dp4226
g73
(dp4227
sg82
g3239
sg75
(lp4228
g68
(g89
g70
NtRp4229
(dp4230
g73
(dp4231
g93
g94
ssg82
g4225
sg75
(lp4232
S'session_locked'
p4233
asbag68
(g89
g70
NtRp4234
(dp4235
g73
(dp4236
g100
g101
ssg82
g4225
sg75
(lp4237
S':'
asbag68
(g89
g70
NtRp4238
(dp4239
g73
(dp4240
sg82
g4225
sg75
(lp4241
g68
(g69
g70
NtRp4242
(dp4243
g73
(dp4244
g81
I5
ssg82
g4238
sg75
(lp4245
g1755
asbasbasbag68
(g84
g70
NtRp4246
(dp4247
g73
(dp4248
sg82
g3239
sg75
(lp4249
g68
(g89
g70
NtRp4250
(dp4251
g73
(dp4252
g93
g94
ssg82
g4246
sg75
(lp4253
S'session_new'
p4254
asbag68
(g89
g70
NtRp4255
(dp4256
g73
(dp4257
g100
g101
ssg82
g4246
sg75
(lp4258
S':'
asbag68
(g89
g70
NtRp4259
(dp4260
g73
(dp4261
sg82
g4246
sg75
(lp4262
g68
(g69
g70
NtRp4263
(dp4264
g73
(dp4265
g81
I5
ssg82
g4259
sg75
(lp4266
g111
asbasbasbag68
(g84
g70
NtRp4267
(dp4268
g73
(dp4269
sg82
g3239
sg75
(lp4270
g68
(g89
g70
NtRp4271
(dp4272
g73
(dp4273
g93
g94
ssg82
g4267
sg75
(lp4274
S'status'
p4275
asbag68
(g89
g70
NtRp4276
(dp4277
g73
(dp4278
g100
g101
ssg82
g4267
sg75
(lp4279
S':'
asbag68
(g89
g70
NtRp4280
(dp4281
g73
(dp4282
sg82
g4267
sg75
(lp4283
g68
(g69
g70
NtRp4284
(dp4285
g73
(dp4286
g81
I5
ssg82
g4280
sg75
(lp4287
S'200'
p4288
asbasbasbag68
(g84
g70
NtRp4289
(dp4290
g73
(dp4291
sg82
g3239
sg75
(lp4292
g68
(g89
g70
NtRp4293
(dp4294
g73
(dp4295
g93
g94
ssg82
g4289
sg75
(lp4296
S'subtitle'
p4297
asbag68
(g89
g70
NtRp4298
(dp4299
g73
(dp4300
g100
g101
ssg82
g4289
sg75
(lp4301
S':'
asbag68
(g89
g70
NtRp4302
(dp4303
g73
(dp4304
sg82
g4289
sg75
(lp4305
g68
(g69
g70
NtRp4306
(dp4307
g73
(dp4308
g81
I5
ssg82
g4302
sg75
(lp4309
S'A simple chanllenge'
p4310
asbasbasbag68
(g84
g70
NtRp4311
(dp4312
g73
(dp4313
sg82
g3239
sg75
(lp4314
g68
(g89
g70
NtRp4315
(dp4316
g73
(dp4317
g93
g94
ssg82
g4311
sg75
(lp4318
S'title'
p4319
asbag68
(g89
g70
NtRp4320
(dp4321
g73
(dp4322
g100
g101
ssg82
g4311
sg75
(lp4323
S':'
asbag68
(g89
g70
NtRp4324
(dp4325
g73
(dp4326
sg82
g4311
sg75
(lp4327
g68
(g69
g70
NtRp4328
(dp4329
g73
(dp4330
g81
I5
ssg82
g4324
sg75
(lp4331
S'Big Votes'
p4332
asbasbasbag68
(g84
g70
NtRp4333
(dp4334
g73
(dp4335
sg82
g3239
sg75
(lp4336
g68
(g89
g70
NtRp4337
(dp4338
g73
(dp4339
g93
g94
ssg82
g4333
sg75
(lp4340
g2441
asbag68
(g89
g70
NtRp4341
(dp4342
g73
(dp4343
g100
g101
ssg82
g4333
sg75
(lp4344
S':'
asbag68
(g89
g70
NtRp4345
(dp4346
g73
(dp4347
sg82
g4333
sg75
(lp4348
g68
(g69
g70
NtRp4349
(dp4350
g73
(dp4351
g81
I5
ssg82
g4345
sg75
(lp4352
g2454
asbasbasbag68
(g84
g70
NtRp4353
(dp4354
g73
(dp4355
sg82
g3239
sg75
(lp4356
g68
(g89
g70
NtRp4357
(dp4358
g73
(dp4359
g93
g94
ssg82
g4353
sg75
(lp4360
S'view'
p4361
asbag68
(g89
g70
NtRp4362
(dp4363
g73
(dp4364
g100
g101
ssg82
g4353
sg75
(lp4365
S':'
asbag68
(g89
g70
NtRp4366
(dp4367
g73
(dp4368
sg82
g4353
sg75
(lp4369
g68
(g69
g70
NtRp4370
(dp4371
g73
(dp4372
g81
I5
ssg82
g4366
sg75
(lp4373
S'vote/index.html'
p4374
asbasbasbasbasbsS'locals'
p4375
(dp4376
g4
S"'/home/kaique/Projects/web/big-votes/web2py/applications/bigvotes/controllers/vote.py'"
p4377
sg6
S"'# -*- coding: utf-8 -*-\\nfrom bigvotes import Vot...():\\n\\tpass\\nresponse._vars=response._caller(index)\\n'"
p4378
sssS'traceback'
p4379
S'Traceback (most recent call last):\n  File "/home/kaique/Projects/web/big-votes/web2py/gluon/restricted.py", line 204, in restricted\n    ccode = compile2(code,layer)\n  File "/home/kaique/Projects/web/big-votes/web2py/gluon/restricted.py", line 189, in compile2\n    return compile(code.rstrip().replace(\'\\r\\n\',\'\\n\')+\'\\n\', layer, \'exec\')\n  File "/home/kaique/Projects/web/big-votes/web2py/applications/bigvotes/controllers/vote.py", line 45\n    else:\n       ^\nSyntaxError: invalid syntax\n'
p4380
s.