(dp1
S'output'
p2
S"<type 'exceptions.SyntaxError'> invalid syntax (member.py, line 16)"
p3
sS'layer'
p4
S'/home/kaique/Projects/web/big-votes/web2py/applications/bigvotes/controllers/member.py'
p5
sS'code'
p6
S"# -*- coding: utf-8 -*-\nfrom bigvotes import Members\n\ndef index():\n\tmembers = Members(db).getBy()\n\n\treturn {\n\t\t'members': members\n\t}\n\ndef profile():\n\targs = request.args\n\n\tif len( args ) > 0:\n\t\tmember = Members(db).getBy( id = int( args[0] ) )\n\t\tmember = member.first() if len( member ) == 1\n\n\treturn {\n\t\t'member': member\n\t}\n\ndef eliminated():\n\tmembers = Members(db).getBy(status = 'deactive')\n\n\treturn {\n\t\t'members': members\n\t}\nresponse._vars=response._caller(profile)\n"
p7
sS'snapshot'
p8
(dp9
S'exception'
p10
(dp11
S'__getslice__'
p12
S"<method-wrapper '__getslice__' of exceptions.SyntaxError object>"
p13
sS'text'
p14
S"'\\t\\tmember = member.first() if len( member ) == 1\\n'"
p15
sS'__str__'
p16
S"<method-wrapper '__str__' of exceptions.SyntaxError object>"
p17
sS'__reduce__'
p18
S'<built-in method __reduce__ of exceptions.SyntaxError object>'
p19
sS'__dict__'
p20
S'{}'
p21
sS'__sizeof__'
p22
S'<built-in method __sizeof__ of exceptions.SyntaxError object>'
p23
sS'__init__'
p24
S"<method-wrapper '__init__' of exceptions.SyntaxError object>"
p25
sS'__setattr__'
p26
S"<method-wrapper '__setattr__' of exceptions.SyntaxError object>"
p27
sS'__reduce_ex__'
p28
S'<built-in method __reduce_ex__ of exceptions.SyntaxError object>'
p29
sS'__new__'
p30
S'<built-in method __new__ of type object>'
p31
sS'__format__'
p32
S'<built-in method __format__ of exceptions.SyntaxError object>'
p33
sS'__class__'
p34
S"<type 'exceptions.SyntaxError'>"
p35
sS'filename'
p36
S"'/home/kaique/Projects/web/big-votes/web2py/applications/bigvotes/controllers/member.py'"
p37
sS'lineno'
p38
S'16'
p39
sS'msg'
p40
S"'invalid syntax'"
p41
sS'__doc__'
p42
S"'Invalid syntax.'"
p43
sS'__getitem__'
p44
S"<method-wrapper '__getitem__' of exceptions.SyntaxError object>"
p45
sS'__setstate__'
p46
S'<built-in method __setstate__ of exceptions.SyntaxError object>'
p47
sS'__getattribute__'
p48
S"<method-wrapper '__getattribute__' of exceptions.SyntaxError object>"
p49
sS'print_file_and_line'
p50
S'None'
p51
sS'args'
p52
S"('invalid syntax', ('/home/kaique/Projects/web/big-votes/web2py/applications/bigvotes/controllers/member.py', 16, 48, '\\t\\tmember = member.first() if len( member ) == 1\\n'))"
p53
sS'__subclasshook__'
p54
S'<built-in method __subclasshook__ of type object>'
p55
sS'offset'
p56
S'48'
p57
sS'__unicode__'
p58
S'<built-in method __unicode__ of exceptions.SyntaxError object>'
p59
sS'__delattr__'
p60
S"<method-wrapper '__delattr__' of exceptions.SyntaxError object>"
p61
sS'__repr__'
p62
S"<method-wrapper '__repr__' of exceptions.SyntaxError object>"
p63
sS'__hash__'
p64
S"<method-wrapper '__hash__' of exceptions.SyntaxError object>"
p65
ssS'evalue'
p66
S'invalid syntax (member.py, line 16)'
p67
sS'request'
p68
ccopy_reg
_reconstructor
p69
(cgluon.html
BEAUTIFY
p70
c__builtin__
object
p71
NtRp72
(dp73
S'attributes'
p74
(dp75
sS'components'
p76
(lp77
g69
(cgluon.html
TABLE
p78
g71
NtRp79
(dp80
g74
(dp81
S'level'
p82
I5
ssS'parent'
p83
Nsg76
(lp84
g69
(cgluon.html
TR
p85
g71
NtRp86
(dp87
g74
(dp88
sg83
g79
sg76
(lp89
g69
(cgluon.html
TD
p90
g71
NtRp91
(dp92
g74
(dp93
S'_style'
p94
S'font-weight:bold;vertical-align:top'
p95
ssg83
g86
sg76
(lp96
S'ajax'
p97
asbag69
(g90
g71
NtRp98
(dp99
g74
(dp100
S'_valign'
p101
S'top'
p102
ssg83
g86
sg76
(lp103
S':'
asbag69
(g90
g71
NtRp104
(dp105
g74
(dp106
sg83
g86
sg76
(lp107
g69
(g70
g71
NtRp108
(dp109
g74
(dp110
g82
I5
ssg83
g104
sg76
(lp111
S'False'
p112
asbasbasbag69
(g85
g71
NtRp113
(dp114
g74
(dp115
sg83
g79
sg76
(lp116
g69
(g90
g71
NtRp117
(dp118
g74
(dp119
g94
g95
ssg83
g113
sg76
(lp120
S'application'
p121
asbag69
(g90
g71
NtRp122
(dp123
g74
(dp124
g101
g102
ssg83
g113
sg76
(lp125
S':'
asbag69
(g90
g71
NtRp126
(dp127
g74
(dp128
sg83
g113
sg76
(lp129
g69
(g70
g71
NtRp130
(dp131
g74
(dp132
g82
I5
ssg83
g126
sg76
(lp133
S'bigvotes'
p134
asbasbasbag69
(g85
g71
NtRp135
(dp136
g74
(dp137
sg83
g79
sg76
(lp138
g69
(g90
g71
NtRp139
(dp140
g74
(dp141
g94
g95
ssg83
g135
sg76
(lp142
g52
asbag69
(g90
g71
NtRp143
(dp144
g74
(dp145
g101
g102
ssg83
g135
sg76
(lp146
S':'
asbag69
(g90
g71
NtRp147
(dp148
g74
(dp149
sg83
g135
sg76
(lp150
g69
(g70
g71
NtRp151
(dp152
g74
(dp153
g82
I5
ssg83
g147
sg76
(lp154
g69
(g78
g71
NtRp155
(dp156
g74
(dp157
g82
I4
ssg83
Nsg76
(lp158
g69
(g85
g71
NtRp159
(dp160
g74
(dp161
sg83
g155
sg76
(lp162
g69
(g90
g71
NtRp163
(dp164
g74
(dp165
sg83
g159
sg76
(lp166
g69
(g70
g71
NtRp167
(dp168
g74
(dp169
g82
I4
ssg83
g163
sg76
(lp170
S'1'
asbasbasbasbasbasbasbag69
(g85
g71
NtRp171
(dp172
g74
(dp173
sg83
g79
sg76
(lp174
g69
(g90
g71
NtRp175
(dp176
g74
(dp177
g94
g95
ssg83
g171
sg76
(lp178
S'body'
p179
asbag69
(g90
g71
NtRp180
(dp181
g74
(dp182
g101
g102
ssg83
g171
sg76
(lp183
S':'
asbag69
(g90
g71
NtRp184
(dp185
g74
(dp186
sg83
g171
sg76
(lp187
g69
(g70
g71
NtRp188
(dp189
g74
(dp190
g82
I5
ssg83
g184
sg76
(lp191
S'<cStringIO.StringO object at 0xb0015140>'
p192
asbasbasbag69
(g85
g71
NtRp193
(dp194
g74
(dp195
sg83
g79
sg76
(lp196
g69
(g90
g71
NtRp197
(dp198
g74
(dp199
g94
g95
ssg83
g193
sg76
(lp200
S'client'
p201
asbag69
(g90
g71
NtRp202
(dp203
g74
(dp204
g101
g102
ssg83
g193
sg76
(lp205
S':'
asbag69
(g90
g71
NtRp206
(dp207
g74
(dp208
sg83
g193
sg76
(lp209
g69
(g70
g71
NtRp210
(dp211
g74
(dp212
g82
I5
ssg83
g206
sg76
(lp213
S'127.0.0.1'
p214
asbasbasbag69
(g85
g71
NtRp215
(dp216
g74
(dp217
sg83
g79
sg76
(lp218
g69
(g90
g71
NtRp219
(dp220
g74
(dp221
g94
g95
ssg83
g215
sg76
(lp222
S'controller'
p223
asbag69
(g90
g71
NtRp224
(dp225
g74
(dp226
g101
g102
ssg83
g215
sg76
(lp227
S':'
asbag69
(g90
g71
NtRp228
(dp229
g74
(dp230
sg83
g215
sg76
(lp231
g69
(g70
g71
NtRp232
(dp233
g74
(dp234
g82
I5
ssg83
g228
sg76
(lp235
S'member'
p236
asbasbasbag69
(g85
g71
NtRp237
(dp238
g74
(dp239
sg83
g79
sg76
(lp240
g69
(g90
g71
NtRp241
(dp242
g74
(dp243
g94
g95
ssg83
g237
sg76
(lp244
S'cookies'
p245
asbag69
(g90
g71
NtRp246
(dp247
g74
(dp248
g101
g102
ssg83
g237
sg76
(lp249
S':'
asbag69
(g90
g71
NtRp250
(dp251
g74
(dp252
sg83
g237
sg76
(lp253
g69
(g70
g71
NtRp254
(dp255
g74
(dp256
g82
I5
ssg83
g250
sg76
(lp257
g69
(g78
g71
NtRp258
(dp259
g74
(dp260
g82
I4
ssg83
Nsg76
(lp261
g69
(g85
g71
NtRp262
(dp263
g74
(dp264
sg83
g258
sg76
(lp265
g69
(g90
g71
NtRp266
(dp267
g74
(dp268
g94
g95
ssg83
g262
sg76
(lp269
S'session_id_admin'
p270
asbag69
(g90
g71
NtRp271
(dp272
g74
(dp273
g101
g102
ssg83
g262
sg76
(lp274
S':'
asbag69
(g90
g71
NtRp275
(dp276
g74
(dp277
sg83
g262
sg76
(lp278
g69
(g70
g71
NtRp279
(dp280
g74
(dp281
g82
I4
ssg83
g275
sg76
(lp282
g69
(g78
g71
NtRp283
(dp284
g74
(dp285
g82
I3
ssg83
Nsg76
(lp286
g69
(g85
g71
NtRp287
(dp288
g74
(dp289
sg83
g283
sg76
(lp290
g69
(g90
g71
NtRp291
(dp292
g74
(dp293
g94
g95
ssg83
g287
sg76
(lp294
S'comment'
p295
asbag69
(g90
g71
NtRp296
(dp297
g74
(dp298
g101
g102
ssg83
g287
sg76
(lp299
S':'
asbag69
(g90
g71
NtRp300
(dp301
g74
(dp302
sg83
g287
sg76
(lp303
g69
(g70
g71
NtRp304
(dp305
g74
(dp306
g82
I3
ssg83
g300
sg76
(lp307
S''
asbasbasbag69
(g85
g71
NtRp308
(dp309
g74
(dp310
sg83
g283
sg76
(lp311
g69
(g90
g71
NtRp312
(dp313
g74
(dp314
g94
g95
ssg83
g308
sg76
(lp315
S'domain'
p316
asbag69
(g90
g71
NtRp317
(dp318
g74
(dp319
g101
g102
ssg83
g308
sg76
(lp320
S':'
asbag69
(g90
g71
NtRp321
(dp322
g74
(dp323
sg83
g308
sg76
(lp324
g69
(g70
g71
NtRp325
(dp326
g74
(dp327
g82
I3
ssg83
g321
sg76
(lp328
S''
asbasbasbag69
(g85
g71
NtRp329
(dp330
g74
(dp331
sg83
g283
sg76
(lp332
g69
(g90
g71
NtRp333
(dp334
g74
(dp335
g94
g95
ssg83
g329
sg76
(lp336
S'expires'
p337
asbag69
(g90
g71
NtRp338
(dp339
g74
(dp340
g101
g102
ssg83
g329
sg76
(lp341
S':'
asbag69
(g90
g71
NtRp342
(dp343
g74
(dp344
sg83
g329
sg76
(lp345
g69
(g70
g71
NtRp346
(dp347
g74
(dp348
g82
I3
ssg83
g342
sg76
(lp349
S''
asbasbasbag69
(g85
g71
NtRp350
(dp351
g74
(dp352
sg83
g283
sg76
(lp353
g69
(g90
g71
NtRp354
(dp355
g74
(dp356
g94
g95
ssg83
g350
sg76
(lp357
S'httponly'
p358
asbag69
(g90
g71
NtRp359
(dp360
g74
(dp361
g101
g102
ssg83
g350
sg76
(lp362
S':'
asbag69
(g90
g71
NtRp363
(dp364
g74
(dp365
sg83
g350
sg76
(lp366
g69
(g70
g71
NtRp367
(dp368
g74
(dp369
g82
I3
ssg83
g363
sg76
(lp370
S''
asbasbasbag69
(g85
g71
NtRp371
(dp372
g74
(dp373
sg83
g283
sg76
(lp374
g69
(g90
g71
NtRp375
(dp376
g74
(dp377
g94
g95
ssg83
g371
sg76
(lp378
S'max-age'
p379
asbag69
(g90
g71
NtRp380
(dp381
g74
(dp382
g101
g102
ssg83
g371
sg76
(lp383
S':'
asbag69
(g90
g71
NtRp384
(dp385
g74
(dp386
sg83
g371
sg76
(lp387
g69
(g70
g71
NtRp388
(dp389
g74
(dp390
g82
I3
ssg83
g384
sg76
(lp391
S''
asbasbasbag69
(g85
g71
NtRp392
(dp393
g74
(dp394
sg83
g283
sg76
(lp395
g69
(g90
g71
NtRp396
(dp397
g74
(dp398
g94
g95
ssg83
g392
sg76
(lp399
S'path'
p400
asbag69
(g90
g71
NtRp401
(dp402
g74
(dp403
g101
g102
ssg83
g392
sg76
(lp404
S':'
asbag69
(g90
g71
NtRp405
(dp406
g74
(dp407
sg83
g392
sg76
(lp408
g69
(g70
g71
NtRp409
(dp410
g74
(dp411
g82
I3
ssg83
g405
sg76
(lp412
S''
asbasbasbag69
(g85
g71
NtRp413
(dp414
g74
(dp415
sg83
g283
sg76
(lp416
g69
(g90
g71
NtRp417
(dp418
g74
(dp419
g94
g95
ssg83
g413
sg76
(lp420
S'secure'
p421
asbag69
(g90
g71
NtRp422
(dp423
g74
(dp424
g101
g102
ssg83
g413
sg76
(lp425
S':'
asbag69
(g90
g71
NtRp426
(dp427
g74
(dp428
sg83
g413
sg76
(lp429
g69
(g70
g71
NtRp430
(dp431
g74
(dp432
g82
I3
ssg83
g426
sg76
(lp433
S''
asbasbasbag69
(g85
g71
NtRp434
(dp435
g74
(dp436
sg83
g283
sg76
(lp437
g69
(g90
g71
NtRp438
(dp439
g74
(dp440
g94
g95
ssg83
g434
sg76
(lp441
S'version'
p442
asbag69
(g90
g71
NtRp443
(dp444
g74
(dp445
g101
g102
ssg83
g434
sg76
(lp446
S':'
asbag69
(g90
g71
NtRp447
(dp448
g74
(dp449
sg83
g434
sg76
(lp450
g69
(g70
g71
NtRp451
(dp452
g74
(dp453
g82
I3
ssg83
g447
sg76
(lp454
S''
asbasbasbasbasbasbasbag69
(g85
g71
NtRp455
(dp456
g74
(dp457
sg83
g258
sg76
(lp458
g69
(g90
g71
NtRp459
(dp460
g74
(dp461
g94
g95
ssg83
g455
sg76
(lp462
S'session_id_bigvotes'
p463
asbag69
(g90
g71
NtRp464
(dp465
g74
(dp466
g101
g102
ssg83
g455
sg76
(lp467
S':'
asbag69
(g90
g71
NtRp468
(dp469
g74
(dp470
sg83
g455
sg76
(lp471
g69
(g70
g71
NtRp472
(dp473
g74
(dp474
g82
I4
ssg83
g468
sg76
(lp475
g69
(g78
g71
NtRp476
(dp477
g74
(dp478
g82
I3
ssg83
Nsg76
(lp479
g69
(g85
g71
NtRp480
(dp481
g74
(dp482
sg83
g476
sg76
(lp483
g69
(g90
g71
NtRp484
(dp485
g74
(dp486
g94
g95
ssg83
g480
sg76
(lp487
g295
asbag69
(g90
g71
NtRp488
(dp489
g74
(dp490
g101
g102
ssg83
g480
sg76
(lp491
S':'
asbag69
(g90
g71
NtRp492
(dp493
g74
(dp494
sg83
g480
sg76
(lp495
g69
(g70
g71
NtRp496
(dp497
g74
(dp498
g82
I3
ssg83
g492
sg76
(lp499
S''
asbasbasbag69
(g85
g71
NtRp500
(dp501
g74
(dp502
sg83
g476
sg76
(lp503
g69
(g90
g71
NtRp504
(dp505
g74
(dp506
g94
g95
ssg83
g500
sg76
(lp507
g316
asbag69
(g90
g71
NtRp508
(dp509
g74
(dp510
g101
g102
ssg83
g500
sg76
(lp511
S':'
asbag69
(g90
g71
NtRp512
(dp513
g74
(dp514
sg83
g500
sg76
(lp515
g69
(g70
g71
NtRp516
(dp517
g74
(dp518
g82
I3
ssg83
g512
sg76
(lp519
S''
asbasbasbag69
(g85
g71
NtRp520
(dp521
g74
(dp522
sg83
g476
sg76
(lp523
g69
(g90
g71
NtRp524
(dp525
g74
(dp526
g94
g95
ssg83
g520
sg76
(lp527
g337
asbag69
(g90
g71
NtRp528
(dp529
g74
(dp530
g101
g102
ssg83
g520
sg76
(lp531
S':'
asbag69
(g90
g71
NtRp532
(dp533
g74
(dp534
sg83
g520
sg76
(lp535
g69
(g70
g71
NtRp536
(dp537
g74
(dp538
g82
I3
ssg83
g532
sg76
(lp539
S''
asbasbasbag69
(g85
g71
NtRp540
(dp541
g74
(dp542
sg83
g476
sg76
(lp543
g69
(g90
g71
NtRp544
(dp545
g74
(dp546
g94
g95
ssg83
g540
sg76
(lp547
g358
asbag69
(g90
g71
NtRp548
(dp549
g74
(dp550
g101
g102
ssg83
g540
sg76
(lp551
S':'
asbag69
(g90
g71
NtRp552
(dp553
g74
(dp554
sg83
g540
sg76
(lp555
g69
(g70
g71
NtRp556
(dp557
g74
(dp558
g82
I3
ssg83
g552
sg76
(lp559
S''
asbasbasbag69
(g85
g71
NtRp560
(dp561
g74
(dp562
sg83
g476
sg76
(lp563
g69
(g90
g71
NtRp564
(dp565
g74
(dp566
g94
g95
ssg83
g560
sg76
(lp567
g379
asbag69
(g90
g71
NtRp568
(dp569
g74
(dp570
g101
g102
ssg83
g560
sg76
(lp571
S':'
asbag69
(g90
g71
NtRp572
(dp573
g74
(dp574
sg83
g560
sg76
(lp575
g69
(g70
g71
NtRp576
(dp577
g74
(dp578
g82
I3
ssg83
g572
sg76
(lp579
S''
asbasbasbag69
(g85
g71
NtRp580
(dp581
g74
(dp582
sg83
g476
sg76
(lp583
g69
(g90
g71
NtRp584
(dp585
g74
(dp586
g94
g95
ssg83
g580
sg76
(lp587
g400
asbag69
(g90
g71
NtRp588
(dp589
g74
(dp590
g101
g102
ssg83
g580
sg76
(lp591
S':'
asbag69
(g90
g71
NtRp592
(dp593
g74
(dp594
sg83
g580
sg76
(lp595
g69
(g70
g71
NtRp596
(dp597
g74
(dp598
g82
I3
ssg83
g592
sg76
(lp599
S''
asbasbasbag69
(g85
g71
NtRp600
(dp601
g74
(dp602
sg83
g476
sg76
(lp603
g69
(g90
g71
NtRp604
(dp605
g74
(dp606
g94
g95
ssg83
g600
sg76
(lp607
g421
asbag69
(g90
g71
NtRp608
(dp609
g74
(dp610
g101
g102
ssg83
g600
sg76
(lp611
S':'
asbag69
(g90
g71
NtRp612
(dp613
g74
(dp614
sg83
g600
sg76
(lp615
g69
(g70
g71
NtRp616
(dp617
g74
(dp618
g82
I3
ssg83
g612
sg76
(lp619
S''
asbasbasbag69
(g85
g71
NtRp620
(dp621
g74
(dp622
sg83
g476
sg76
(lp623
g69
(g90
g71
NtRp624
(dp625
g74
(dp626
g94
g95
ssg83
g620
sg76
(lp627
g442
asbag69
(g90
g71
NtRp628
(dp629
g74
(dp630
g101
g102
ssg83
g620
sg76
(lp631
S':'
asbag69
(g90
g71
NtRp632
(dp633
g74
(dp634
sg83
g620
sg76
(lp635
g69
(g70
g71
NtRp636
(dp637
g74
(dp638
g82
I3
ssg83
g632
sg76
(lp639
S''
asbasbasbasbasbasbasbasbasbasbasbag69
(g85
g71
NtRp640
(dp641
g74
(dp642
sg83
g79
sg76
(lp643
g69
(g90
g71
NtRp644
(dp645
g74
(dp646
g94
g95
ssg83
g640
sg76
(lp647
S'env'
p648
asbag69
(g90
g71
NtRp649
(dp650
g74
(dp651
g101
g102
ssg83
g640
sg76
(lp652
S':'
asbag69
(g90
g71
NtRp653
(dp654
g74
(dp655
sg83
g640
sg76
(lp656
g69
(g70
g71
NtRp657
(dp658
g74
(dp659
g82
I5
ssg83
g653
sg76
(lp660
g69
(g78
g71
NtRp661
(dp662
g74
(dp663
g82
I4
ssg83
Nsg76
(lp664
g69
(g85
g71
NtRp665
(dp666
g74
(dp667
sg83
g661
sg76
(lp668
g69
(g90
g71
NtRp669
(dp670
g74
(dp671
g94
g95
ssg83
g665
sg76
(lp672
S'app_folders'
p673
asbag69
(g90
g71
NtRp674
(dp675
g74
(dp676
g101
g102
ssg83
g665
sg76
(lp677
S':'
asbag69
(g90
g71
NtRp678
(dp679
g74
(dp680
sg83
g665
sg76
(lp681
g69
(g70
g71
NtRp682
(dp683
g74
(dp684
g82
I4
ssg83
g678
sg76
(lp685
S"set(['/home/kaique/Projects/web/big-votes/web2py/applications/bigvotes/', '/home/kaique/Projects/web/big-votes/web2py/applications/admin/'])"
p686
asbasbasbag69
(g85
g71
NtRp687
(dp688
g74
(dp689
sg83
g661
sg76
(lp690
g69
(g90
g71
NtRp691
(dp692
g74
(dp693
g94
g95
ssg83
g687
sg76
(lp694
S'applications_parent'
p695
asbag69
(g90
g71
NtRp696
(dp697
g74
(dp698
g101
g102
ssg83
g687
sg76
(lp699
S':'
asbag69
(g90
g71
NtRp700
(dp701
g74
(dp702
sg83
g687
sg76
(lp703
g69
(g70
g71
NtRp704
(dp705
g74
(dp706
g82
I4
ssg83
g700
sg76
(lp707
S'/home/kaique/Projects/web/big-votes/web2py'
p708
asbasbasbag69
(g85
g71
NtRp709
(dp710
g74
(dp711
sg83
g661
sg76
(lp712
g69
(g90
g71
NtRp713
(dp714
g74
(dp715
g94
g95
ssg83
g709
sg76
(lp716
S'cmd_args'
p717
asbag69
(g90
g71
NtRp718
(dp719
g74
(dp720
g101
g102
ssg83
g709
sg76
(lp721
S':'
asbag69
(g90
g71
NtRp722
(dp723
g74
(dp724
sg83
g709
sg76
(lp725
g69
(g70
g71
NtRp726
(dp727
g74
(dp728
g82
I4
ssg83
g722
sg76
(lp729
g69
(g78
g71
NtRp730
(dp731
g74
(dp732
g82
I3
ssg83
Nsg76
(lp733
sbasbasbasbag69
(g85
g71
NtRp734
(dp735
g74
(dp736
sg83
g661
sg76
(lp737
g69
(g90
g71
NtRp738
(dp739
g74
(dp740
g94
g95
ssg83
g734
sg76
(lp741
S'cmd_options'
p742
asbag69
(g90
g71
NtRp743
(dp744
g74
(dp745
g101
g102
ssg83
g734
sg76
(lp746
S':'
asbag69
(g90
g71
NtRp747
(dp748
g74
(dp749
sg83
g734
sg76
(lp750
g69
(g70
g71
NtRp751
(dp752
g74
(dp753
g82
I4
ssg83
g747
sg76
(lp754
S"<Values at 0x936576c: {'verbose': False, 'ip': '127.0.0.1', 'shutdown_timeout': 5, 'taskbar': False, 'nocron': False, 'pid_filename': 'httpserver.pid', 'maxthreads': None, 'softcron': False, 'server_name': 'main', 'bpython': False, 'nogui': False, 'port': 8000, 'extcron': False, 'debuglevel': 30, 'test': None, 'folder': '/home/kaique/Projects/web/big-votes/web2py', 'config': '', 'import_models': False, 'winservice': '', 'shell': None, 'run': '', 'log_filename': 'httpserver.log', 'args': [''], 'socket_timeout': 5, 'ssl_ca_certificate': None, 'scheduler': None, 'profiler_filename': None, 'ssl_private_key': '', 'password': 'dev', 'request_queue_size': 5, 'ssl_certificate': '', 'cronjob': False, 'numthreads': None, 'quiet': False, 'interfaces': None, 'minthreads': None, 'timeout': 10, 'plain': False, 'nobanner': False}>"
p755
asbasbasbag69
(g85
g71
NtRp756
(dp757
g74
(dp758
sg83
g661
sg76
(lp759
g69
(g90
g71
NtRp760
(dp761
g74
(dp762
g94
g95
ssg83
g756
sg76
(lp763
S'db_sessions'
p764
asbag69
(g90
g71
NtRp765
(dp766
g74
(dp767
g101
g102
ssg83
g756
sg76
(lp768
S':'
asbag69
(g90
g71
NtRp769
(dp770
g74
(dp771
sg83
g756
sg76
(lp772
g69
(g70
g71
NtRp773
(dp774
g74
(dp775
g82
I4
ssg83
g769
sg76
(lp776
S'set([])'
p777
asbasbasbag69
(g85
g71
NtRp778
(dp779
g74
(dp780
sg83
g661
sg76
(lp781
g69
(g90
g71
NtRp782
(dp783
g74
(dp784
g94
g95
ssg83
g778
sg76
(lp785
S'debugging'
p786
asbag69
(g90
g71
NtRp787
(dp788
g74
(dp789
g101
g102
ssg83
g778
sg76
(lp790
S':'
asbag69
(g90
g71
NtRp791
(dp792
g74
(dp793
sg83
g778
sg76
(lp794
g69
(g70
g71
NtRp795
(dp796
g74
(dp797
g82
I4
ssg83
g791
sg76
(lp798
g112
asbasbasbag69
(g85
g71
NtRp799
(dp800
g74
(dp801
sg83
g661
sg76
(lp802
g69
(g90
g71
NtRp803
(dp804
g74
(dp805
g94
g95
ssg83
g799
sg76
(lp806
S'gluon_parent'
p807
asbag69
(g90
g71
NtRp808
(dp809
g74
(dp810
g101
g102
ssg83
g799
sg76
(lp811
S':'
asbag69
(g90
g71
NtRp812
(dp813
g74
(dp814
sg83
g799
sg76
(lp815
g69
(g70
g71
NtRp816
(dp817
g74
(dp818
g82
I4
ssg83
g812
sg76
(lp819
S'/home/kaique/Projects/web/big-votes/web2py'
p820
asbasbasbag69
(g85
g71
NtRp821
(dp822
g74
(dp823
sg83
g661
sg76
(lp824
g69
(g90
g71
NtRp825
(dp826
g74
(dp827
g94
g95
ssg83
g821
sg76
(lp828
S'http_accept'
p829
asbag69
(g90
g71
NtRp830
(dp831
g74
(dp832
g101
g102
ssg83
g821
sg76
(lp833
S':'
asbag69
(g90
g71
NtRp834
(dp835
g74
(dp836
sg83
g821
sg76
(lp837
g69
(g70
g71
NtRp838
(dp839
g74
(dp840
g82
I4
ssg83
g834
sg76
(lp841
S'text/html,application/xhtml+xml,application/xml;q=0.9,*/*;q=0.8'
p842
asbasbasbag69
(g85
g71
NtRp843
(dp844
g74
(dp845
sg83
g661
sg76
(lp846
g69
(g90
g71
NtRp847
(dp848
g74
(dp849
g94
g95
ssg83
g843
sg76
(lp850
S'http_accept_encoding'
p851
asbag69
(g90
g71
NtRp852
(dp853
g74
(dp854
g101
g102
ssg83
g843
sg76
(lp855
S':'
asbag69
(g90
g71
NtRp856
(dp857
g74
(dp858
sg83
g843
sg76
(lp859
g69
(g70
g71
NtRp860
(dp861
g74
(dp862
g82
I4
ssg83
g856
sg76
(lp863
S'gzip, deflate'
p864
asbasbasbag69
(g85
g71
NtRp865
(dp866
g74
(dp867
sg83
g661
sg76
(lp868
g69
(g90
g71
NtRp869
(dp870
g74
(dp871
g94
g95
ssg83
g865
sg76
(lp872
S'http_accept_language'
p873
asbag69
(g90
g71
NtRp874
(dp875
g74
(dp876
g101
g102
ssg83
g865
sg76
(lp877
S':'
asbag69
(g90
g71
NtRp878
(dp879
g74
(dp880
sg83
g865
sg76
(lp881
g69
(g70
g71
NtRp882
(dp883
g74
(dp884
g82
I4
ssg83
g878
sg76
(lp885
S'en-us,en;q=0.5'
p886
asbasbasbag69
(g85
g71
NtRp887
(dp888
g74
(dp889
sg83
g661
sg76
(lp890
g69
(g90
g71
NtRp891
(dp892
g74
(dp893
g94
g95
ssg83
g887
sg76
(lp894
S'http_cache_control'
p895
asbag69
(g90
g71
NtRp896
(dp897
g74
(dp898
g101
g102
ssg83
g887
sg76
(lp899
S':'
asbag69
(g90
g71
NtRp900
(dp901
g74
(dp902
sg83
g887
sg76
(lp903
g69
(g70
g71
NtRp904
(dp905
g74
(dp906
g82
I4
ssg83
g900
sg76
(lp907
S'max-age=0'
p908
asbasbasbag69
(g85
g71
NtRp909
(dp910
g74
(dp911
sg83
g661
sg76
(lp912
g69
(g90
g71
NtRp913
(dp914
g74
(dp915
g94
g95
ssg83
g909
sg76
(lp916
S'http_connection'
p917
asbag69
(g90
g71
NtRp918
(dp919
g74
(dp920
g101
g102
ssg83
g909
sg76
(lp921
S':'
asbag69
(g90
g71
NtRp922
(dp923
g74
(dp924
sg83
g909
sg76
(lp925
g69
(g70
g71
NtRp926
(dp927
g74
(dp928
g82
I4
ssg83
g922
sg76
(lp929
S'keep-alive'
p930
asbasbasbag69
(g85
g71
NtRp931
(dp932
g74
(dp933
sg83
g661
sg76
(lp934
g69
(g90
g71
NtRp935
(dp936
g74
(dp937
g94
g95
ssg83
g931
sg76
(lp938
S'http_cookie'
p939
asbag69
(g90
g71
NtRp940
(dp941
g74
(dp942
g101
g102
ssg83
g931
sg76
(lp943
S':'
asbag69
(g90
g71
NtRp944
(dp945
g74
(dp946
sg83
g931
sg76
(lp947
g69
(g70
g71
NtRp948
(dp949
g74
(dp950
g82
I4
ssg83
g944
sg76
(lp951
S'session_id_admin=127.0.0.1-6e3daacb-3329-41f8-b9f9-d408f21d6ac7; session_id_bigvotes=127.0.0.1-72286364-99c3-4aae-95dc-f33a83b4d6f1'
p952
asbasbasbag69
(g85
g71
NtRp953
(dp954
g74
(dp955
sg83
g661
sg76
(lp956
g69
(g90
g71
NtRp957
(dp958
g74
(dp959
g94
g95
ssg83
g953
sg76
(lp960
S'http_host'
p961
asbag69
(g90
g71
NtRp962
(dp963
g74
(dp964
g101
g102
ssg83
g953
sg76
(lp965
S':'
asbag69
(g90
g71
NtRp966
(dp967
g74
(dp968
sg83
g953
sg76
(lp969
g69
(g70
g71
NtRp970
(dp971
g74
(dp972
g82
I4
ssg83
g966
sg76
(lp973
S'localhost:8000'
p974
asbasbasbag69
(g85
g71
NtRp975
(dp976
g74
(dp977
sg83
g661
sg76
(lp978
g69
(g90
g71
NtRp979
(dp980
g74
(dp981
g94
g95
ssg83
g975
sg76
(lp982
S'http_referer'
p983
asbag69
(g90
g71
NtRp984
(dp985
g74
(dp986
g101
g102
ssg83
g975
sg76
(lp987
S':'
asbag69
(g90
g71
NtRp988
(dp989
g74
(dp990
sg83
g975
sg76
(lp991
g69
(g70
g71
NtRp992
(dp993
g74
(dp994
g82
I4
ssg83
g988
sg76
(lp995
S'http://localhost:8000/bigvotes/member/index'
p996
asbasbasbag69
(g85
g71
NtRp997
(dp998
g74
(dp999
sg83
g661
sg76
(lp1000
g69
(g90
g71
NtRp1001
(dp1002
g74
(dp1003
g94
g95
ssg83
g997
sg76
(lp1004
S'http_user_agent'
p1005
asbag69
(g90
g71
NtRp1006
(dp1007
g74
(dp1008
g101
g102
ssg83
g997
sg76
(lp1009
S':'
asbag69
(g90
g71
NtRp1010
(dp1011
g74
(dp1012
sg83
g997
sg76
(lp1013
g69
(g70
g71
NtRp1014
(dp1015
g74
(dp1016
g82
I4
ssg83
g1010
sg76
(lp1017
S'Mozilla/5.0 (X11; Linux i686; rv:12.0) Gecko/20100101 Firefox/12.0'
p1018
asbasbasbag69
(g85
g71
NtRp1019
(dp1020
g74
(dp1021
sg83
g661
sg76
(lp1022
g69
(g90
g71
NtRp1023
(dp1024
g74
(dp1025
g94
g95
ssg83
g1019
sg76
(lp1026
S'is_jython'
p1027
asbag69
(g90
g71
NtRp1028
(dp1029
g74
(dp1030
g101
g102
ssg83
g1019
sg76
(lp1031
S':'
asbag69
(g90
g71
NtRp1032
(dp1033
g74
(dp1034
sg83
g1019
sg76
(lp1035
g69
(g70
g71
NtRp1036
(dp1037
g74
(dp1038
g82
I4
ssg83
g1032
sg76
(lp1039
g112
asbasbasbag69
(g85
g71
NtRp1040
(dp1041
g74
(dp1042
sg83
g661
sg76
(lp1043
g69
(g90
g71
NtRp1044
(dp1045
g74
(dp1046
g94
g95
ssg83
g1040
sg76
(lp1047
S'is_pypy'
p1048
asbag69
(g90
g71
NtRp1049
(dp1050
g74
(dp1051
g101
g102
ssg83
g1040
sg76
(lp1052
S':'
asbag69
(g90
g71
NtRp1053
(dp1054
g74
(dp1055
sg83
g1040
sg76
(lp1056
g69
(g70
g71
NtRp1057
(dp1058
g74
(dp1059
g82
I4
ssg83
g1053
sg76
(lp1060
g112
asbasbasbag69
(g85
g71
NtRp1061
(dp1062
g74
(dp1063
sg83
g661
sg76
(lp1064
g69
(g90
g71
NtRp1065
(dp1066
g74
(dp1067
g94
g95
ssg83
g1061
sg76
(lp1068
S'path_info'
p1069
asbag69
(g90
g71
NtRp1070
(dp1071
g74
(dp1072
g101
g102
ssg83
g1061
sg76
(lp1073
S':'
asbag69
(g90
g71
NtRp1074
(dp1075
g74
(dp1076
sg83
g1061
sg76
(lp1077
g69
(g70
g71
NtRp1078
(dp1079
g74
(dp1080
g82
I4
ssg83
g1074
sg76
(lp1081
S'/bigvotes/member/profile/1'
p1082
asbasbasbag69
(g85
g71
NtRp1083
(dp1084
g74
(dp1085
sg83
g661
sg76
(lp1086
g69
(g90
g71
NtRp1087
(dp1088
g74
(dp1089
g94
g95
ssg83
g1083
sg76
(lp1090
S'query_string'
p1091
asbag69
(g90
g71
NtRp1092
(dp1093
g74
(dp1094
g101
g102
ssg83
g1083
sg76
(lp1095
S':'
asbag69
(g90
g71
NtRp1096
(dp1097
g74
(dp1098
sg83
g1083
sg76
(lp1099
g69
(g70
g71
NtRp1100
(dp1101
g74
(dp1102
g82
I4
ssg83
g1096
sg76
(lp1103
S''
asbasbasbag69
(g85
g71
NtRp1104
(dp1105
g74
(dp1106
sg83
g661
sg76
(lp1107
g69
(g90
g71
NtRp1108
(dp1109
g74
(dp1110
g94
g95
ssg83
g1104
sg76
(lp1111
S'remote_addr'
p1112
asbag69
(g90
g71
NtRp1113
(dp1114
g74
(dp1115
g101
g102
ssg83
g1104
sg76
(lp1116
S':'
asbag69
(g90
g71
NtRp1117
(dp1118
g74
(dp1119
sg83
g1104
sg76
(lp1120
g69
(g70
g71
NtRp1121
(dp1122
g74
(dp1123
g82
I4
ssg83
g1117
sg76
(lp1124
g214
asbasbasbag69
(g85
g71
NtRp1125
(dp1126
g74
(dp1127
sg83
g661
sg76
(lp1128
g69
(g90
g71
NtRp1129
(dp1130
g74
(dp1131
g94
g95
ssg83
g1125
sg76
(lp1132
S'remote_port'
p1133
asbag69
(g90
g71
NtRp1134
(dp1135
g74
(dp1136
g101
g102
ssg83
g1125
sg76
(lp1137
S':'
asbag69
(g90
g71
NtRp1138
(dp1139
g74
(dp1140
sg83
g1125
sg76
(lp1141
g69
(g70
g71
NtRp1142
(dp1143
g74
(dp1144
g82
I4
ssg83
g1138
sg76
(lp1145
S'35966'
p1146
asbasbasbag69
(g85
g71
NtRp1147
(dp1148
g74
(dp1149
sg83
g661
sg76
(lp1150
g69
(g90
g71
NtRp1151
(dp1152
g74
(dp1153
g94
g95
ssg83
g1147
sg76
(lp1154
S'request_method'
p1155
asbag69
(g90
g71
NtRp1156
(dp1157
g74
(dp1158
g101
g102
ssg83
g1147
sg76
(lp1159
S':'
asbag69
(g90
g71
NtRp1160
(dp1161
g74
(dp1162
sg83
g1147
sg76
(lp1163
g69
(g70
g71
NtRp1164
(dp1165
g74
(dp1166
g82
I4
ssg83
g1160
sg76
(lp1167
S'GET'
p1168
asbasbasbag69
(g85
g71
NtRp1169
(dp1170
g74
(dp1171
sg83
g661
sg76
(lp1172
g69
(g90
g71
NtRp1173
(dp1174
g74
(dp1175
g94
g95
ssg83
g1169
sg76
(lp1176
S'script_name'
p1177
asbag69
(g90
g71
NtRp1178
(dp1179
g74
(dp1180
g101
g102
ssg83
g1169
sg76
(lp1181
S':'
asbag69
(g90
g71
NtRp1182
(dp1183
g74
(dp1184
sg83
g1169
sg76
(lp1185
g69
(g70
g71
NtRp1186
(dp1187
g74
(dp1188
g82
I4
ssg83
g1182
sg76
(lp1189
S''
asbasbasbag69
(g85
g71
NtRp1190
(dp1191
g74
(dp1192
sg83
g661
sg76
(lp1193
g69
(g90
g71
NtRp1194
(dp1195
g74
(dp1196
g94
g95
ssg83
g1190
sg76
(lp1197
S'server_name'
p1198
asbag69
(g90
g71
NtRp1199
(dp1200
g74
(dp1201
g101
g102
ssg83
g1190
sg76
(lp1202
S':'
asbag69
(g90
g71
NtRp1203
(dp1204
g74
(dp1205
sg83
g1190
sg76
(lp1206
g69
(g70
g71
NtRp1207
(dp1208
g74
(dp1209
g82
I4
ssg83
g1203
sg76
(lp1210
S'main'
p1211
asbasbasbag69
(g85
g71
NtRp1212
(dp1213
g74
(dp1214
sg83
g661
sg76
(lp1215
g69
(g90
g71
NtRp1216
(dp1217
g74
(dp1218
g94
g95
ssg83
g1212
sg76
(lp1219
S'server_port'
p1220
asbag69
(g90
g71
NtRp1221
(dp1222
g74
(dp1223
g101
g102
ssg83
g1212
sg76
(lp1224
S':'
asbag69
(g90
g71
NtRp1225
(dp1226
g74
(dp1227
sg83
g1212
sg76
(lp1228
g69
(g70
g71
NtRp1229
(dp1230
g74
(dp1231
g82
I4
ssg83
g1225
sg76
(lp1232
S'8000'
p1233
asbasbasbag69
(g85
g71
NtRp1234
(dp1235
g74
(dp1236
sg83
g661
sg76
(lp1237
g69
(g90
g71
NtRp1238
(dp1239
g74
(dp1240
g94
g95
ssg83
g1234
sg76
(lp1241
S'server_protocol'
p1242
asbag69
(g90
g71
NtRp1243
(dp1244
g74
(dp1245
g101
g102
ssg83
g1234
sg76
(lp1246
S':'
asbag69
(g90
g71
NtRp1247
(dp1248
g74
(dp1249
sg83
g1234
sg76
(lp1250
g69
(g70
g71
NtRp1251
(dp1252
g74
(dp1253
g82
I4
ssg83
g1247
sg76
(lp1254
S'HTTP/1.1'
p1255
asbasbasbag69
(g85
g71
NtRp1256
(dp1257
g74
(dp1258
sg83
g661
sg76
(lp1259
g69
(g90
g71
NtRp1260
(dp1261
g74
(dp1262
g94
g95
ssg83
g1256
sg76
(lp1263
S'server_software'
p1264
asbag69
(g90
g71
NtRp1265
(dp1266
g74
(dp1267
g101
g102
ssg83
g1256
sg76
(lp1268
S':'
asbag69
(g90
g71
NtRp1269
(dp1270
g74
(dp1271
sg83
g1256
sg76
(lp1272
g69
(g70
g71
NtRp1273
(dp1274
g74
(dp1275
g82
I4
ssg83
g1269
sg76
(lp1276
S'Rocket 1.2.4'
p1277
asbasbasbag69
(g85
g71
NtRp1278
(dp1279
g74
(dp1280
sg83
g661
sg76
(lp1281
g69
(g90
g71
NtRp1282
(dp1283
g74
(dp1284
g94
g95
ssg83
g1278
sg76
(lp1285
S'web2py_crontype'
p1286
asbag69
(g90
g71
NtRp1287
(dp1288
g74
(dp1289
g101
g102
ssg83
g1278
sg76
(lp1290
S':'
asbag69
(g90
g71
NtRp1291
(dp1292
g74
(dp1293
sg83
g1278
sg76
(lp1294
g69
(g70
g71
NtRp1295
(dp1296
g74
(dp1297
g82
I4
ssg83
g1291
sg76
(lp1298
S'hard'
p1299
asbasbasbag69
(g85
g71
NtRp1300
(dp1301
g74
(dp1302
sg83
g661
sg76
(lp1303
g69
(g90
g71
NtRp1304
(dp1305
g74
(dp1306
g94
g95
ssg83
g1300
sg76
(lp1307
S'web2py_path'
p1308
asbag69
(g90
g71
NtRp1309
(dp1310
g74
(dp1311
g101
g102
ssg83
g1300
sg76
(lp1312
S':'
asbag69
(g90
g71
NtRp1313
(dp1314
g74
(dp1315
sg83
g1300
sg76
(lp1316
g69
(g70
g71
NtRp1317
(dp1318
g74
(dp1319
g82
I4
ssg83
g1313
sg76
(lp1320
g708
asbasbasbag69
(g85
g71
NtRp1321
(dp1322
g74
(dp1323
sg83
g661
sg76
(lp1324
g69
(g90
g71
NtRp1325
(dp1326
g74
(dp1327
g94
g95
ssg83
g1321
sg76
(lp1328
S'web2py_version'
p1329
asbag69
(g90
g71
NtRp1330
(dp1331
g74
(dp1332
g101
g102
ssg83
g1321
sg76
(lp1333
S':'
asbag69
(g90
g71
NtRp1334
(dp1335
g74
(dp1336
sg83
g1321
sg76
(lp1337
g69
(g70
g71
NtRp1338
(dp1339
g74
(dp1340
g82
I4
ssg83
g1334
sg76
(lp1341
g69
(g78
g71
NtRp1342
(dp1343
g74
(dp1344
g82
I3
ssg83
Nsg76
(lp1345
g69
(g85
g71
NtRp1346
(dp1347
g74
(dp1348
sg83
g1342
sg76
(lp1349
g69
(g90
g71
NtRp1350
(dp1351
g74
(dp1352
sg83
g1346
sg76
(lp1353
g69
(g70
g71
NtRp1354
(dp1355
g74
(dp1356
g82
I3
ssg83
g1350
sg76
(lp1357
S'1'
asbasbasbag69
(g85
g71
NtRp1358
(dp1359
g74
(dp1360
sg83
g1342
sg76
(lp1361
g69
(g90
g71
NtRp1362
(dp1363
g74
(dp1364
sg83
g1358
sg76
(lp1365
g69
(g70
g71
NtRp1366
(dp1367
g74
(dp1368
g82
I3
ssg83
g1362
sg76
(lp1369
S'99'
p1370
asbasbasbag69
(g85
g71
NtRp1371
(dp1372
g74
(dp1373
sg83
g1342
sg76
(lp1374
g69
(g90
g71
NtRp1375
(dp1376
g74
(dp1377
sg83
g1371
sg76
(lp1378
g69
(g70
g71
NtRp1379
(dp1380
g74
(dp1381
g82
I3
ssg83
g1375
sg76
(lp1382
S'7'
asbasbasbag69
(g85
g71
NtRp1383
(dp1384
g74
(dp1385
sg83
g1342
sg76
(lp1386
g69
(g90
g71
NtRp1387
(dp1388
g74
(dp1389
sg83
g1383
sg76
(lp1390
g69
(g70
g71
NtRp1391
(dp1392
g74
(dp1393
g82
I3
ssg83
g1387
sg76
(lp1394
S'datetime.datetime(2012, 3, 4, 22, 12, 8)'
p1395
asbasbasbag69
(g85
g71
NtRp1396
(dp1397
g74
(dp1398
sg83
g1342
sg76
(lp1399
g69
(g90
g71
NtRp1400
(dp1401
g74
(dp1402
sg83
g1396
sg76
(lp1403
g69
(g70
g71
NtRp1404
(dp1405
g74
(dp1406
g82
I3
ssg83
g1400
sg76
(lp1407
S'stable'
p1408
asbasbasbasbasbasbasbag69
(g85
g71
NtRp1409
(dp1410
g74
(dp1411
sg83
g661
sg76
(lp1412
g69
(g90
g71
NtRp1413
(dp1414
g74
(dp1415
g94
g95
ssg83
g1409
sg76
(lp1416
S'wsgi_errors'
p1417
asbag69
(g90
g71
NtRp1418
(dp1419
g74
(dp1420
g101
g102
ssg83
g1409
sg76
(lp1421
S':'
asbag69
(g90
g71
NtRp1422
(dp1423
g74
(dp1424
sg83
g1409
sg76
(lp1425
g69
(g70
g71
NtRp1426
(dp1427
g74
(dp1428
g82
I4
ssg83
g1422
sg76
(lp1429
S"<open file '<stderr>', mode 'w' at 0xb76ed0d0>"
p1430
asbasbasbag69
(g85
g71
NtRp1431
(dp1432
g74
(dp1433
sg83
g661
sg76
(lp1434
g69
(g90
g71
NtRp1435
(dp1436
g74
(dp1437
g94
g95
ssg83
g1431
sg76
(lp1438
S'wsgi_file_wrapper'
p1439
asbag69
(g90
g71
NtRp1440
(dp1441
g74
(dp1442
g101
g102
ssg83
g1431
sg76
(lp1443
S':'
asbag69
(g90
g71
NtRp1444
(dp1445
g74
(dp1446
sg83
g1431
sg76
(lp1447
g69
(g70
g71
NtRp1448
(dp1449
g74
(dp1450
g82
I4
ssg83
g1444
sg76
(lp1451
S'<class wsgiref.util.FileWrapper at 0x9340d7c>'
p1452
asbasbasbag69
(g85
g71
NtRp1453
(dp1454
g74
(dp1455
sg83
g661
sg76
(lp1456
g69
(g90
g71
NtRp1457
(dp1458
g74
(dp1459
g94
g95
ssg83
g1453
sg76
(lp1460
S'wsgi_input'
p1461
asbag69
(g90
g71
NtRp1462
(dp1463
g74
(dp1464
g101
g102
ssg83
g1453
sg76
(lp1465
S':'
asbag69
(g90
g71
NtRp1466
(dp1467
g74
(dp1468
sg83
g1453
sg76
(lp1469
g69
(g70
g71
NtRp1470
(dp1471
g74
(dp1472
g82
I4
ssg83
g1466
sg76
(lp1473
S'<socket._fileobject object at 0xb001bc6c>'
p1474
asbasbasbag69
(g85
g71
NtRp1475
(dp1476
g74
(dp1477
sg83
g661
sg76
(lp1478
g69
(g90
g71
NtRp1479
(dp1480
g74
(dp1481
g94
g95
ssg83
g1475
sg76
(lp1482
S'wsgi_multiprocess'
p1483
asbag69
(g90
g71
NtRp1484
(dp1485
g74
(dp1486
g101
g102
ssg83
g1475
sg76
(lp1487
S':'
asbag69
(g90
g71
NtRp1488
(dp1489
g74
(dp1490
sg83
g1475
sg76
(lp1491
g69
(g70
g71
NtRp1492
(dp1493
g74
(dp1494
g82
I4
ssg83
g1488
sg76
(lp1495
g112
asbasbasbag69
(g85
g71
NtRp1496
(dp1497
g74
(dp1498
sg83
g661
sg76
(lp1499
g69
(g90
g71
NtRp1500
(dp1501
g74
(dp1502
g94
g95
ssg83
g1496
sg76
(lp1503
S'wsgi_multithread'
p1504
asbag69
(g90
g71
NtRp1505
(dp1506
g74
(dp1507
g101
g102
ssg83
g1496
sg76
(lp1508
S':'
asbag69
(g90
g71
NtRp1509
(dp1510
g74
(dp1511
sg83
g1496
sg76
(lp1512
g69
(g70
g71
NtRp1513
(dp1514
g74
(dp1515
g82
I4
ssg83
g1509
sg76
(lp1516
S'True'
p1517
asbasbasbag69
(g85
g71
NtRp1518
(dp1519
g74
(dp1520
sg83
g661
sg76
(lp1521
g69
(g90
g71
NtRp1522
(dp1523
g74
(dp1524
g94
g95
ssg83
g1518
sg76
(lp1525
S'wsgi_run_once'
p1526
asbag69
(g90
g71
NtRp1527
(dp1528
g74
(dp1529
g101
g102
ssg83
g1518
sg76
(lp1530
S':'
asbag69
(g90
g71
NtRp1531
(dp1532
g74
(dp1533
sg83
g1518
sg76
(lp1534
g69
(g70
g71
NtRp1535
(dp1536
g74
(dp1537
g82
I4
ssg83
g1531
sg76
(lp1538
g112
asbasbasbag69
(g85
g71
NtRp1539
(dp1540
g74
(dp1541
sg83
g661
sg76
(lp1542
g69
(g90
g71
NtRp1543
(dp1544
g74
(dp1545
g94
g95
ssg83
g1539
sg76
(lp1546
S'wsgi_url_scheme'
p1547
asbag69
(g90
g71
NtRp1548
(dp1549
g74
(dp1550
g101
g102
ssg83
g1539
sg76
(lp1551
S':'
asbag69
(g90
g71
NtRp1552
(dp1553
g74
(dp1554
sg83
g1539
sg76
(lp1555
g69
(g70
g71
NtRp1556
(dp1557
g74
(dp1558
g82
I4
ssg83
g1552
sg76
(lp1559
S'http'
p1560
asbasbasbag69
(g85
g71
NtRp1561
(dp1562
g74
(dp1563
sg83
g661
sg76
(lp1564
g69
(g90
g71
NtRp1565
(dp1566
g74
(dp1567
g94
g95
ssg83
g1561
sg76
(lp1568
S'wsgi_version'
p1569
asbag69
(g90
g71
NtRp1570
(dp1571
g74
(dp1572
g101
g102
ssg83
g1561
sg76
(lp1573
S':'
asbag69
(g90
g71
NtRp1574
(dp1575
g74
(dp1576
sg83
g1561
sg76
(lp1577
g69
(g70
g71
NtRp1578
(dp1579
g74
(dp1580
g82
I4
ssg83
g1574
sg76
(lp1581
g69
(g78
g71
NtRp1582
(dp1583
g74
(dp1584
g82
I3
ssg83
Nsg76
(lp1585
g69
(g85
g71
NtRp1586
(dp1587
g74
(dp1588
sg83
g1582
sg76
(lp1589
g69
(g90
g71
NtRp1590
(dp1591
g74
(dp1592
sg83
g1586
sg76
(lp1593
g69
(g70
g71
NtRp1594
(dp1595
g74
(dp1596
g82
I3
ssg83
g1590
sg76
(lp1597
S'1'
asbasbasbag69
(g85
g71
NtRp1598
(dp1599
g74
(dp1600
sg83
g1582
sg76
(lp1601
g69
(g90
g71
NtRp1602
(dp1603
g74
(dp1604
sg83
g1598
sg76
(lp1605
g69
(g70
g71
NtRp1606
(dp1607
g74
(dp1608
g82
I3
ssg83
g1602
sg76
(lp1609
S'0'
asbasbasbasbasbasbasbasbasbasbasbag69
(g85
g71
NtRp1610
(dp1611
g74
(dp1612
sg83
g79
sg76
(lp1613
g69
(g90
g71
NtRp1614
(dp1615
g74
(dp1616
g94
g95
ssg83
g1610
sg76
(lp1617
S'extension'
p1618
asbag69
(g90
g71
NtRp1619
(dp1620
g74
(dp1621
g101
g102
ssg83
g1610
sg76
(lp1622
S':'
asbag69
(g90
g71
NtRp1623
(dp1624
g74
(dp1625
sg83
g1610
sg76
(lp1626
g69
(g70
g71
NtRp1627
(dp1628
g74
(dp1629
g82
I5
ssg83
g1623
sg76
(lp1630
S'html'
p1631
asbasbasbag69
(g85
g71
NtRp1632
(dp1633
g74
(dp1634
sg83
g79
sg76
(lp1635
g69
(g90
g71
NtRp1636
(dp1637
g74
(dp1638
g94
g95
ssg83
g1632
sg76
(lp1639
S'folder'
p1640
asbag69
(g90
g71
NtRp1641
(dp1642
g74
(dp1643
g101
g102
ssg83
g1632
sg76
(lp1644
S':'
asbag69
(g90
g71
NtRp1645
(dp1646
g74
(dp1647
sg83
g1632
sg76
(lp1648
g69
(g70
g71
NtRp1649
(dp1650
g74
(dp1651
g82
I5
ssg83
g1645
sg76
(lp1652
S'/home/kaique/Projects/web/big-votes/web2py/applications/bigvotes/'
p1653
asbasbasbag69
(g85
g71
NtRp1654
(dp1655
g74
(dp1656
sg83
g79
sg76
(lp1657
g69
(g90
g71
NtRp1658
(dp1659
g74
(dp1660
g94
g95
ssg83
g1654
sg76
(lp1661
S'function'
p1662
asbag69
(g90
g71
NtRp1663
(dp1664
g74
(dp1665
g101
g102
ssg83
g1654
sg76
(lp1666
S':'
asbag69
(g90
g71
NtRp1667
(dp1668
g74
(dp1669
sg83
g1654
sg76
(lp1670
g69
(g70
g71
NtRp1671
(dp1672
g74
(dp1673
g82
I5
ssg83
g1667
sg76
(lp1674
S'profile'
p1675
asbasbasbag69
(g85
g71
NtRp1676
(dp1677
g74
(dp1678
sg83
g79
sg76
(lp1679
g69
(g90
g71
NtRp1680
(dp1681
g74
(dp1682
g94
g95
ssg83
g1676
sg76
(lp1683
S'get_vars'
p1684
asbag69
(g90
g71
NtRp1685
(dp1686
g74
(dp1687
g101
g102
ssg83
g1676
sg76
(lp1688
S':'
asbag69
(g90
g71
NtRp1689
(dp1690
g74
(dp1691
sg83
g1676
sg76
(lp1692
g69
(g70
g71
NtRp1693
(dp1694
g74
(dp1695
g82
I5
ssg83
g1689
sg76
(lp1696
g69
(g78
g71
NtRp1697
(dp1698
g74
(dp1699
g82
I4
ssg83
Nsg76
(lp1700
sbasbasbasbag69
(g85
g71
NtRp1701
(dp1702
g74
(dp1703
sg83
g79
sg76
(lp1704
g69
(g90
g71
NtRp1705
(dp1706
g74
(dp1707
g94
g95
ssg83
g1701
sg76
(lp1708
S'global_settings'
p1709
asbag69
(g90
g71
NtRp1710
(dp1711
g74
(dp1712
g101
g102
ssg83
g1701
sg76
(lp1713
S':'
asbag69
(g90
g71
NtRp1714
(dp1715
g74
(dp1716
sg83
g1701
sg76
(lp1717
g69
(g70
g71
NtRp1718
(dp1719
g74
(dp1720
g82
I5
ssg83
g1714
sg76
(lp1721
g69
(g78
g71
NtRp1722
(dp1723
g74
(dp1724
g82
I4
ssg83
Nsg76
(lp1725
g69
(g85
g71
NtRp1726
(dp1727
g74
(dp1728
sg83
g1722
sg76
(lp1729
g69
(g90
g71
NtRp1730
(dp1731
g74
(dp1732
g94
g95
ssg83
g1726
sg76
(lp1733
g673
asbag69
(g90
g71
NtRp1734
(dp1735
g74
(dp1736
g101
g102
ssg83
g1726
sg76
(lp1737
S':'
asbag69
(g90
g71
NtRp1738
(dp1739
g74
(dp1740
sg83
g1726
sg76
(lp1741
g69
(g70
g71
NtRp1742
(dp1743
g74
(dp1744
g82
I4
ssg83
g1738
sg76
(lp1745
S"set(['/home/kaique/Projects/web/big-votes/web2py/applications/bigvotes/', '/home/kaique/Projects/web/big-votes/web2py/applications/admin/'])"
p1746
asbasbasbag69
(g85
g71
NtRp1747
(dp1748
g74
(dp1749
sg83
g1722
sg76
(lp1750
g69
(g90
g71
NtRp1751
(dp1752
g74
(dp1753
g94
g95
ssg83
g1747
sg76
(lp1754
g695
asbag69
(g90
g71
NtRp1755
(dp1756
g74
(dp1757
g101
g102
ssg83
g1747
sg76
(lp1758
S':'
asbag69
(g90
g71
NtRp1759
(dp1760
g74
(dp1761
sg83
g1747
sg76
(lp1762
g69
(g70
g71
NtRp1763
(dp1764
g74
(dp1765
g82
I4
ssg83
g1759
sg76
(lp1766
g708
asbasbasbag69
(g85
g71
NtRp1767
(dp1768
g74
(dp1769
sg83
g1722
sg76
(lp1770
g69
(g90
g71
NtRp1771
(dp1772
g74
(dp1773
g94
g95
ssg83
g1767
sg76
(lp1774
g717
asbag69
(g90
g71
NtRp1775
(dp1776
g74
(dp1777
g101
g102
ssg83
g1767
sg76
(lp1778
S':'
asbag69
(g90
g71
NtRp1779
(dp1780
g74
(dp1781
sg83
g1767
sg76
(lp1782
g69
(g70
g71
NtRp1783
(dp1784
g74
(dp1785
g82
I4
ssg83
g1779
sg76
(lp1786
g69
(g78
g71
NtRp1787
(dp1788
g74
(dp1789
g82
I3
ssg83
Nsg76
(lp1790
sbasbasbasbag69
(g85
g71
NtRp1791
(dp1792
g74
(dp1793
sg83
g1722
sg76
(lp1794
g69
(g90
g71
NtRp1795
(dp1796
g74
(dp1797
g94
g95
ssg83
g1791
sg76
(lp1798
g742
asbag69
(g90
g71
NtRp1799
(dp1800
g74
(dp1801
g101
g102
ssg83
g1791
sg76
(lp1802
S':'
asbag69
(g90
g71
NtRp1803
(dp1804
g74
(dp1805
sg83
g1791
sg76
(lp1806
g69
(g70
g71
NtRp1807
(dp1808
g74
(dp1809
g82
I4
ssg83
g1803
sg76
(lp1810
S"<Values at 0x936576c: {'verbose': False, 'ip': '127.0.0.1', 'shutdown_timeout': 5, 'taskbar': False, 'nocron': False, 'pid_filename': 'httpserver.pid', 'maxthreads': None, 'softcron': False, 'server_name': 'main', 'bpython': False, 'nogui': False, 'port': 8000, 'extcron': False, 'debuglevel': 30, 'test': None, 'folder': '/home/kaique/Projects/web/big-votes/web2py', 'config': '', 'import_models': False, 'winservice': '', 'shell': None, 'run': '', 'log_filename': 'httpserver.log', 'args': [''], 'socket_timeout': 5, 'ssl_ca_certificate': None, 'scheduler': None, 'profiler_filename': None, 'ssl_private_key': '', 'password': 'dev', 'request_queue_size': 5, 'ssl_certificate': '', 'cronjob': False, 'numthreads': None, 'quiet': False, 'interfaces': None, 'minthreads': None, 'timeout': 10, 'plain': False, 'nobanner': False}>"
p1811
asbasbasbag69
(g85
g71
NtRp1812
(dp1813
g74
(dp1814
sg83
g1722
sg76
(lp1815
g69
(g90
g71
NtRp1816
(dp1817
g74
(dp1818
g94
g95
ssg83
g1812
sg76
(lp1819
g764
asbag69
(g90
g71
NtRp1820
(dp1821
g74
(dp1822
g101
g102
ssg83
g1812
sg76
(lp1823
S':'
asbag69
(g90
g71
NtRp1824
(dp1825
g74
(dp1826
sg83
g1812
sg76
(lp1827
g69
(g70
g71
NtRp1828
(dp1829
g74
(dp1830
g82
I4
ssg83
g1824
sg76
(lp1831
S'set([])'
p1832
asbasbasbag69
(g85
g71
NtRp1833
(dp1834
g74
(dp1835
sg83
g1722
sg76
(lp1836
g69
(g90
g71
NtRp1837
(dp1838
g74
(dp1839
g94
g95
ssg83
g1833
sg76
(lp1840
g786
asbag69
(g90
g71
NtRp1841
(dp1842
g74
(dp1843
g101
g102
ssg83
g1833
sg76
(lp1844
S':'
asbag69
(g90
g71
NtRp1845
(dp1846
g74
(dp1847
sg83
g1833
sg76
(lp1848
g69
(g70
g71
NtRp1849
(dp1850
g74
(dp1851
g82
I4
ssg83
g1845
sg76
(lp1852
g112
asbasbasbag69
(g85
g71
NtRp1853
(dp1854
g74
(dp1855
sg83
g1722
sg76
(lp1856
g69
(g90
g71
NtRp1857
(dp1858
g74
(dp1859
g94
g95
ssg83
g1853
sg76
(lp1860
g807
asbag69
(g90
g71
NtRp1861
(dp1862
g74
(dp1863
g101
g102
ssg83
g1853
sg76
(lp1864
S':'
asbag69
(g90
g71
NtRp1865
(dp1866
g74
(dp1867
sg83
g1853
sg76
(lp1868
g69
(g70
g71
NtRp1869
(dp1870
g74
(dp1871
g82
I4
ssg83
g1865
sg76
(lp1872
g820
asbasbasbag69
(g85
g71
NtRp1873
(dp1874
g74
(dp1875
sg83
g1722
sg76
(lp1876
g69
(g90
g71
NtRp1877
(dp1878
g74
(dp1879
g94
g95
ssg83
g1873
sg76
(lp1880
g1027
asbag69
(g90
g71
NtRp1881
(dp1882
g74
(dp1883
g101
g102
ssg83
g1873
sg76
(lp1884
S':'
asbag69
(g90
g71
NtRp1885
(dp1886
g74
(dp1887
sg83
g1873
sg76
(lp1888
g69
(g70
g71
NtRp1889
(dp1890
g74
(dp1891
g82
I4
ssg83
g1885
sg76
(lp1892
g112
asbasbasbag69
(g85
g71
NtRp1893
(dp1894
g74
(dp1895
sg83
g1722
sg76
(lp1896
g69
(g90
g71
NtRp1897
(dp1898
g74
(dp1899
g94
g95
ssg83
g1893
sg76
(lp1900
g1048
asbag69
(g90
g71
NtRp1901
(dp1902
g74
(dp1903
g101
g102
ssg83
g1893
sg76
(lp1904
S':'
asbag69
(g90
g71
NtRp1905
(dp1906
g74
(dp1907
sg83
g1893
sg76
(lp1908
g69
(g70
g71
NtRp1909
(dp1910
g74
(dp1911
g82
I4
ssg83
g1905
sg76
(lp1912
g112
asbasbasbag69
(g85
g71
NtRp1913
(dp1914
g74
(dp1915
sg83
g1722
sg76
(lp1916
g69
(g90
g71
NtRp1917
(dp1918
g74
(dp1919
g94
g95
ssg83
g1913
sg76
(lp1920
g1286
asbag69
(g90
g71
NtRp1921
(dp1922
g74
(dp1923
g101
g102
ssg83
g1913
sg76
(lp1924
S':'
asbag69
(g90
g71
NtRp1925
(dp1926
g74
(dp1927
sg83
g1913
sg76
(lp1928
g69
(g70
g71
NtRp1929
(dp1930
g74
(dp1931
g82
I4
ssg83
g1925
sg76
(lp1932
g1299
asbasbasbag69
(g85
g71
NtRp1933
(dp1934
g74
(dp1935
sg83
g1722
sg76
(lp1936
g69
(g90
g71
NtRp1937
(dp1938
g74
(dp1939
g94
g95
ssg83
g1933
sg76
(lp1940
g1329
asbag69
(g90
g71
NtRp1941
(dp1942
g74
(dp1943
g101
g102
ssg83
g1933
sg76
(lp1944
S':'
asbag69
(g90
g71
NtRp1945
(dp1946
g74
(dp1947
sg83
g1933
sg76
(lp1948
g69
(g70
g71
NtRp1949
(dp1950
g74
(dp1951
g82
I4
ssg83
g1945
sg76
(lp1952
g69
(g78
g71
NtRp1953
(dp1954
g74
(dp1955
g82
I3
ssg83
Nsg76
(lp1956
g69
(g85
g71
NtRp1957
(dp1958
g74
(dp1959
sg83
g1953
sg76
(lp1960
g69
(g90
g71
NtRp1961
(dp1962
g74
(dp1963
sg83
g1957
sg76
(lp1964
g69
(g70
g71
NtRp1965
(dp1966
g74
(dp1967
g82
I3
ssg83
g1961
sg76
(lp1968
S'1'
asbasbasbag69
(g85
g71
NtRp1969
(dp1970
g74
(dp1971
sg83
g1953
sg76
(lp1972
g69
(g90
g71
NtRp1973
(dp1974
g74
(dp1975
sg83
g1969
sg76
(lp1976
g69
(g70
g71
NtRp1977
(dp1978
g74
(dp1979
g82
I3
ssg83
g1973
sg76
(lp1980
S'99'
p1981
asbasbasbag69
(g85
g71
NtRp1982
(dp1983
g74
(dp1984
sg83
g1953
sg76
(lp1985
g69
(g90
g71
NtRp1986
(dp1987
g74
(dp1988
sg83
g1982
sg76
(lp1989
g69
(g70
g71
NtRp1990
(dp1991
g74
(dp1992
g82
I3
ssg83
g1986
sg76
(lp1993
S'7'
asbasbasbag69
(g85
g71
NtRp1994
(dp1995
g74
(dp1996
sg83
g1953
sg76
(lp1997
g69
(g90
g71
NtRp1998
(dp1999
g74
(dp2000
sg83
g1994
sg76
(lp2001
g69
(g70
g71
NtRp2002
(dp2003
g74
(dp2004
g82
I3
ssg83
g1998
sg76
(lp2005
S'datetime.datetime(2012, 3, 4, 22, 12, 8)'
p2006
asbasbasbag69
(g85
g71
NtRp2007
(dp2008
g74
(dp2009
sg83
g1953
sg76
(lp2010
g69
(g90
g71
NtRp2011
(dp2012
g74
(dp2013
sg83
g2007
sg76
(lp2014
g69
(g70
g71
NtRp2015
(dp2016
g74
(dp2017
g82
I3
ssg83
g2011
sg76
(lp2018
g1408
asbasbasbasbasbasbasbasbasbasbasbag69
(g85
g71
NtRp2019
(dp2020
g74
(dp2021
sg83
g79
sg76
(lp2022
g69
(g90
g71
NtRp2023
(dp2024
g74
(dp2025
g94
g95
ssg83
g2019
sg76
(lp2026
S'is_https'
p2027
asbag69
(g90
g71
NtRp2028
(dp2029
g74
(dp2030
g101
g102
ssg83
g2019
sg76
(lp2031
S':'
asbag69
(g90
g71
NtRp2032
(dp2033
g74
(dp2034
sg83
g2019
sg76
(lp2035
g69
(g70
g71
NtRp2036
(dp2037
g74
(dp2038
g82
I5
ssg83
g2032
sg76
(lp2039
g112
asbasbasbag69
(g85
g71
NtRp2040
(dp2041
g74
(dp2042
sg83
g79
sg76
(lp2043
g69
(g90
g71
NtRp2044
(dp2045
g74
(dp2046
g94
g95
ssg83
g2040
sg76
(lp2047
S'is_local'
p2048
asbag69
(g90
g71
NtRp2049
(dp2050
g74
(dp2051
g101
g102
ssg83
g2040
sg76
(lp2052
S':'
asbag69
(g90
g71
NtRp2053
(dp2054
g74
(dp2055
sg83
g2040
sg76
(lp2056
g69
(g70
g71
NtRp2057
(dp2058
g74
(dp2059
g82
I5
ssg83
g2053
sg76
(lp2060
g1517
asbasbasbag69
(g85
g71
NtRp2061
(dp2062
g74
(dp2063
sg83
g79
sg76
(lp2064
g69
(g90
g71
NtRp2065
(dp2066
g74
(dp2067
g94
g95
ssg83
g2061
sg76
(lp2068
S'is_restful'
p2069
asbag69
(g90
g71
NtRp2070
(dp2071
g74
(dp2072
g101
g102
ssg83
g2061
sg76
(lp2073
S':'
asbag69
(g90
g71
NtRp2074
(dp2075
g74
(dp2076
sg83
g2061
sg76
(lp2077
g69
(g70
g71
NtRp2078
(dp2079
g74
(dp2080
g82
I5
ssg83
g2074
sg76
(lp2081
g112
asbasbasbag69
(g85
g71
NtRp2082
(dp2083
g74
(dp2084
sg83
g79
sg76
(lp2085
g69
(g90
g71
NtRp2086
(dp2087
g74
(dp2088
g94
g95
ssg83
g2082
sg76
(lp2089
S'now'
p2090
asbag69
(g90
g71
NtRp2091
(dp2092
g74
(dp2093
g101
g102
ssg83
g2082
sg76
(lp2094
S':'
asbag69
(g90
g71
NtRp2095
(dp2096
g74
(dp2097
sg83
g2082
sg76
(lp2098
g69
(g70
g71
NtRp2099
(dp2100
g74
(dp2101
g82
I5
ssg83
g2095
sg76
(lp2102
S'datetime.datetime(2012, 5, 20, 19, 42, 28, 960213)'
p2103
asbasbasbag69
(g85
g71
NtRp2104
(dp2105
g74
(dp2106
sg83
g79
sg76
(lp2107
g69
(g90
g71
NtRp2108
(dp2109
g74
(dp2110
g94
g95
ssg83
g2104
sg76
(lp2111
S'post_vars'
p2112
asbag69
(g90
g71
NtRp2113
(dp2114
g74
(dp2115
g101
g102
ssg83
g2104
sg76
(lp2116
S':'
asbag69
(g90
g71
NtRp2117
(dp2118
g74
(dp2119
sg83
g2104
sg76
(lp2120
g69
(g70
g71
NtRp2121
(dp2122
g74
(dp2123
g82
I5
ssg83
g2117
sg76
(lp2124
g69
(g78
g71
NtRp2125
(dp2126
g74
(dp2127
g82
I4
ssg83
Nsg76
(lp2128
sbasbasbasbag69
(g85
g71
NtRp2129
(dp2130
g74
(dp2131
sg83
g79
sg76
(lp2132
g69
(g90
g71
NtRp2133
(dp2134
g74
(dp2135
g94
g95
ssg83
g2129
sg76
(lp2136
S'raw_args'
p2137
asbag69
(g90
g71
NtRp2138
(dp2139
g74
(dp2140
g101
g102
ssg83
g2129
sg76
(lp2141
S':'
asbag69
(g90
g71
NtRp2142
(dp2143
g74
(dp2144
sg83
g2129
sg76
(lp2145
g69
(g70
g71
NtRp2146
(dp2147
g74
(dp2148
g82
I5
ssg83
g2142
sg76
(lp2149
S'1'
asbasbasbag69
(g85
g71
NtRp2150
(dp2151
g74
(dp2152
sg83
g79
sg76
(lp2153
g69
(g90
g71
NtRp2154
(dp2155
g74
(dp2156
g94
g95
ssg83
g2150
sg76
(lp2157
S'url'
p2158
asbag69
(g90
g71
NtRp2159
(dp2160
g74
(dp2161
g101
g102
ssg83
g2150
sg76
(lp2162
S':'
asbag69
(g90
g71
NtRp2163
(dp2164
g74
(dp2165
sg83
g2150
sg76
(lp2166
g69
(g70
g71
NtRp2167
(dp2168
g74
(dp2169
g82
I5
ssg83
g2163
sg76
(lp2170
S'/bigvotes/member/profile/1'
p2171
asbasbasbag69
(g85
g71
NtRp2172
(dp2173
g74
(dp2174
sg83
g79
sg76
(lp2175
g69
(g90
g71
NtRp2176
(dp2177
g74
(dp2178
g94
g95
ssg83
g2172
sg76
(lp2179
S'utcnow'
p2180
asbag69
(g90
g71
NtRp2181
(dp2182
g74
(dp2183
g101
g102
ssg83
g2172
sg76
(lp2184
S':'
asbag69
(g90
g71
NtRp2185
(dp2186
g74
(dp2187
sg83
g2172
sg76
(lp2188
g69
(g70
g71
NtRp2189
(dp2190
g74
(dp2191
g82
I5
ssg83
g2185
sg76
(lp2192
S'datetime.datetime(2012, 5, 20, 22, 42, 28, 960243)'
p2193
asbasbasbag69
(g85
g71
NtRp2194
(dp2195
g74
(dp2196
sg83
g79
sg76
(lp2197
g69
(g90
g71
NtRp2198
(dp2199
g74
(dp2200
g94
g95
ssg83
g2194
sg76
(lp2201
S'uuid'
p2202
asbag69
(g90
g71
NtRp2203
(dp2204
g74
(dp2205
g101
g102
ssg83
g2194
sg76
(lp2206
S':'
asbag69
(g90
g71
NtRp2207
(dp2208
g74
(dp2209
sg83
g2194
sg76
(lp2210
g69
(g70
g71
NtRp2211
(dp2212
g74
(dp2213
g82
I5
ssg83
g2207
sg76
(lp2214
S'bigvotes/127.0.0.1.2012-05-20.19-42-28.e48aa867-821d-4e64-9929-45f28f6b7407'
p2215
asbasbasbag69
(g85
g71
NtRp2216
(dp2217
g74
(dp2218
sg83
g79
sg76
(lp2219
g69
(g90
g71
NtRp2220
(dp2221
g74
(dp2222
g94
g95
ssg83
g2216
sg76
(lp2223
S'vars'
p2224
asbag69
(g90
g71
NtRp2225
(dp2226
g74
(dp2227
g101
g102
ssg83
g2216
sg76
(lp2228
S':'
asbag69
(g90
g71
NtRp2229
(dp2230
g74
(dp2231
sg83
g2216
sg76
(lp2232
g69
(g70
g71
NtRp2233
(dp2234
g74
(dp2235
g82
I5
ssg83
g2229
sg76
(lp2236
g69
(g78
g71
NtRp2237
(dp2238
g74
(dp2239
g82
I4
ssg83
Nsg76
(lp2240
sbasbasbasbag69
(g85
g71
NtRp2241
(dp2242
g74
(dp2243
sg83
g79
sg76
(lp2244
g69
(g90
g71
NtRp2245
(dp2246
g74
(dp2247
g94
g95
ssg83
g2241
sg76
(lp2248
S'wsgi'
p2249
asbag69
(g90
g71
NtRp2250
(dp2251
g74
(dp2252
g101
g102
ssg83
g2241
sg76
(lp2253
S':'
asbag69
(g90
g71
NtRp2254
(dp2255
g74
(dp2256
sg83
g2241
sg76
(lp2257
g69
(g70
g71
NtRp2258
(dp2259
g74
(dp2260
g82
I5
ssg83
g2254
sg76
(lp2261
g69
(g78
g71
NtRp2262
(dp2263
g74
(dp2264
g82
I4
ssg83
Nsg76
(lp2265
g69
(g85
g71
NtRp2266
(dp2267
g74
(dp2268
sg83
g2262
sg76
(lp2269
g69
(g90
g71
NtRp2270
(dp2271
g74
(dp2272
g94
g95
ssg83
g2266
sg76
(lp2273
S'environ'
p2274
asbag69
(g90
g71
NtRp2275
(dp2276
g74
(dp2277
g101
g102
ssg83
g2266
sg76
(lp2278
S':'
asbag69
(g90
g71
NtRp2279
(dp2280
g74
(dp2281
sg83
g2266
sg76
(lp2282
g69
(g70
g71
NtRp2283
(dp2284
g74
(dp2285
g82
I4
ssg83
g2279
sg76
(lp2286
g69
(g78
g71
NtRp2287
(dp2288
g74
(dp2289
g82
I3
ssg83
Nsg76
(lp2290
g69
(g85
g71
NtRp2291
(dp2292
g74
(dp2293
sg83
g2287
sg76
(lp2294
g69
(g90
g71
NtRp2295
(dp2296
g74
(dp2297
g94
g95
ssg83
g2291
sg76
(lp2298
S'HTTP_ACCEPT'
p2299
asbag69
(g90
g71
NtRp2300
(dp2301
g74
(dp2302
g101
g102
ssg83
g2291
sg76
(lp2303
S':'
asbag69
(g90
g71
NtRp2304
(dp2305
g74
(dp2306
sg83
g2291
sg76
(lp2307
g69
(g70
g71
NtRp2308
(dp2309
g74
(dp2310
g82
I3
ssg83
g2304
sg76
(lp2311
g842
asbasbasbag69
(g85
g71
NtRp2312
(dp2313
g74
(dp2314
sg83
g2287
sg76
(lp2315
g69
(g90
g71
NtRp2316
(dp2317
g74
(dp2318
g94
g95
ssg83
g2312
sg76
(lp2319
S'HTTP_ACCEPT_ENCODING'
p2320
asbag69
(g90
g71
NtRp2321
(dp2322
g74
(dp2323
g101
g102
ssg83
g2312
sg76
(lp2324
S':'
asbag69
(g90
g71
NtRp2325
(dp2326
g74
(dp2327
sg83
g2312
sg76
(lp2328
g69
(g70
g71
NtRp2329
(dp2330
g74
(dp2331
g82
I3
ssg83
g2325
sg76
(lp2332
g864
asbasbasbag69
(g85
g71
NtRp2333
(dp2334
g74
(dp2335
sg83
g2287
sg76
(lp2336
g69
(g90
g71
NtRp2337
(dp2338
g74
(dp2339
g94
g95
ssg83
g2333
sg76
(lp2340
S'HTTP_ACCEPT_LANGUAGE'
p2341
asbag69
(g90
g71
NtRp2342
(dp2343
g74
(dp2344
g101
g102
ssg83
g2333
sg76
(lp2345
S':'
asbag69
(g90
g71
NtRp2346
(dp2347
g74
(dp2348
sg83
g2333
sg76
(lp2349
g69
(g70
g71
NtRp2350
(dp2351
g74
(dp2352
g82
I3
ssg83
g2346
sg76
(lp2353
g886
asbasbasbag69
(g85
g71
NtRp2354
(dp2355
g74
(dp2356
sg83
g2287
sg76
(lp2357
g69
(g90
g71
NtRp2358
(dp2359
g74
(dp2360
g94
g95
ssg83
g2354
sg76
(lp2361
S'HTTP_CACHE_CONTROL'
p2362
asbag69
(g90
g71
NtRp2363
(dp2364
g74
(dp2365
g101
g102
ssg83
g2354
sg76
(lp2366
S':'
asbag69
(g90
g71
NtRp2367
(dp2368
g74
(dp2369
sg83
g2354
sg76
(lp2370
g69
(g70
g71
NtRp2371
(dp2372
g74
(dp2373
g82
I3
ssg83
g2367
sg76
(lp2374
g908
asbasbasbag69
(g85
g71
NtRp2375
(dp2376
g74
(dp2377
sg83
g2287
sg76
(lp2378
g69
(g90
g71
NtRp2379
(dp2380
g74
(dp2381
g94
g95
ssg83
g2375
sg76
(lp2382
S'HTTP_CONNECTION'
p2383
asbag69
(g90
g71
NtRp2384
(dp2385
g74
(dp2386
g101
g102
ssg83
g2375
sg76
(lp2387
S':'
asbag69
(g90
g71
NtRp2388
(dp2389
g74
(dp2390
sg83
g2375
sg76
(lp2391
g69
(g70
g71
NtRp2392
(dp2393
g74
(dp2394
g82
I3
ssg83
g2388
sg76
(lp2395
g930
asbasbasbag69
(g85
g71
NtRp2396
(dp2397
g74
(dp2398
sg83
g2287
sg76
(lp2399
g69
(g90
g71
NtRp2400
(dp2401
g74
(dp2402
g94
g95
ssg83
g2396
sg76
(lp2403
S'HTTP_COOKIE'
p2404
asbag69
(g90
g71
NtRp2405
(dp2406
g74
(dp2407
g101
g102
ssg83
g2396
sg76
(lp2408
S':'
asbag69
(g90
g71
NtRp2409
(dp2410
g74
(dp2411
sg83
g2396
sg76
(lp2412
g69
(g70
g71
NtRp2413
(dp2414
g74
(dp2415
g82
I3
ssg83
g2409
sg76
(lp2416
g952
asbasbasbag69
(g85
g71
NtRp2417
(dp2418
g74
(dp2419
sg83
g2287
sg76
(lp2420
g69
(g90
g71
NtRp2421
(dp2422
g74
(dp2423
g94
g95
ssg83
g2417
sg76
(lp2424
S'HTTP_HOST'
p2425
asbag69
(g90
g71
NtRp2426
(dp2427
g74
(dp2428
g101
g102
ssg83
g2417
sg76
(lp2429
S':'
asbag69
(g90
g71
NtRp2430
(dp2431
g74
(dp2432
sg83
g2417
sg76
(lp2433
g69
(g70
g71
NtRp2434
(dp2435
g74
(dp2436
g82
I3
ssg83
g2430
sg76
(lp2437
g974
asbasbasbag69
(g85
g71
NtRp2438
(dp2439
g74
(dp2440
sg83
g2287
sg76
(lp2441
g69
(g90
g71
NtRp2442
(dp2443
g74
(dp2444
g94
g95
ssg83
g2438
sg76
(lp2445
S'HTTP_REFERER'
p2446
asbag69
(g90
g71
NtRp2447
(dp2448
g74
(dp2449
g101
g102
ssg83
g2438
sg76
(lp2450
S':'
asbag69
(g90
g71
NtRp2451
(dp2452
g74
(dp2453
sg83
g2438
sg76
(lp2454
g69
(g70
g71
NtRp2455
(dp2456
g74
(dp2457
g82
I3
ssg83
g2451
sg76
(lp2458
g996
asbasbasbag69
(g85
g71
NtRp2459
(dp2460
g74
(dp2461
sg83
g2287
sg76
(lp2462
g69
(g90
g71
NtRp2463
(dp2464
g74
(dp2465
g94
g95
ssg83
g2459
sg76
(lp2466
S'HTTP_USER_AGENT'
p2467
asbag69
(g90
g71
NtRp2468
(dp2469
g74
(dp2470
g101
g102
ssg83
g2459
sg76
(lp2471
S':'
asbag69
(g90
g71
NtRp2472
(dp2473
g74
(dp2474
sg83
g2459
sg76
(lp2475
g69
(g70
g71
NtRp2476
(dp2477
g74
(dp2478
g82
I3
ssg83
g2472
sg76
(lp2479
g1018
asbasbasbag69
(g85
g71
NtRp2480
(dp2481
g74
(dp2482
sg83
g2287
sg76
(lp2483
g69
(g90
g71
NtRp2484
(dp2485
g74
(dp2486
g94
g95
ssg83
g2480
sg76
(lp2487
S'PATH_INFO'
p2488
asbag69
(g90
g71
NtRp2489
(dp2490
g74
(dp2491
g101
g102
ssg83
g2480
sg76
(lp2492
S':'
asbag69
(g90
g71
NtRp2493
(dp2494
g74
(dp2495
sg83
g2480
sg76
(lp2496
g69
(g70
g71
NtRp2497
(dp2498
g74
(dp2499
g82
I3
ssg83
g2493
sg76
(lp2500
g1082
asbasbasbag69
(g85
g71
NtRp2501
(dp2502
g74
(dp2503
sg83
g2287
sg76
(lp2504
g69
(g90
g71
NtRp2505
(dp2506
g74
(dp2507
g94
g95
ssg83
g2501
sg76
(lp2508
S'QUERY_STRING'
p2509
asbag69
(g90
g71
NtRp2510
(dp2511
g74
(dp2512
g101
g102
ssg83
g2501
sg76
(lp2513
S':'
asbag69
(g90
g71
NtRp2514
(dp2515
g74
(dp2516
sg83
g2501
sg76
(lp2517
g69
(g70
g71
NtRp2518
(dp2519
g74
(dp2520
g82
I3
ssg83
g2514
sg76
(lp2521
S''
asbasbasbag69
(g85
g71
NtRp2522
(dp2523
g74
(dp2524
sg83
g2287
sg76
(lp2525
g69
(g90
g71
NtRp2526
(dp2527
g74
(dp2528
g94
g95
ssg83
g2522
sg76
(lp2529
S'REMOTE_ADDR'
p2530
asbag69
(g90
g71
NtRp2531
(dp2532
g74
(dp2533
g101
g102
ssg83
g2522
sg76
(lp2534
S':'
asbag69
(g90
g71
NtRp2535
(dp2536
g74
(dp2537
sg83
g2522
sg76
(lp2538
g69
(g70
g71
NtRp2539
(dp2540
g74
(dp2541
g82
I3
ssg83
g2535
sg76
(lp2542
g214
asbasbasbag69
(g85
g71
NtRp2543
(dp2544
g74
(dp2545
sg83
g2287
sg76
(lp2546
g69
(g90
g71
NtRp2547
(dp2548
g74
(dp2549
g94
g95
ssg83
g2543
sg76
(lp2550
S'REMOTE_PORT'
p2551
asbag69
(g90
g71
NtRp2552
(dp2553
g74
(dp2554
g101
g102
ssg83
g2543
sg76
(lp2555
S':'
asbag69
(g90
g71
NtRp2556
(dp2557
g74
(dp2558
sg83
g2543
sg76
(lp2559
g69
(g70
g71
NtRp2560
(dp2561
g74
(dp2562
g82
I3
ssg83
g2556
sg76
(lp2563
g1146
asbasbasbag69
(g85
g71
NtRp2564
(dp2565
g74
(dp2566
sg83
g2287
sg76
(lp2567
g69
(g90
g71
NtRp2568
(dp2569
g74
(dp2570
g94
g95
ssg83
g2564
sg76
(lp2571
S'REQUEST_METHOD'
p2572
asbag69
(g90
g71
NtRp2573
(dp2574
g74
(dp2575
g101
g102
ssg83
g2564
sg76
(lp2576
S':'
asbag69
(g90
g71
NtRp2577
(dp2578
g74
(dp2579
sg83
g2564
sg76
(lp2580
g69
(g70
g71
NtRp2581
(dp2582
g74
(dp2583
g82
I3
ssg83
g2577
sg76
(lp2584
g1168
asbasbasbag69
(g85
g71
NtRp2585
(dp2586
g74
(dp2587
sg83
g2287
sg76
(lp2588
g69
(g90
g71
NtRp2589
(dp2590
g74
(dp2591
g94
g95
ssg83
g2585
sg76
(lp2592
S'SCRIPT_NAME'
p2593
asbag69
(g90
g71
NtRp2594
(dp2595
g74
(dp2596
g101
g102
ssg83
g2585
sg76
(lp2597
S':'
asbag69
(g90
g71
NtRp2598
(dp2599
g74
(dp2600
sg83
g2585
sg76
(lp2601
g69
(g70
g71
NtRp2602
(dp2603
g74
(dp2604
g82
I3
ssg83
g2598
sg76
(lp2605
S''
asbasbasbag69
(g85
g71
NtRp2606
(dp2607
g74
(dp2608
sg83
g2287
sg76
(lp2609
g69
(g90
g71
NtRp2610
(dp2611
g74
(dp2612
g94
g95
ssg83
g2606
sg76
(lp2613
S'SERVER_NAME'
p2614
asbag69
(g90
g71
NtRp2615
(dp2616
g74
(dp2617
g101
g102
ssg83
g2606
sg76
(lp2618
S':'
asbag69
(g90
g71
NtRp2619
(dp2620
g74
(dp2621
sg83
g2606
sg76
(lp2622
g69
(g70
g71
NtRp2623
(dp2624
g74
(dp2625
g82
I3
ssg83
g2619
sg76
(lp2626
g1211
asbasbasbag69
(g85
g71
NtRp2627
(dp2628
g74
(dp2629
sg83
g2287
sg76
(lp2630
g69
(g90
g71
NtRp2631
(dp2632
g74
(dp2633
g94
g95
ssg83
g2627
sg76
(lp2634
S'SERVER_PORT'
p2635
asbag69
(g90
g71
NtRp2636
(dp2637
g74
(dp2638
g101
g102
ssg83
g2627
sg76
(lp2639
S':'
asbag69
(g90
g71
NtRp2640
(dp2641
g74
(dp2642
sg83
g2627
sg76
(lp2643
g69
(g70
g71
NtRp2644
(dp2645
g74
(dp2646
g82
I3
ssg83
g2640
sg76
(lp2647
g1233
asbasbasbag69
(g85
g71
NtRp2648
(dp2649
g74
(dp2650
sg83
g2287
sg76
(lp2651
g69
(g90
g71
NtRp2652
(dp2653
g74
(dp2654
g94
g95
ssg83
g2648
sg76
(lp2655
S'SERVER_PROTOCOL'
p2656
asbag69
(g90
g71
NtRp2657
(dp2658
g74
(dp2659
g101
g102
ssg83
g2648
sg76
(lp2660
S':'
asbag69
(g90
g71
NtRp2661
(dp2662
g74
(dp2663
sg83
g2648
sg76
(lp2664
g69
(g70
g71
NtRp2665
(dp2666
g74
(dp2667
g82
I3
ssg83
g2661
sg76
(lp2668
g1255
asbasbasbag69
(g85
g71
NtRp2669
(dp2670
g74
(dp2671
sg83
g2287
sg76
(lp2672
g69
(g90
g71
NtRp2673
(dp2674
g74
(dp2675
g94
g95
ssg83
g2669
sg76
(lp2676
S'SERVER_SOFTWARE'
p2677
asbag69
(g90
g71
NtRp2678
(dp2679
g74
(dp2680
g101
g102
ssg83
g2669
sg76
(lp2681
S':'
asbag69
(g90
g71
NtRp2682
(dp2683
g74
(dp2684
sg83
g2669
sg76
(lp2685
g69
(g70
g71
NtRp2686
(dp2687
g74
(dp2688
g82
I3
ssg83
g2682
sg76
(lp2689
g1277
asbasbasbag69
(g85
g71
NtRp2690
(dp2691
g74
(dp2692
sg83
g2287
sg76
(lp2693
g69
(g90
g71
NtRp2694
(dp2695
g74
(dp2696
g94
g95
ssg83
g2690
sg76
(lp2697
S'wsgi.errors'
p2698
asbag69
(g90
g71
NtRp2699
(dp2700
g74
(dp2701
g101
g102
ssg83
g2690
sg76
(lp2702
S':'
asbag69
(g90
g71
NtRp2703
(dp2704
g74
(dp2705
sg83
g2690
sg76
(lp2706
g69
(g70
g71
NtRp2707
(dp2708
g74
(dp2709
g82
I3
ssg83
g2703
sg76
(lp2710
S"<open file '<stderr>', mode 'w' at 0xb76ed0d0>"
p2711
asbasbasbag69
(g85
g71
NtRp2712
(dp2713
g74
(dp2714
sg83
g2287
sg76
(lp2715
g69
(g90
g71
NtRp2716
(dp2717
g74
(dp2718
g94
g95
ssg83
g2712
sg76
(lp2719
S'wsgi.file_wrapper'
p2720
asbag69
(g90
g71
NtRp2721
(dp2722
g74
(dp2723
g101
g102
ssg83
g2712
sg76
(lp2724
S':'
asbag69
(g90
g71
NtRp2725
(dp2726
g74
(dp2727
sg83
g2712
sg76
(lp2728
g69
(g70
g71
NtRp2729
(dp2730
g74
(dp2731
g82
I3
ssg83
g2725
sg76
(lp2732
S'<class wsgiref.util.FileWrapper at 0x9340d7c>'
p2733
asbasbasbag69
(g85
g71
NtRp2734
(dp2735
g74
(dp2736
sg83
g2287
sg76
(lp2737
g69
(g90
g71
NtRp2738
(dp2739
g74
(dp2740
g94
g95
ssg83
g2734
sg76
(lp2741
S'wsgi.input'
p2742
asbag69
(g90
g71
NtRp2743
(dp2744
g74
(dp2745
g101
g102
ssg83
g2734
sg76
(lp2746
S':'
asbag69
(g90
g71
NtRp2747
(dp2748
g74
(dp2749
sg83
g2734
sg76
(lp2750
g69
(g70
g71
NtRp2751
(dp2752
g74
(dp2753
g82
I3
ssg83
g2747
sg76
(lp2754
S'<cStringIO.StringO object at 0xb0015140>'
p2755
asbasbasbag69
(g85
g71
NtRp2756
(dp2757
g74
(dp2758
sg83
g2287
sg76
(lp2759
g69
(g90
g71
NtRp2760
(dp2761
g74
(dp2762
g94
g95
ssg83
g2756
sg76
(lp2763
S'wsgi.multiprocess'
p2764
asbag69
(g90
g71
NtRp2765
(dp2766
g74
(dp2767
g101
g102
ssg83
g2756
sg76
(lp2768
S':'
asbag69
(g90
g71
NtRp2769
(dp2770
g74
(dp2771
sg83
g2756
sg76
(lp2772
g69
(g70
g71
NtRp2773
(dp2774
g74
(dp2775
g82
I3
ssg83
g2769
sg76
(lp2776
g112
asbasbasbag69
(g85
g71
NtRp2777
(dp2778
g74
(dp2779
sg83
g2287
sg76
(lp2780
g69
(g90
g71
NtRp2781
(dp2782
g74
(dp2783
g94
g95
ssg83
g2777
sg76
(lp2784
S'wsgi.multithread'
p2785
asbag69
(g90
g71
NtRp2786
(dp2787
g74
(dp2788
g101
g102
ssg83
g2777
sg76
(lp2789
S':'
asbag69
(g90
g71
NtRp2790
(dp2791
g74
(dp2792
sg83
g2777
sg76
(lp2793
g69
(g70
g71
NtRp2794
(dp2795
g74
(dp2796
g82
I3
ssg83
g2790
sg76
(lp2797
g1517
asbasbasbag69
(g85
g71
NtRp2798
(dp2799
g74
(dp2800
sg83
g2287
sg76
(lp2801
g69
(g90
g71
NtRp2802
(dp2803
g74
(dp2804
g94
g95
ssg83
g2798
sg76
(lp2805
S'wsgi.run_once'
p2806
asbag69
(g90
g71
NtRp2807
(dp2808
g74
(dp2809
g101
g102
ssg83
g2798
sg76
(lp2810
S':'
asbag69
(g90
g71
NtRp2811
(dp2812
g74
(dp2813
sg83
g2798
sg76
(lp2814
g69
(g70
g71
NtRp2815
(dp2816
g74
(dp2817
g82
I3
ssg83
g2811
sg76
(lp2818
g112
asbasbasbag69
(g85
g71
NtRp2819
(dp2820
g74
(dp2821
sg83
g2287
sg76
(lp2822
g69
(g90
g71
NtRp2823
(dp2824
g74
(dp2825
g94
g95
ssg83
g2819
sg76
(lp2826
S'wsgi.url_scheme'
p2827
asbag69
(g90
g71
NtRp2828
(dp2829
g74
(dp2830
g101
g102
ssg83
g2819
sg76
(lp2831
S':'
asbag69
(g90
g71
NtRp2832
(dp2833
g74
(dp2834
sg83
g2819
sg76
(lp2835
g69
(g70
g71
NtRp2836
(dp2837
g74
(dp2838
g82
I3
ssg83
g2832
sg76
(lp2839
g1560
asbasbasbag69
(g85
g71
NtRp2840
(dp2841
g74
(dp2842
sg83
g2287
sg76
(lp2843
g69
(g90
g71
NtRp2844
(dp2845
g74
(dp2846
g94
g95
ssg83
g2840
sg76
(lp2847
S'wsgi.version'
p2848
asbag69
(g90
g71
NtRp2849
(dp2850
g74
(dp2851
g101
g102
ssg83
g2840
sg76
(lp2852
S':'
asbag69
(g90
g71
NtRp2853
(dp2854
g74
(dp2855
sg83
g2840
sg76
(lp2856
g69
(g70
g71
NtRp2857
(dp2858
g74
(dp2859
g82
I3
ssg83
g2853
sg76
(lp2860
S'1'
asbasbasbasbasbasbasbasbasbasbasbasbasbsS'frames'
p2861
(lp2862
(dp2863
S'file'
p2864
S'/home/kaique/Projects/web/big-votes/web2py/gluon/restricted.py'
p2865
sS'dump'
p2866
(dp2867
S'code'
p2868
S"'# -*- coding: utf-8 -*-\\nfrom bigvotes import Mem...bers\\n\\t}\\nresponse._vars=response._caller(profile)\\n'"
p2869
sS'layer'
p2870
S"'/home/kaique/Projects/web/big-votes/web2py/applications/bigvotes/controllers/member.py'"
p2871
sS'global compile2'
p2872
S'<function compile2>'
p2873
sS'ccode'
p2874
S'undefined'
p2875
ssS'lnum'
p2876
I204
sS'lines'
p2877
(dp2878
I199
S"    environment['__name__'] = '__restricted__'"
p2879
sI200
S'    try:'
p2880
sI201
S'        if type(code) == types.CodeType:'
p2881
sI202
S'            ccode = code'
p2882
sI203
S'        else:'
p2883
sI204
S'            ccode = compile2(code,layer)'
p2884
sI205
S'        exec ccode in environment'
p2885
sI206
S'    except HTTP:'
p2886
sI207
S'        raise'
p2887
sI208
S'    except RestrictedError:'
p2888
ssS'call'
p2889
S"(code='# -*- coding: utf-8 -*-\\nfrom bigvotes import Mem...bers\\n\\t}\\nresponse._vars=response._caller(profile)\\n', environment={'A': <class 'gluon.html.A'>, 'Auth': <class 'gluon.tools.Auth'>, 'B': <class 'gluon.html.B'>, 'BEAUTIFY': <class 'gluon.html.BEAUTIFY'>, 'BODY': <class 'gluon.html.BODY'>, 'BR': <class 'gluon.html.BR'>, 'BUTTON': <class 'gluon.html.BUTTON'>, 'CAT': <class 'gluon.html.CAT'>, 'CENTER': <class 'gluon.html.CENTER'>, 'CLEANUP': <class 'gluon.validators.CLEANUP'>, ...}, layer='/home/kaique/Projects/web/big-votes/web2py/applications/bigvotes/controllers/member.py')"
p2890
sS'func'
p2891
S'restricted'
p2892
sa(dp2893
g2864
S'/home/kaique/Projects/web/big-votes/web2py/gluon/restricted.py'
p2894
sg2866
(dp2895
S'builtincompile'
p2896
S'<built-in function compile>'
p2897
sS'code'
p2898
S"'# -*- coding: utf-8 -*-\\nfrom bigvotes import Mem...bers\\n\\t}\\nresponse._vars=response._caller(profile)\\n'"
p2899
sS'code.rstrip'
p2900
S'<built-in method rstrip of str object>'
p2901
sS').replace'
p2902
g2875
sS'layer'
p2903
S"'/home/kaique/Projects/web/big-votes/web2py/applications/bigvotes/controllers/member.py'"
p2904
ssg2876
I189
sg2877
(dp2905
I192
S'    """'
p2906
sI193
S'    runs code in environment and returns the output. if an exception occurs'
p2907
sI184
S''
sI185
S'def compile2(code,layer):'
p2908
sI186
S'    """'
p2909
sI187
S"    The +'\\n' is necessary else compile fails when code ends in a comment."
p2910
sI188
S'    """'
p2911
sI189
S"    return compile(code.rstrip().replace('\\r\\n','\\n')+'\\n', layer, 'exec')"
p2912
sI190
S''
sI191
S"def restricted(code, environment=None, layer='Unknown'):"
p2913
ssg2889
S"(code='# -*- coding: utf-8 -*-\\nfrom bigvotes import Mem...bers\\n\\t}\\nresponse._vars=response._caller(profile)\\n', layer='/home/kaique/Projects/web/big-votes/web2py/applications/bigvotes/controllers/member.py')"
p2914
sg2891
S'compile2'
p2915
sasS'pyver'
p2916
S'Python 2.7.3: /home/kaique/Projects/web/big-votes/bin/python'
p2917
sS'session'
p2918
g69
(g70
g71
NtRp2919
(dp2920
g74
(dp2921
sg76
(lp2922
g69
(g78
g71
NtRp2923
(dp2924
g74
(dp2925
g82
I5
ssg83
Nsg76
(lp2926
g69
(g85
g71
NtRp2927
(dp2928
g74
(dp2929
sg83
g2923
sg76
(lp2930
g69
(g90
g71
NtRp2931
(dp2932
g74
(dp2933
g94
g95
ssg83
g2927
sg76
(lp2934
S'last_query'
p2935
asbag69
(g90
g71
NtRp2936
(dp2937
g74
(dp2938
g101
g102
ssg83
g2927
sg76
(lp2939
S':'
asbag69
(g90
g71
NtRp2940
(dp2941
g74
(dp2942
sg83
g2927
sg76
(lp2943
g69
(g70
g71
NtRp2944
(dp2945
g74
(dp2946
g82
I5
ssg83
g2940
sg76
(lp2947
S'db.member.id>0'
p2948
asbasbasbasbasbsS'etype'
p2949
S"<type 'exceptions.SyntaxError'>"
p2950
sS'date'
p2951
S'Sun May 20 19:42:28 2012'
p2952
sS'response'
p2953
g69
(g70
g71
NtRp2954
(dp2955
g74
(dp2956
sg76
(lp2957
g69
(g78
g71
NtRp2958
(dp2959
g74
(dp2960
g82
I5
ssg83
Nsg76
(lp2961
g69
(g85
g71
NtRp2962
(dp2963
g74
(dp2964
sg83
g2958
sg76
(lp2965
g69
(g90
g71
NtRp2966
(dp2967
g74
(dp2968
g94
g95
ssg83
g2962
sg76
(lp2969
g179
asbag69
(g90
g71
NtRp2970
(dp2971
g74
(dp2972
g101
g102
ssg83
g2962
sg76
(lp2973
S':'
asbag69
(g90
g71
NtRp2974
(dp2975
g74
(dp2976
sg83
g2962
sg76
(lp2977
g69
(g70
g71
NtRp2978
(dp2979
g74
(dp2980
g82
I5
ssg83
g2974
sg76
(lp2981
S'<cStringIO.StringO object at 0xb0002e60>'
p2982
asbasbasbag69
(g85
g71
NtRp2983
(dp2984
g74
(dp2985
sg83
g2958
sg76
(lp2986
g69
(g90
g71
NtRp2987
(dp2988
g74
(dp2989
g94
g95
ssg83
g2983
sg76
(lp2990
g245
asbag69
(g90
g71
NtRp2991
(dp2992
g74
(dp2993
g101
g102
ssg83
g2983
sg76
(lp2994
S':'
asbag69
(g90
g71
NtRp2995
(dp2996
g74
(dp2997
sg83
g2983
sg76
(lp2998
g69
(g70
g71
NtRp2999
(dp3000
g74
(dp3001
g82
I5
ssg83
g2995
sg76
(lp3002
g69
(g78
g71
NtRp3003
(dp3004
g74
(dp3005
g82
I4
ssg83
Nsg76
(lp3006
g69
(g85
g71
NtRp3007
(dp3008
g74
(dp3009
sg83
g3003
sg76
(lp3010
g69
(g90
g71
NtRp3011
(dp3012
g74
(dp3013
g94
g95
ssg83
g3007
sg76
(lp3014
S'session_id_bigvotes'
p3015
asbag69
(g90
g71
NtRp3016
(dp3017
g74
(dp3018
g101
g102
ssg83
g3007
sg76
(lp3019
S':'
asbag69
(g90
g71
NtRp3020
(dp3021
g74
(dp3022
sg83
g3007
sg76
(lp3023
g69
(g70
g71
NtRp3024
(dp3025
g74
(dp3026
g82
I4
ssg83
g3020
sg76
(lp3027
g69
(g78
g71
NtRp3028
(dp3029
g74
(dp3030
g82
I3
ssg83
Nsg76
(lp3031
g69
(g85
g71
NtRp3032
(dp3033
g74
(dp3034
sg83
g3028
sg76
(lp3035
g69
(g90
g71
NtRp3036
(dp3037
g74
(dp3038
g94
g95
ssg83
g3032
sg76
(lp3039
g295
asbag69
(g90
g71
NtRp3040
(dp3041
g74
(dp3042
g101
g102
ssg83
g3032
sg76
(lp3043
S':'
asbag69
(g90
g71
NtRp3044
(dp3045
g74
(dp3046
sg83
g3032
sg76
(lp3047
g69
(g70
g71
NtRp3048
(dp3049
g74
(dp3050
g82
I3
ssg83
g3044
sg76
(lp3051
S''
asbasbasbag69
(g85
g71
NtRp3052
(dp3053
g74
(dp3054
sg83
g3028
sg76
(lp3055
g69
(g90
g71
NtRp3056
(dp3057
g74
(dp3058
g94
g95
ssg83
g3052
sg76
(lp3059
g316
asbag69
(g90
g71
NtRp3060
(dp3061
g74
(dp3062
g101
g102
ssg83
g3052
sg76
(lp3063
S':'
asbag69
(g90
g71
NtRp3064
(dp3065
g74
(dp3066
sg83
g3052
sg76
(lp3067
g69
(g70
g71
NtRp3068
(dp3069
g74
(dp3070
g82
I3
ssg83
g3064
sg76
(lp3071
S''
asbasbasbag69
(g85
g71
NtRp3072
(dp3073
g74
(dp3074
sg83
g3028
sg76
(lp3075
g69
(g90
g71
NtRp3076
(dp3077
g74
(dp3078
g94
g95
ssg83
g3072
sg76
(lp3079
g337
asbag69
(g90
g71
NtRp3080
(dp3081
g74
(dp3082
g101
g102
ssg83
g3072
sg76
(lp3083
S':'
asbag69
(g90
g71
NtRp3084
(dp3085
g74
(dp3086
sg83
g3072
sg76
(lp3087
g69
(g70
g71
NtRp3088
(dp3089
g74
(dp3090
g82
I3
ssg83
g3084
sg76
(lp3091
S''
asbasbasbag69
(g85
g71
NtRp3092
(dp3093
g74
(dp3094
sg83
g3028
sg76
(lp3095
g69
(g90
g71
NtRp3096
(dp3097
g74
(dp3098
g94
g95
ssg83
g3092
sg76
(lp3099
g358
asbag69
(g90
g71
NtRp3100
(dp3101
g74
(dp3102
g101
g102
ssg83
g3092
sg76
(lp3103
S':'
asbag69
(g90
g71
NtRp3104
(dp3105
g74
(dp3106
sg83
g3092
sg76
(lp3107
g69
(g70
g71
NtRp3108
(dp3109
g74
(dp3110
g82
I3
ssg83
g3104
sg76
(lp3111
S''
asbasbasbag69
(g85
g71
NtRp3112
(dp3113
g74
(dp3114
sg83
g3028
sg76
(lp3115
g69
(g90
g71
NtRp3116
(dp3117
g74
(dp3118
g94
g95
ssg83
g3112
sg76
(lp3119
g379
asbag69
(g90
g71
NtRp3120
(dp3121
g74
(dp3122
g101
g102
ssg83
g3112
sg76
(lp3123
S':'
asbag69
(g90
g71
NtRp3124
(dp3125
g74
(dp3126
sg83
g3112
sg76
(lp3127
g69
(g70
g71
NtRp3128
(dp3129
g74
(dp3130
g82
I3
ssg83
g3124
sg76
(lp3131
S''
asbasbasbag69
(g85
g71
NtRp3132
(dp3133
g74
(dp3134
sg83
g3028
sg76
(lp3135
g69
(g90
g71
NtRp3136
(dp3137
g74
(dp3138
g94
g95
ssg83
g3132
sg76
(lp3139
g400
asbag69
(g90
g71
NtRp3140
(dp3141
g74
(dp3142
g101
g102
ssg83
g3132
sg76
(lp3143
S':'
asbag69
(g90
g71
NtRp3144
(dp3145
g74
(dp3146
sg83
g3132
sg76
(lp3147
g69
(g70
g71
NtRp3148
(dp3149
g74
(dp3150
g82
I3
ssg83
g3144
sg76
(lp3151
S'/'
asbasbasbag69
(g85
g71
NtRp3152
(dp3153
g74
(dp3154
sg83
g3028
sg76
(lp3155
g69
(g90
g71
NtRp3156
(dp3157
g74
(dp3158
g94
g95
ssg83
g3152
sg76
(lp3159
g421
asbag69
(g90
g71
NtRp3160
(dp3161
g74
(dp3162
g101
g102
ssg83
g3152
sg76
(lp3163
S':'
asbag69
(g90
g71
NtRp3164
(dp3165
g74
(dp3166
sg83
g3152
sg76
(lp3167
g69
(g70
g71
NtRp3168
(dp3169
g74
(dp3170
g82
I3
ssg83
g3164
sg76
(lp3171
S''
asbasbasbag69
(g85
g71
NtRp3172
(dp3173
g74
(dp3174
sg83
g3028
sg76
(lp3175
g69
(g90
g71
NtRp3176
(dp3177
g74
(dp3178
g94
g95
ssg83
g3172
sg76
(lp3179
g442
asbag69
(g90
g71
NtRp3180
(dp3181
g74
(dp3182
g101
g102
ssg83
g3172
sg76
(lp3183
S':'
asbag69
(g90
g71
NtRp3184
(dp3185
g74
(dp3186
sg83
g3172
sg76
(lp3187
g69
(g70
g71
NtRp3188
(dp3189
g74
(dp3190
g82
I3
ssg83
g3184
sg76
(lp3191
S''
asbasbasbasbasbasbasbasbasbasbasbag69
(g85
g71
NtRp3192
(dp3193
g74
(dp3194
sg83
g2958
sg76
(lp3195
g69
(g90
g71
NtRp3196
(dp3197
g74
(dp3198
g94
g95
ssg83
g3192
sg76
(lp3199
S'delimiters'
p3200
asbag69
(g90
g71
NtRp3201
(dp3202
g74
(dp3203
g101
g102
ssg83
g3192
sg76
(lp3204
S':'
asbag69
(g90
g71
NtRp3205
(dp3206
g74
(dp3207
sg83
g3192
sg76
(lp3208
g69
(g70
g71
NtRp3209
(dp3210
g74
(dp3211
g82
I5
ssg83
g3205
sg76
(lp3212
g69
(g78
g71
NtRp3213
(dp3214
g74
(dp3215
g82
I4
ssg83
Nsg76
(lp3216
g69
(g85
g71
NtRp3217
(dp3218
g74
(dp3219
sg83
g3213
sg76
(lp3220
g69
(g90
g71
NtRp3221
(dp3222
g74
(dp3223
sg83
g3217
sg76
(lp3224
g69
(g70
g71
NtRp3225
(dp3226
g74
(dp3227
g82
I4
ssg83
g3221
sg76
(lp3228
S'{{'
p3229
asbasbasbag69
(g85
g71
NtRp3230
(dp3231
g74
(dp3232
sg83
g3213
sg76
(lp3233
g69
(g90
g71
NtRp3234
(dp3235
g74
(dp3236
sg83
g3230
sg76
(lp3237
g69
(g70
g71
NtRp3238
(dp3239
g74
(dp3240
g82
I4
ssg83
g3234
sg76
(lp3241
S'}}'
p3242
asbasbasbasbasbasbasbag69
(g85
g71
NtRp3243
(dp3244
g74
(dp3245
sg83
g2958
sg76
(lp3246
g69
(g90
g71
NtRp3247
(dp3248
g74
(dp3249
g94
g95
ssg83
g3243
sg76
(lp3250
S'files'
p3251
asbag69
(g90
g71
NtRp3252
(dp3253
g74
(dp3254
g101
g102
ssg83
g3243
sg76
(lp3255
S':'
asbag69
(g90
g71
NtRp3256
(dp3257
g74
(dp3258
sg83
g3243
sg76
(lp3259
g69
(g70
g71
NtRp3260
(dp3261
g74
(dp3262
g82
I5
ssg83
g3256
sg76
(lp3263
g69
(g78
g71
NtRp3264
(dp3265
g74
(dp3266
g82
I4
ssg83
Nsg76
(lp3267
sbasbasbasbag69
(g85
g71
NtRp3268
(dp3269
g74
(dp3270
sg83
g2958
sg76
(lp3271
g69
(g90
g71
NtRp3272
(dp3273
g74
(dp3274
g94
g95
ssg83
g3268
sg76
(lp3275
S'flash'
p3276
asbag69
(g90
g71
NtRp3277
(dp3278
g74
(dp3279
g101
g102
ssg83
g3268
sg76
(lp3280
S':'
asbag69
(g90
g71
NtRp3281
(dp3282
g74
(dp3283
sg83
g3268
sg76
(lp3284
g69
(g70
g71
NtRp3285
(dp3286
g74
(dp3287
g82
I5
ssg83
g3281
sg76
(lp3288
S''
asbasbasbag69
(g85
g71
NtRp3289
(dp3290
g74
(dp3291
sg83
g2958
sg76
(lp3292
g69
(g90
g71
NtRp3293
(dp3294
g74
(dp3295
g94
g95
ssg83
g3289
sg76
(lp3296
S'generic_patterns'
p3297
asbag69
(g90
g71
NtRp3298
(dp3299
g74
(dp3300
g101
g102
ssg83
g3289
sg76
(lp3301
S':'
asbag69
(g90
g71
NtRp3302
(dp3303
g74
(dp3304
sg83
g3289
sg76
(lp3305
g69
(g70
g71
NtRp3306
(dp3307
g74
(dp3308
g82
I5
ssg83
g3302
sg76
(lp3309
g69
(g78
g71
NtRp3310
(dp3311
g74
(dp3312
g82
I4
ssg83
Nsg76
(lp3313
g69
(g85
g71
NtRp3314
(dp3315
g74
(dp3316
sg83
g3310
sg76
(lp3317
g69
(g90
g71
NtRp3318
(dp3319
g74
(dp3320
sg83
g3314
sg76
(lp3321
g69
(g70
g71
NtRp3322
(dp3323
g74
(dp3324
g82
I4
ssg83
g3318
sg76
(lp3325
S'*'
asbasbasbasbasbasbasbag69
(g85
g71
NtRp3326
(dp3327
g74
(dp3328
sg83
g2958
sg76
(lp3329
g69
(g90
g71
NtRp3330
(dp3331
g74
(dp3332
g94
g95
ssg83
g3326
sg76
(lp3333
S'headers'
p3334
asbag69
(g90
g71
NtRp3335
(dp3336
g74
(dp3337
g101
g102
ssg83
g3326
sg76
(lp3338
S':'
asbag69
(g90
g71
NtRp3339
(dp3340
g74
(dp3341
sg83
g3326
sg76
(lp3342
g69
(g70
g71
NtRp3343
(dp3344
g74
(dp3345
g82
I5
ssg83
g3339
sg76
(lp3346
g69
(g78
g71
NtRp3347
(dp3348
g74
(dp3349
g82
I4
ssg83
Nsg76
(lp3350
g69
(g85
g71
NtRp3351
(dp3352
g74
(dp3353
sg83
g3347
sg76
(lp3354
g69
(g90
g71
NtRp3355
(dp3356
g74
(dp3357
g94
g95
ssg83
g3351
sg76
(lp3358
S'Cache-Control'
p3359
asbag69
(g90
g71
NtRp3360
(dp3361
g74
(dp3362
g101
g102
ssg83
g3351
sg76
(lp3363
S':'
asbag69
(g90
g71
NtRp3364
(dp3365
g74
(dp3366
sg83
g3351
sg76
(lp3367
g69
(g70
g71
NtRp3368
(dp3369
g74
(dp3370
g82
I4
ssg83
g3364
sg76
(lp3371
S'no-store, no-cache, must-revalidate, post-check=0, pre-check=0'
p3372
asbasbasbag69
(g85
g71
NtRp3373
(dp3374
g74
(dp3375
sg83
g3347
sg76
(lp3376
g69
(g90
g71
NtRp3377
(dp3378
g74
(dp3379
g94
g95
ssg83
g3373
sg76
(lp3380
S'Content-Type'
p3381
asbag69
(g90
g71
NtRp3382
(dp3383
g74
(dp3384
g101
g102
ssg83
g3373
sg76
(lp3385
S':'
asbag69
(g90
g71
NtRp3386
(dp3387
g74
(dp3388
sg83
g3373
sg76
(lp3389
g69
(g70
g71
NtRp3390
(dp3391
g74
(dp3392
g82
I4
ssg83
g3386
sg76
(lp3393
S'text/html; charset=utf-8'
p3394
asbasbasbag69
(g85
g71
NtRp3395
(dp3396
g74
(dp3397
sg83
g3347
sg76
(lp3398
g69
(g90
g71
NtRp3399
(dp3400
g74
(dp3401
g94
g95
ssg83
g3395
sg76
(lp3402
S'Expires'
p3403
asbag69
(g90
g71
NtRp3404
(dp3405
g74
(dp3406
g101
g102
ssg83
g3395
sg76
(lp3407
S':'
asbag69
(g90
g71
NtRp3408
(dp3409
g74
(dp3410
sg83
g3395
sg76
(lp3411
g69
(g70
g71
NtRp3412
(dp3413
g74
(dp3414
g82
I4
ssg83
g3408
sg76
(lp3415
S'Sun, 20 May 2012 22:42:28 GMT'
p3416
asbasbasbag69
(g85
g71
NtRp3417
(dp3418
g74
(dp3419
sg83
g3347
sg76
(lp3420
g69
(g90
g71
NtRp3421
(dp3422
g74
(dp3423
g94
g95
ssg83
g3417
sg76
(lp3424
S'Pragma'
p3425
asbag69
(g90
g71
NtRp3426
(dp3427
g74
(dp3428
g101
g102
ssg83
g3417
sg76
(lp3429
S':'
asbag69
(g90
g71
NtRp3430
(dp3431
g74
(dp3432
sg83
g3417
sg76
(lp3433
g69
(g70
g71
NtRp3434
(dp3435
g74
(dp3436
g82
I4
ssg83
g3430
sg76
(lp3437
S'no-cache'
p3438
asbasbasbag69
(g85
g71
NtRp3439
(dp3440
g74
(dp3441
sg83
g3347
sg76
(lp3442
g69
(g90
g71
NtRp3443
(dp3444
g74
(dp3445
g94
g95
ssg83
g3439
sg76
(lp3446
S'X-Powered-By'
p3447
asbag69
(g90
g71
NtRp3448
(dp3449
g74
(dp3450
g101
g102
ssg83
g3439
sg76
(lp3451
S':'
asbag69
(g90
g71
NtRp3452
(dp3453
g74
(dp3454
sg83
g3439
sg76
(lp3455
g69
(g70
g71
NtRp3456
(dp3457
g74
(dp3458
g82
I4
ssg83
g3452
sg76
(lp3459
S'web2py'
p3460
asbasbasbasbasbasbasbag69
(g85
g71
NtRp3461
(dp3462
g74
(dp3463
sg83
g2958
sg76
(lp3464
g69
(g90
g71
NtRp3465
(dp3466
g74
(dp3467
g94
g95
ssg83
g3461
sg76
(lp3468
S'menu'
p3469
asbag69
(g90
g71
NtRp3470
(dp3471
g74
(dp3472
g101
g102
ssg83
g3461
sg76
(lp3473
S':'
asbag69
(g90
g71
NtRp3474
(dp3475
g74
(dp3476
sg83
g3461
sg76
(lp3477
g69
(g70
g71
NtRp3478
(dp3479
g74
(dp3480
g82
I5
ssg83
g3474
sg76
(lp3481
g69
(g78
g71
NtRp3482
(dp3483
g74
(dp3484
g82
I4
ssg83
Nsg76
(lp3485
g69
(g85
g71
NtRp3486
(dp3487
g74
(dp3488
sg83
g3482
sg76
(lp3489
g69
(g90
g71
NtRp3490
(dp3491
g74
(dp3492
sg83
g3486
sg76
(lp3493
g69
(g70
g71
NtRp3494
(dp3495
g74
(dp3496
g82
I4
ssg83
g3490
sg76
(lp3497
g69
(g78
g71
NtRp3498
(dp3499
g74
(dp3500
g82
I3
ssg83
Nsg76
(lp3501
g69
(g85
g71
NtRp3502
(dp3503
g74
(dp3504
sg83
g3498
sg76
(lp3505
g69
(g90
g71
NtRp3506
(dp3507
g74
(dp3508
sg83
g3502
sg76
(lp3509
g69
(g70
g71
NtRp3510
(dp3511
g74
(dp3512
g82
I3
ssg83
g3506
sg76
(lp3513
cgluon.languages
lazyT_unpickle
p3514
(S't\x05\x00\x00\x00Votes'
tRp3515
asbasbasbag69
(g85
g71
NtRp3516
(dp3517
g74
(dp3518
sg83
g3498
sg76
(lp3519
g69
(g90
g71
NtRp3520
(dp3521
g74
(dp3522
sg83
g3516
sg76
(lp3523
g69
(g70
g71
NtRp3524
(dp3525
g74
(dp3526
g82
I3
ssg83
g3520
sg76
(lp3527
g112
asbasbasbag69
(g85
g71
NtRp3528
(dp3529
g74
(dp3530
sg83
g3498
sg76
(lp3531
g69
(g90
g71
NtRp3532
(dp3533
g74
(dp3534
sg83
g3528
sg76
(lp3535
g69
(g70
g71
NtRp3536
(dp3537
g74
(dp3538
g82
I3
ssg83
g3532
sg76
(lp3539
S'/bigvotes/default/index'
p3540
asbasbasbag69
(g85
g71
NtRp3541
(dp3542
g74
(dp3543
sg83
g3498
sg76
(lp3544
g69
(g90
g71
NtRp3545
(dp3546
g74
(dp3547
sg83
g3541
sg76
(lp3548
g69
(g70
g71
NtRp3549
(dp3550
g74
(dp3551
g82
I3
ssg83
g3545
sg76
(lp3552
g69
(g78
g71
NtRp3553
(dp3554
g74
(dp3555
g82
I2
ssg83
Nsg76
(lp3556
sbasbasbasbasbasbasbasbag69
(g85
g71
NtRp3557
(dp3558
g74
(dp3559
sg83
g3482
sg76
(lp3560
g69
(g90
g71
NtRp3561
(dp3562
g74
(dp3563
sg83
g3557
sg76
(lp3564
g69
(g70
g71
NtRp3565
(dp3566
g74
(dp3567
g82
I4
ssg83
g3561
sg76
(lp3568
g69
(g78
g71
NtRp3569
(dp3570
g74
(dp3571
g82
I3
ssg83
Nsg76
(lp3572
g69
(g85
g71
NtRp3573
(dp3574
g74
(dp3575
sg83
g3569
sg76
(lp3576
g69
(g90
g71
NtRp3577
(dp3578
g74
(dp3579
sg83
g3573
sg76
(lp3580
g69
(g70
g71
NtRp3581
(dp3582
g74
(dp3583
g82
I3
ssg83
g3577
sg76
(lp3584
g3514
(S't\x07\x00\x00\x00Members'
tRp3585
asbasbasbag69
(g85
g71
NtRp3586
(dp3587
g74
(dp3588
sg83
g3569
sg76
(lp3589
g69
(g90
g71
NtRp3590
(dp3591
g74
(dp3592
sg83
g3586
sg76
(lp3593
g69
(g70
g71
NtRp3594
(dp3595
g74
(dp3596
g82
I3
ssg83
g3590
sg76
(lp3597
g112
asbasbasbag69
(g85
g71
NtRp3598
(dp3599
g74
(dp3600
sg83
g3569
sg76
(lp3601
g69
(g90
g71
NtRp3602
(dp3603
g74
(dp3604
sg83
g3598
sg76
(lp3605
g69
(g70
g71
NtRp3606
(dp3607
g74
(dp3608
g82
I3
ssg83
g3602
sg76
(lp3609
S'/bigvotes/member/index'
p3610
asbasbasbag69
(g85
g71
NtRp3611
(dp3612
g74
(dp3613
sg83
g3569
sg76
(lp3614
g69
(g90
g71
NtRp3615
(dp3616
g74
(dp3617
sg83
g3611
sg76
(lp3618
g69
(g70
g71
NtRp3619
(dp3620
g74
(dp3621
g82
I3
ssg83
g3615
sg76
(lp3622
g69
(g78
g71
NtRp3623
(dp3624
g74
(dp3625
g82
I2
ssg83
Nsg76
(lp3626
sbasbasbasbasbasbasbasbag69
(g85
g71
NtRp3627
(dp3628
g74
(dp3629
sg83
g3482
sg76
(lp3630
g69
(g90
g71
NtRp3631
(dp3632
g74
(dp3633
sg83
g3627
sg76
(lp3634
g69
(g70
g71
NtRp3635
(dp3636
g74
(dp3637
g82
I4
ssg83
g3631
sg76
(lp3638
g69
(g78
g71
NtRp3639
(dp3640
g74
(dp3641
g82
I3
ssg83
Nsg76
(lp3642
g69
(g85
g71
NtRp3643
(dp3644
g74
(dp3645
sg83
g3639
sg76
(lp3646
g69
(g90
g71
NtRp3647
(dp3648
g74
(dp3649
sg83
g3643
sg76
(lp3650
g69
(g70
g71
NtRp3651
(dp3652
g74
(dp3653
g82
I3
ssg83
g3647
sg76
(lp3654
g3514
(S's\x12\x00\x00\x00Members Eliminated'
tRp3655
asbasbasbag69
(g85
g71
NtRp3656
(dp3657
g74
(dp3658
sg83
g3639
sg76
(lp3659
g69
(g90
g71
NtRp3660
(dp3661
g74
(dp3662
sg83
g3656
sg76
(lp3663
g69
(g70
g71
NtRp3664
(dp3665
g74
(dp3666
g82
I3
ssg83
g3660
sg76
(lp3667
g112
asbasbasbag69
(g85
g71
NtRp3668
(dp3669
g74
(dp3670
sg83
g3639
sg76
(lp3671
g69
(g90
g71
NtRp3672
(dp3673
g74
(dp3674
sg83
g3668
sg76
(lp3675
g69
(g70
g71
NtRp3676
(dp3677
g74
(dp3678
g82
I3
ssg83
g3672
sg76
(lp3679
S'/bigvotes/member/eliminated'
p3680
asbasbasbag69
(g85
g71
NtRp3681
(dp3682
g74
(dp3683
sg83
g3639
sg76
(lp3684
g69
(g90
g71
NtRp3685
(dp3686
g74
(dp3687
sg83
g3681
sg76
(lp3688
g69
(g70
g71
NtRp3689
(dp3690
g74
(dp3691
g82
I3
ssg83
g3685
sg76
(lp3692
g69
(g78
g71
NtRp3693
(dp3694
g74
(dp3695
g82
I2
ssg83
Nsg76
(lp3696
sbasbasbasbasbasbasbasbasbasbasbasbag69
(g85
g71
NtRp3697
(dp3698
g74
(dp3699
sg83
g2958
sg76
(lp3700
g69
(g90
g71
NtRp3701
(dp3702
g74
(dp3703
g94
g95
ssg83
g3697
sg76
(lp3704
S'meta'
p3705
asbag69
(g90
g71
NtRp3706
(dp3707
g74
(dp3708
g101
g102
ssg83
g3697
sg76
(lp3709
S':'
asbag69
(g90
g71
NtRp3710
(dp3711
g74
(dp3712
sg83
g3697
sg76
(lp3713
g69
(g70
g71
NtRp3714
(dp3715
g74
(dp3716
g82
I5
ssg83
g3710
sg76
(lp3717
g69
(g78
g71
NtRp3718
(dp3719
g74
(dp3720
g82
I4
ssg83
Nsg76
(lp3721
g69
(g85
g71
NtRp3722
(dp3723
g74
(dp3724
sg83
g3718
sg76
(lp3725
g69
(g90
g71
NtRp3726
(dp3727
g74
(dp3728
g94
g95
ssg83
g3722
sg76
(lp3729
S'author'
p3730
asbag69
(g90
g71
NtRp3731
(dp3732
g74
(dp3733
g101
g102
ssg83
g3722
sg76
(lp3734
S':'
asbag69
(g90
g71
NtRp3735
(dp3736
g74
(dp3737
sg83
g3722
sg76
(lp3738
g69
(g70
g71
NtRp3739
(dp3740
g74
(dp3741
g82
I4
ssg83
g3735
sg76
(lp3742
S'Kaique da Silva <kaique.developer@gmail.com>'
p3743
asbasbasbag69
(g85
g71
NtRp3744
(dp3745
g74
(dp3746
sg83
g3718
sg76
(lp3747
g69
(g90
g71
NtRp3748
(dp3749
g74
(dp3750
g94
g95
ssg83
g3744
sg76
(lp3751
S'copyright'
p3752
asbag69
(g90
g71
NtRp3753
(dp3754
g74
(dp3755
g101
g102
ssg83
g3744
sg76
(lp3756
S':'
asbag69
(g90
g71
NtRp3757
(dp3758
g74
(dp3759
sg83
g3744
sg76
(lp3760
g69
(g70
g71
NtRp3761
(dp3762
g74
(dp3763
g82
I4
ssg83
g3757
sg76
(lp3764
S'Copyright 2012'
p3765
asbasbasbag69
(g85
g71
NtRp3766
(dp3767
g74
(dp3768
sg83
g3718
sg76
(lp3769
g69
(g90
g71
NtRp3770
(dp3771
g74
(dp3772
g94
g95
ssg83
g3766
sg76
(lp3773
S'description'
p3774
asbag69
(g90
g71
NtRp3775
(dp3776
g74
(dp3777
g101
g102
ssg83
g3766
sg76
(lp3778
S':'
asbag69
(g90
g71
NtRp3779
(dp3780
g74
(dp3781
sg83
g3766
sg76
(lp3782
g69
(g70
g71
NtRp3783
(dp3784
g74
(dp3785
g82
I4
ssg83
g3779
sg76
(lp3786
S'Challenge app'
p3787
asbasbasbag69
(g85
g71
NtRp3788
(dp3789
g74
(dp3790
sg83
g3718
sg76
(lp3791
g69
(g90
g71
NtRp3792
(dp3793
g74
(dp3794
g94
g95
ssg83
g3788
sg76
(lp3795
S'generator'
p3796
asbag69
(g90
g71
NtRp3797
(dp3798
g74
(dp3799
g101
g102
ssg83
g3788
sg76
(lp3800
S':'
asbag69
(g90
g71
NtRp3801
(dp3802
g74
(dp3803
sg83
g3788
sg76
(lp3804
g69
(g70
g71
NtRp3805
(dp3806
g74
(dp3807
g82
I4
ssg83
g3801
sg76
(lp3808
S'Web2py Web Framework'
p3809
asbasbasbag69
(g85
g71
NtRp3810
(dp3811
g74
(dp3812
sg83
g3718
sg76
(lp3813
g69
(g90
g71
NtRp3814
(dp3815
g74
(dp3816
g94
g95
ssg83
g3810
sg76
(lp3817
S'keywords'
p3818
asbag69
(g90
g71
NtRp3819
(dp3820
g74
(dp3821
g101
g102
ssg83
g3810
sg76
(lp3822
S':'
asbag69
(g90
g71
NtRp3823
(dp3824
g74
(dp3825
sg83
g3810
sg76
(lp3826
g69
(g70
g71
NtRp3827
(dp3828
g74
(dp3829
g82
I4
ssg83
g3823
sg76
(lp3830
S'BBB, votes, challenge'
p3831
asbasbasbasbasbasbasbag69
(g85
g71
NtRp3832
(dp3833
g74
(dp3834
sg83
g2958
sg76
(lp3835
g69
(g90
g71
NtRp3836
(dp3837
g74
(dp3838
g94
g95
ssg83
g3832
sg76
(lp3839
S'postprocessing'
p3840
asbag69
(g90
g71
NtRp3841
(dp3842
g74
(dp3843
g101
g102
ssg83
g3832
sg76
(lp3844
S':'
asbag69
(g90
g71
NtRp3845
(dp3846
g74
(dp3847
sg83
g3832
sg76
(lp3848
g69
(g70
g71
NtRp3849
(dp3850
g74
(dp3851
g82
I5
ssg83
g3845
sg76
(lp3852
g69
(g78
g71
NtRp3853
(dp3854
g74
(dp3855
g82
I4
ssg83
Nsg76
(lp3856
sbasbasbasbag69
(g85
g71
NtRp3857
(dp3858
g74
(dp3859
sg83
g2958
sg76
(lp3860
g69
(g90
g71
NtRp3861
(dp3862
g74
(dp3863
g94
g95
ssg83
g3857
sg76
(lp3864
S'session_file'
p3865
asbag69
(g90
g71
NtRp3866
(dp3867
g74
(dp3868
g101
g102
ssg83
g3857
sg76
(lp3869
S':'
asbag69
(g90
g71
NtRp3870
(dp3871
g74
(dp3872
sg83
g3857
sg76
(lp3873
g69
(g70
g71
NtRp3874
(dp3875
g74
(dp3876
g82
I5
ssg83
g3870
sg76
(lp3877
S"<open file '/home/kaique/Projects/web/big-votes/web2py/applications/bigvotes/sessions/127.0.0.1-72286364-99c3-4aae-95dc-f33a83b4d6f1', mode 'rb+' at 0xb00990d0>"
p3878
asbasbasbag69
(g85
g71
NtRp3879
(dp3880
g74
(dp3881
sg83
g2958
sg76
(lp3882
g69
(g90
g71
NtRp3883
(dp3884
g74
(dp3885
g94
g95
ssg83
g3879
sg76
(lp3886
S'session_filename'
p3887
asbag69
(g90
g71
NtRp3888
(dp3889
g74
(dp3890
g101
g102
ssg83
g3879
sg76
(lp3891
S':'
asbag69
(g90
g71
NtRp3892
(dp3893
g74
(dp3894
sg83
g3879
sg76
(lp3895
g69
(g70
g71
NtRp3896
(dp3897
g74
(dp3898
g82
I5
ssg83
g3892
sg76
(lp3899
S'/home/kaique/Projects/web/big-votes/web2py/applications/bigvotes/sessions/127.0.0.1-72286364-99c3-4aae-95dc-f33a83b4d6f1'
p3900
asbasbasbag69
(g85
g71
NtRp3901
(dp3902
g74
(dp3903
sg83
g2958
sg76
(lp3904
g69
(g90
g71
NtRp3905
(dp3906
g74
(dp3907
g94
g95
ssg83
g3901
sg76
(lp3908
S'session_id'
p3909
asbag69
(g90
g71
NtRp3910
(dp3911
g74
(dp3912
g101
g102
ssg83
g3901
sg76
(lp3913
S':'
asbag69
(g90
g71
NtRp3914
(dp3915
g74
(dp3916
sg83
g3901
sg76
(lp3917
g69
(g70
g71
NtRp3918
(dp3919
g74
(dp3920
g82
I5
ssg83
g3914
sg76
(lp3921
S'127.0.0.1-72286364-99c3-4aae-95dc-f33a83b4d6f1'
p3922
asbasbasbag69
(g85
g71
NtRp3923
(dp3924
g74
(dp3925
sg83
g2958
sg76
(lp3926
g69
(g90
g71
NtRp3927
(dp3928
g74
(dp3929
g94
g95
ssg83
g3923
sg76
(lp3930
S'session_id_name'
p3931
asbag69
(g90
g71
NtRp3932
(dp3933
g74
(dp3934
g101
g102
ssg83
g3923
sg76
(lp3935
S':'
asbag69
(g90
g71
NtRp3936
(dp3937
g74
(dp3938
sg83
g3923
sg76
(lp3939
g69
(g70
g71
NtRp3940
(dp3941
g74
(dp3942
g82
I5
ssg83
g3936
sg76
(lp3943
g3015
asbasbasbag69
(g85
g71
NtRp3944
(dp3945
g74
(dp3946
sg83
g2958
sg76
(lp3947
g69
(g90
g71
NtRp3948
(dp3949
g74
(dp3950
g94
g95
ssg83
g3944
sg76
(lp3951
S'session_locked'
p3952
asbag69
(g90
g71
NtRp3953
(dp3954
g74
(dp3955
g101
g102
ssg83
g3944
sg76
(lp3956
S':'
asbag69
(g90
g71
NtRp3957
(dp3958
g74
(dp3959
sg83
g3944
sg76
(lp3960
g69
(g70
g71
NtRp3961
(dp3962
g74
(dp3963
g82
I5
ssg83
g3957
sg76
(lp3964
g1517
asbasbasbag69
(g85
g71
NtRp3965
(dp3966
g74
(dp3967
sg83
g2958
sg76
(lp3968
g69
(g90
g71
NtRp3969
(dp3970
g74
(dp3971
g94
g95
ssg83
g3965
sg76
(lp3972
S'session_new'
p3973
asbag69
(g90
g71
NtRp3974
(dp3975
g74
(dp3976
g101
g102
ssg83
g3965
sg76
(lp3977
S':'
asbag69
(g90
g71
NtRp3978
(dp3979
g74
(dp3980
sg83
g3965
sg76
(lp3981
g69
(g70
g71
NtRp3982
(dp3983
g74
(dp3984
g82
I5
ssg83
g3978
sg76
(lp3985
g112
asbasbasbag69
(g85
g71
NtRp3986
(dp3987
g74
(dp3988
sg83
g2958
sg76
(lp3989
g69
(g90
g71
NtRp3990
(dp3991
g74
(dp3992
g94
g95
ssg83
g3986
sg76
(lp3993
S'status'
p3994
asbag69
(g90
g71
NtRp3995
(dp3996
g74
(dp3997
g101
g102
ssg83
g3986
sg76
(lp3998
S':'
asbag69
(g90
g71
NtRp3999
(dp4000
g74
(dp4001
sg83
g3986
sg76
(lp4002
g69
(g70
g71
NtRp4003
(dp4004
g74
(dp4005
g82
I5
ssg83
g3999
sg76
(lp4006
S'200'
p4007
asbasbasbag69
(g85
g71
NtRp4008
(dp4009
g74
(dp4010
sg83
g2958
sg76
(lp4011
g69
(g90
g71
NtRp4012
(dp4013
g74
(dp4014
g94
g95
ssg83
g4008
sg76
(lp4015
S'subtitle'
p4016
asbag69
(g90
g71
NtRp4017
(dp4018
g74
(dp4019
g101
g102
ssg83
g4008
sg76
(lp4020
S':'
asbag69
(g90
g71
NtRp4021
(dp4022
g74
(dp4023
sg83
g4008
sg76
(lp4024
g69
(g70
g71
NtRp4025
(dp4026
g74
(dp4027
g82
I5
ssg83
g4021
sg76
(lp4028
S'A simple chanllenge'
p4029
asbasbasbag69
(g85
g71
NtRp4030
(dp4031
g74
(dp4032
sg83
g2958
sg76
(lp4033
g69
(g90
g71
NtRp4034
(dp4035
g74
(dp4036
g94
g95
ssg83
g4030
sg76
(lp4037
S'title'
p4038
asbag69
(g90
g71
NtRp4039
(dp4040
g74
(dp4041
g101
g102
ssg83
g4030
sg76
(lp4042
S':'
asbag69
(g90
g71
NtRp4043
(dp4044
g74
(dp4045
sg83
g4030
sg76
(lp4046
g69
(g70
g71
NtRp4047
(dp4048
g74
(dp4049
g82
I5
ssg83
g4043
sg76
(lp4050
S'Big Votes'
p4051
asbasbasbag69
(g85
g71
NtRp4052
(dp4053
g74
(dp4054
sg83
g2958
sg76
(lp4055
g69
(g90
g71
NtRp4056
(dp4057
g74
(dp4058
g94
g95
ssg83
g4052
sg76
(lp4059
g2202
asbag69
(g90
g71
NtRp4060
(dp4061
g74
(dp4062
g101
g102
ssg83
g4052
sg76
(lp4063
S':'
asbag69
(g90
g71
NtRp4064
(dp4065
g74
(dp4066
sg83
g4052
sg76
(lp4067
g69
(g70
g71
NtRp4068
(dp4069
g74
(dp4070
g82
I5
ssg83
g4064
sg76
(lp4071
g2215
asbasbasbag69
(g85
g71
NtRp4072
(dp4073
g74
(dp4074
sg83
g2958
sg76
(lp4075
g69
(g90
g71
NtRp4076
(dp4077
g74
(dp4078
g94
g95
ssg83
g4072
sg76
(lp4079
S'view'
p4080
asbag69
(g90
g71
NtRp4081
(dp4082
g74
(dp4083
g101
g102
ssg83
g4072
sg76
(lp4084
S':'
asbag69
(g90
g71
NtRp4085
(dp4086
g74
(dp4087
sg83
g4072
sg76
(lp4088
g69
(g70
g71
NtRp4089
(dp4090
g74
(dp4091
g82
I5
ssg83
g4085
sg76
(lp4092
S'member/profile.html'
p4093
asbasbasbasbasbsS'locals'
p4094
(dp4095
g4
S"'/home/kaique/Projects/web/big-votes/web2py/applications/bigvotes/controllers/member.py'"
p4096
sg6
S"'# -*- coding: utf-8 -*-\\nfrom bigvotes import Mem...bers\\n\\t}\\nresponse._vars=response._caller(profile)\\n'"
p4097
sssS'traceback'
p4098
S'Traceback (most recent call last):\n  File "/home/kaique/Projects/web/big-votes/web2py/gluon/restricted.py", line 204, in restricted\n    ccode = compile2(code,layer)\n  File "/home/kaique/Projects/web/big-votes/web2py/gluon/restricted.py", line 189, in compile2\n    return compile(code.rstrip().replace(\'\\r\\n\',\'\\n\')+\'\\n\', layer, \'exec\')\n  File "/home/kaique/Projects/web/big-votes/web2py/applications/bigvotes/controllers/member.py", line 16\n    member = member.first() if len( member ) == 1\n                                                ^\nSyntaxError: invalid syntax\n'
p4099
s.