(dp1
S'output'
p2
S"<type 'exceptions.SyntaxError'> invalid syntax (default.py, line 2)"
p3
sS'layer'
p4
S'/Users/kaiquesilva/Projects/WebApps/big-votes/web2py/applications/bigvotes/controllers/default.py'
p5
sS'code'
p6
S'# -*- coding: utf-8 -*-\nfrom bigvotes import Votes, Votes.hello\nimport datetime\n\ndef index():\n    # Now time\n    now = datetime.datetime.now()\n    # Get votation members\n    votes = Votes( db ).getActives()\n    specs = {}\n\n    if votes:\n        votes = votes.first()\n        # Specifications of member\n        specs = {\n            \'id\': [member.id for member in votes.members],\n            \'title\': [member.name for member in votes.members],\n            \'avatar\': [\n                \'<img src="{0}" width="40%" height="40%" />\'.format( \n                        URL(\'default\', \'download\', args=[member.avatar]\n                    ) \n                ) for member in votes.members\n            ],\n            \'start\': votes.start_at,\n            \'end\': votes.end_at,\n        }\n\n    return {\n        \'now\': now,\n        \'votes\': votes,\n        \'specs\': specs\n    }\n\n@Votes(db).hello()\ndef user():\n    return dict(form=auth())\n\n\ndef download():\n    return response.download(request,db)\n\n\ndef call():\n    return service()\n\n\n@auth.requires_signature()\ndef data():\n    return dict(form=crud())\n\n\nresponse._vars=response._caller(index)\n'
p7
sS'snapshot'
p8
(dp9
S'exception'
p10
(dp11
S'__getslice__'
p12
S"<method-wrapper '__getslice__' of exceptions.SyntaxError object>"
p13
sS'text'
p14
S"'from bigvotes import Votes, Votes.hello\\n'"
p15
sS'__str__'
p16
S"<method-wrapper '__str__' of exceptions.SyntaxError object>"
p17
sS'__reduce__'
p18
S'<built-in method __reduce__ of exceptions.SyntaxError object>'
p19
sS'__dict__'
p20
S'{}'
p21
sS'__sizeof__'
p22
S'<built-in method __sizeof__ of exceptions.SyntaxError object>'
p23
sS'__init__'
p24
S"<method-wrapper '__init__' of exceptions.SyntaxError object>"
p25
sS'__setattr__'
p26
S"<method-wrapper '__setattr__' of exceptions.SyntaxError object>"
p27
sS'__reduce_ex__'
p28
S'<built-in method __reduce_ex__ of exceptions.SyntaxError object>'
p29
sS'__new__'
p30
S'<built-in method __new__ of type object>'
p31
sS'__format__'
p32
S'<built-in method __format__ of exceptions.SyntaxError object>'
p33
sS'__class__'
p34
S"<type 'exceptions.SyntaxError'>"
p35
sS'filename'
p36
S"'/Users/kaiquesilva/Projects/WebApps/big-votes/web2py/applications/bigvotes/controllers/default.py'"
p37
sS'lineno'
p38
S'2'
sS'msg'
p39
S"'invalid syntax'"
p40
sS'__doc__'
p41
S"'Invalid syntax.'"
p42
sS'__getitem__'
p43
S"<method-wrapper '__getitem__' of exceptions.SyntaxError object>"
p44
sS'__setstate__'
p45
S'<built-in method __setstate__ of exceptions.SyntaxError object>'
p46
sS'__getattribute__'
p47
S"<method-wrapper '__getattribute__' of exceptions.SyntaxError object>"
p48
sS'print_file_and_line'
p49
S'None'
p50
sS'args'
p51
S"('invalid syntax', ('/Users/kaiquesilva/Projects/WebApps/big-votes/web2py/applications/bigvotes/controllers/default.py', 2, 34, 'from bigvotes import Votes, Votes.hello\\n'))"
p52
sS'__subclasshook__'
p53
S'<built-in method __subclasshook__ of type object>'
p54
sS'offset'
p55
S'34'
p56
sS'__unicode__'
p57
S'<built-in method __unicode__ of exceptions.SyntaxError object>'
p58
sS'__delattr__'
p59
S"<method-wrapper '__delattr__' of exceptions.SyntaxError object>"
p60
sS'__repr__'
p61
S"<method-wrapper '__repr__' of exceptions.SyntaxError object>"
p62
sS'__hash__'
p63
S"<method-wrapper '__hash__' of exceptions.SyntaxError object>"
p64
ssS'evalue'
p65
S'invalid syntax (default.py, line 2)'
p66
sS'request'
p67
ccopy_reg
_reconstructor
p68
(cgluon.html
BEAUTIFY
p69
c__builtin__
object
p70
NtRp71
(dp72
S'attributes'
p73
(dp74
sS'components'
p75
(lp76
g68
(cgluon.html
TABLE
p77
g70
NtRp78
(dp79
g73
(dp80
S'level'
p81
I5
ssS'parent'
p82
Nsg75
(lp83
g68
(cgluon.html
TR
p84
g70
NtRp85
(dp86
g73
(dp87
sg82
g78
sg75
(lp88
g68
(cgluon.html
TD
p89
g70
NtRp90
(dp91
g73
(dp92
S'_style'
p93
S'font-weight:bold;vertical-align:top'
p94
ssg82
g85
sg75
(lp95
S'ajax'
p96
asbag68
(g89
g70
NtRp97
(dp98
g73
(dp99
S'_valign'
p100
S'top'
p101
ssg82
g85
sg75
(lp102
S':'
asbag68
(g89
g70
NtRp103
(dp104
g73
(dp105
sg82
g85
sg75
(lp106
g68
(g69
g70
NtRp107
(dp108
g73
(dp109
g81
I5
ssg82
g103
sg75
(lp110
S'False'
p111
asbasbasbag68
(g84
g70
NtRp112
(dp113
g73
(dp114
sg82
g78
sg75
(lp115
g68
(g89
g70
NtRp116
(dp117
g73
(dp118
g93
g94
ssg82
g112
sg75
(lp119
S'application'
p120
asbag68
(g89
g70
NtRp121
(dp122
g73
(dp123
g100
g101
ssg82
g112
sg75
(lp124
S':'
asbag68
(g89
g70
NtRp125
(dp126
g73
(dp127
sg82
g112
sg75
(lp128
g68
(g69
g70
NtRp129
(dp130
g73
(dp131
g81
I5
ssg82
g125
sg75
(lp132
S'bigvotes'
p133
asbasbasbag68
(g84
g70
NtRp134
(dp135
g73
(dp136
sg82
g78
sg75
(lp137
g68
(g89
g70
NtRp138
(dp139
g73
(dp140
g93
g94
ssg82
g134
sg75
(lp141
g51
asbag68
(g89
g70
NtRp142
(dp143
g73
(dp144
g100
g101
ssg82
g134
sg75
(lp145
S':'
asbag68
(g89
g70
NtRp146
(dp147
g73
(dp148
sg82
g134
sg75
(lp149
g68
(g69
g70
NtRp150
(dp151
g73
(dp152
g81
I5
ssg82
g146
sg75
(lp153
g68
(g77
g70
NtRp154
(dp155
g73
(dp156
g81
I4
ssg82
Nsg75
(lp157
sbasbasbasbag68
(g84
g70
NtRp158
(dp159
g73
(dp160
sg82
g78
sg75
(lp161
g68
(g89
g70
NtRp162
(dp163
g73
(dp164
g93
g94
ssg82
g158
sg75
(lp165
S'body'
p166
asbag68
(g89
g70
NtRp167
(dp168
g73
(dp169
g100
g101
ssg82
g158
sg75
(lp170
S':'
asbag68
(g89
g70
NtRp171
(dp172
g73
(dp173
sg82
g158
sg75
(lp174
g68
(g69
g70
NtRp175
(dp176
g73
(dp177
g81
I5
ssg82
g171
sg75
(lp178
S'<cStringIO.StringO object at 0x1091c0ae8>'
p179
asbasbasbag68
(g84
g70
NtRp180
(dp181
g73
(dp182
sg82
g78
sg75
(lp183
g68
(g89
g70
NtRp184
(dp185
g73
(dp186
g93
g94
ssg82
g180
sg75
(lp187
S'client'
p188
asbag68
(g89
g70
NtRp189
(dp190
g73
(dp191
g100
g101
ssg82
g180
sg75
(lp192
S':'
asbag68
(g89
g70
NtRp193
(dp194
g73
(dp195
sg82
g180
sg75
(lp196
g68
(g69
g70
NtRp197
(dp198
g73
(dp199
g81
I5
ssg82
g193
sg75
(lp200
S'127.0.0.1'
p201
asbasbasbag68
(g84
g70
NtRp202
(dp203
g73
(dp204
sg82
g78
sg75
(lp205
g68
(g89
g70
NtRp206
(dp207
g73
(dp208
g93
g94
ssg82
g202
sg75
(lp209
S'controller'
p210
asbag68
(g89
g70
NtRp211
(dp212
g73
(dp213
g100
g101
ssg82
g202
sg75
(lp214
S':'
asbag68
(g89
g70
NtRp215
(dp216
g73
(dp217
sg82
g202
sg75
(lp218
g68
(g69
g70
NtRp219
(dp220
g73
(dp221
g81
I5
ssg82
g215
sg75
(lp222
S'default'
p223
asbasbasbag68
(g84
g70
NtRp224
(dp225
g73
(dp226
sg82
g78
sg75
(lp227
g68
(g89
g70
NtRp228
(dp229
g73
(dp230
g93
g94
ssg82
g224
sg75
(lp231
S'cookies'
p232
asbag68
(g89
g70
NtRp233
(dp234
g73
(dp235
g100
g101
ssg82
g224
sg75
(lp236
S':'
asbag68
(g89
g70
NtRp237
(dp238
g73
(dp239
sg82
g224
sg75
(lp240
g68
(g69
g70
NtRp241
(dp242
g73
(dp243
g81
I5
ssg82
g237
sg75
(lp244
g68
(g77
g70
NtRp245
(dp246
g73
(dp247
g81
I4
ssg82
Nsg75
(lp248
g68
(g84
g70
NtRp249
(dp250
g73
(dp251
sg82
g245
sg75
(lp252
g68
(g89
g70
NtRp253
(dp254
g73
(dp255
g93
g94
ssg82
g249
sg75
(lp256
S'session_id_admin'
p257
asbag68
(g89
g70
NtRp258
(dp259
g73
(dp260
g100
g101
ssg82
g249
sg75
(lp261
S':'
asbag68
(g89
g70
NtRp262
(dp263
g73
(dp264
sg82
g249
sg75
(lp265
g68
(g69
g70
NtRp266
(dp267
g73
(dp268
g81
I4
ssg82
g262
sg75
(lp269
g68
(g77
g70
NtRp270
(dp271
g73
(dp272
g81
I3
ssg82
Nsg75
(lp273
g68
(g84
g70
NtRp274
(dp275
g73
(dp276
sg82
g270
sg75
(lp277
g68
(g89
g70
NtRp278
(dp279
g73
(dp280
g93
g94
ssg82
g274
sg75
(lp281
S'comment'
p282
asbag68
(g89
g70
NtRp283
(dp284
g73
(dp285
g100
g101
ssg82
g274
sg75
(lp286
S':'
asbag68
(g89
g70
NtRp287
(dp288
g73
(dp289
sg82
g274
sg75
(lp290
g68
(g69
g70
NtRp291
(dp292
g73
(dp293
g81
I3
ssg82
g287
sg75
(lp294
S''
asbasbasbag68
(g84
g70
NtRp295
(dp296
g73
(dp297
sg82
g270
sg75
(lp298
g68
(g89
g70
NtRp299
(dp300
g73
(dp301
g93
g94
ssg82
g295
sg75
(lp302
S'domain'
p303
asbag68
(g89
g70
NtRp304
(dp305
g73
(dp306
g100
g101
ssg82
g295
sg75
(lp307
S':'
asbag68
(g89
g70
NtRp308
(dp309
g73
(dp310
sg82
g295
sg75
(lp311
g68
(g69
g70
NtRp312
(dp313
g73
(dp314
g81
I3
ssg82
g308
sg75
(lp315
S''
asbasbasbag68
(g84
g70
NtRp316
(dp317
g73
(dp318
sg82
g270
sg75
(lp319
g68
(g89
g70
NtRp320
(dp321
g73
(dp322
g93
g94
ssg82
g316
sg75
(lp323
S'expires'
p324
asbag68
(g89
g70
NtRp325
(dp326
g73
(dp327
g100
g101
ssg82
g316
sg75
(lp328
S':'
asbag68
(g89
g70
NtRp329
(dp330
g73
(dp331
sg82
g316
sg75
(lp332
g68
(g69
g70
NtRp333
(dp334
g73
(dp335
g81
I3
ssg82
g329
sg75
(lp336
S''
asbasbasbag68
(g84
g70
NtRp337
(dp338
g73
(dp339
sg82
g270
sg75
(lp340
g68
(g89
g70
NtRp341
(dp342
g73
(dp343
g93
g94
ssg82
g337
sg75
(lp344
S'httponly'
p345
asbag68
(g89
g70
NtRp346
(dp347
g73
(dp348
g100
g101
ssg82
g337
sg75
(lp349
S':'
asbag68
(g89
g70
NtRp350
(dp351
g73
(dp352
sg82
g337
sg75
(lp353
g68
(g69
g70
NtRp354
(dp355
g73
(dp356
g81
I3
ssg82
g350
sg75
(lp357
S''
asbasbasbag68
(g84
g70
NtRp358
(dp359
g73
(dp360
sg82
g270
sg75
(lp361
g68
(g89
g70
NtRp362
(dp363
g73
(dp364
g93
g94
ssg82
g358
sg75
(lp365
S'max-age'
p366
asbag68
(g89
g70
NtRp367
(dp368
g73
(dp369
g100
g101
ssg82
g358
sg75
(lp370
S':'
asbag68
(g89
g70
NtRp371
(dp372
g73
(dp373
sg82
g358
sg75
(lp374
g68
(g69
g70
NtRp375
(dp376
g73
(dp377
g81
I3
ssg82
g371
sg75
(lp378
S''
asbasbasbag68
(g84
g70
NtRp379
(dp380
g73
(dp381
sg82
g270
sg75
(lp382
g68
(g89
g70
NtRp383
(dp384
g73
(dp385
g93
g94
ssg82
g379
sg75
(lp386
S'path'
p387
asbag68
(g89
g70
NtRp388
(dp389
g73
(dp390
g100
g101
ssg82
g379
sg75
(lp391
S':'
asbag68
(g89
g70
NtRp392
(dp393
g73
(dp394
sg82
g379
sg75
(lp395
g68
(g69
g70
NtRp396
(dp397
g73
(dp398
g81
I3
ssg82
g392
sg75
(lp399
S''
asbasbasbag68
(g84
g70
NtRp400
(dp401
g73
(dp402
sg82
g270
sg75
(lp403
g68
(g89
g70
NtRp404
(dp405
g73
(dp406
g93
g94
ssg82
g400
sg75
(lp407
S'secure'
p408
asbag68
(g89
g70
NtRp409
(dp410
g73
(dp411
g100
g101
ssg82
g400
sg75
(lp412
S':'
asbag68
(g89
g70
NtRp413
(dp414
g73
(dp415
sg82
g400
sg75
(lp416
g68
(g69
g70
NtRp417
(dp418
g73
(dp419
g81
I3
ssg82
g413
sg75
(lp420
S''
asbasbasbag68
(g84
g70
NtRp421
(dp422
g73
(dp423
sg82
g270
sg75
(lp424
g68
(g89
g70
NtRp425
(dp426
g73
(dp427
g93
g94
ssg82
g421
sg75
(lp428
S'version'
p429
asbag68
(g89
g70
NtRp430
(dp431
g73
(dp432
g100
g101
ssg82
g421
sg75
(lp433
S':'
asbag68
(g89
g70
NtRp434
(dp435
g73
(dp436
sg82
g421
sg75
(lp437
g68
(g69
g70
NtRp438
(dp439
g73
(dp440
g81
I3
ssg82
g434
sg75
(lp441
S''
asbasbasbasbasbasbasbag68
(g84
g70
NtRp442
(dp443
g73
(dp444
sg82
g245
sg75
(lp445
g68
(g89
g70
NtRp446
(dp447
g73
(dp448
g93
g94
ssg82
g442
sg75
(lp449
S'session_id_bigvotes'
p450
asbag68
(g89
g70
NtRp451
(dp452
g73
(dp453
g100
g101
ssg82
g442
sg75
(lp454
S':'
asbag68
(g89
g70
NtRp455
(dp456
g73
(dp457
sg82
g442
sg75
(lp458
g68
(g69
g70
NtRp459
(dp460
g73
(dp461
g81
I4
ssg82
g455
sg75
(lp462
g68
(g77
g70
NtRp463
(dp464
g73
(dp465
g81
I3
ssg82
Nsg75
(lp466
g68
(g84
g70
NtRp467
(dp468
g73
(dp469
sg82
g463
sg75
(lp470
g68
(g89
g70
NtRp471
(dp472
g73
(dp473
g93
g94
ssg82
g467
sg75
(lp474
g282
asbag68
(g89
g70
NtRp475
(dp476
g73
(dp477
g100
g101
ssg82
g467
sg75
(lp478
S':'
asbag68
(g89
g70
NtRp479
(dp480
g73
(dp481
sg82
g467
sg75
(lp482
g68
(g69
g70
NtRp483
(dp484
g73
(dp485
g81
I3
ssg82
g479
sg75
(lp486
S''
asbasbasbag68
(g84
g70
NtRp487
(dp488
g73
(dp489
sg82
g463
sg75
(lp490
g68
(g89
g70
NtRp491
(dp492
g73
(dp493
g93
g94
ssg82
g487
sg75
(lp494
g303
asbag68
(g89
g70
NtRp495
(dp496
g73
(dp497
g100
g101
ssg82
g487
sg75
(lp498
S':'
asbag68
(g89
g70
NtRp499
(dp500
g73
(dp501
sg82
g487
sg75
(lp502
g68
(g69
g70
NtRp503
(dp504
g73
(dp505
g81
I3
ssg82
g499
sg75
(lp506
S''
asbasbasbag68
(g84
g70
NtRp507
(dp508
g73
(dp509
sg82
g463
sg75
(lp510
g68
(g89
g70
NtRp511
(dp512
g73
(dp513
g93
g94
ssg82
g507
sg75
(lp514
g324
asbag68
(g89
g70
NtRp515
(dp516
g73
(dp517
g100
g101
ssg82
g507
sg75
(lp518
S':'
asbag68
(g89
g70
NtRp519
(dp520
g73
(dp521
sg82
g507
sg75
(lp522
g68
(g69
g70
NtRp523
(dp524
g73
(dp525
g81
I3
ssg82
g519
sg75
(lp526
S''
asbasbasbag68
(g84
g70
NtRp527
(dp528
g73
(dp529
sg82
g463
sg75
(lp530
g68
(g89
g70
NtRp531
(dp532
g73
(dp533
g93
g94
ssg82
g527
sg75
(lp534
g345
asbag68
(g89
g70
NtRp535
(dp536
g73
(dp537
g100
g101
ssg82
g527
sg75
(lp538
S':'
asbag68
(g89
g70
NtRp539
(dp540
g73
(dp541
sg82
g527
sg75
(lp542
g68
(g69
g70
NtRp543
(dp544
g73
(dp545
g81
I3
ssg82
g539
sg75
(lp546
S''
asbasbasbag68
(g84
g70
NtRp547
(dp548
g73
(dp549
sg82
g463
sg75
(lp550
g68
(g89
g70
NtRp551
(dp552
g73
(dp553
g93
g94
ssg82
g547
sg75
(lp554
g366
asbag68
(g89
g70
NtRp555
(dp556
g73
(dp557
g100
g101
ssg82
g547
sg75
(lp558
S':'
asbag68
(g89
g70
NtRp559
(dp560
g73
(dp561
sg82
g547
sg75
(lp562
g68
(g69
g70
NtRp563
(dp564
g73
(dp565
g81
I3
ssg82
g559
sg75
(lp566
S''
asbasbasbag68
(g84
g70
NtRp567
(dp568
g73
(dp569
sg82
g463
sg75
(lp570
g68
(g89
g70
NtRp571
(dp572
g73
(dp573
g93
g94
ssg82
g567
sg75
(lp574
g387
asbag68
(g89
g70
NtRp575
(dp576
g73
(dp577
g100
g101
ssg82
g567
sg75
(lp578
S':'
asbag68
(g89
g70
NtRp579
(dp580
g73
(dp581
sg82
g567
sg75
(lp582
g68
(g69
g70
NtRp583
(dp584
g73
(dp585
g81
I3
ssg82
g579
sg75
(lp586
S''
asbasbasbag68
(g84
g70
NtRp587
(dp588
g73
(dp589
sg82
g463
sg75
(lp590
g68
(g89
g70
NtRp591
(dp592
g73
(dp593
g93
g94
ssg82
g587
sg75
(lp594
g408
asbag68
(g89
g70
NtRp595
(dp596
g73
(dp597
g100
g101
ssg82
g587
sg75
(lp598
S':'
asbag68
(g89
g70
NtRp599
(dp600
g73
(dp601
sg82
g587
sg75
(lp602
g68
(g69
g70
NtRp603
(dp604
g73
(dp605
g81
I3
ssg82
g599
sg75
(lp606
S''
asbasbasbag68
(g84
g70
NtRp607
(dp608
g73
(dp609
sg82
g463
sg75
(lp610
g68
(g89
g70
NtRp611
(dp612
g73
(dp613
g93
g94
ssg82
g607
sg75
(lp614
g429
asbag68
(g89
g70
NtRp615
(dp616
g73
(dp617
g100
g101
ssg82
g607
sg75
(lp618
S':'
asbag68
(g89
g70
NtRp619
(dp620
g73
(dp621
sg82
g607
sg75
(lp622
g68
(g69
g70
NtRp623
(dp624
g73
(dp625
g81
I3
ssg82
g619
sg75
(lp626
S''
asbasbasbasbasbasbasbasbasbasbasbag68
(g84
g70
NtRp627
(dp628
g73
(dp629
sg82
g78
sg75
(lp630
g68
(g89
g70
NtRp631
(dp632
g73
(dp633
g93
g94
ssg82
g627
sg75
(lp634
S'env'
p635
asbag68
(g89
g70
NtRp636
(dp637
g73
(dp638
g100
g101
ssg82
g627
sg75
(lp639
S':'
asbag68
(g89
g70
NtRp640
(dp641
g73
(dp642
sg82
g627
sg75
(lp643
g68
(g69
g70
NtRp644
(dp645
g73
(dp646
g81
I5
ssg82
g640
sg75
(lp647
g68
(g77
g70
NtRp648
(dp649
g73
(dp650
g81
I4
ssg82
Nsg75
(lp651
g68
(g84
g70
NtRp652
(dp653
g73
(dp654
sg82
g648
sg75
(lp655
g68
(g89
g70
NtRp656
(dp657
g73
(dp658
g93
g94
ssg82
g652
sg75
(lp659
S'app_folders'
p660
asbag68
(g89
g70
NtRp661
(dp662
g73
(dp663
g100
g101
ssg82
g652
sg75
(lp664
S':'
asbag68
(g89
g70
NtRp665
(dp666
g73
(dp667
sg82
g652
sg75
(lp668
g68
(g69
g70
NtRp669
(dp670
g73
(dp671
g81
I4
ssg82
g665
sg75
(lp672
S"set(['/Users/kaiquesilva/Projects/WebApps/big-votes/web2py/applications/bigvotes/'])"
p673
asbasbasbag68
(g84
g70
NtRp674
(dp675
g73
(dp676
sg82
g648
sg75
(lp677
g68
(g89
g70
NtRp678
(dp679
g73
(dp680
g93
g94
ssg82
g674
sg75
(lp681
S'applications_parent'
p682
asbag68
(g89
g70
NtRp683
(dp684
g73
(dp685
g100
g101
ssg82
g674
sg75
(lp686
S':'
asbag68
(g89
g70
NtRp687
(dp688
g73
(dp689
sg82
g674
sg75
(lp690
g68
(g69
g70
NtRp691
(dp692
g73
(dp693
g81
I4
ssg82
g687
sg75
(lp694
S'/Users/kaiquesilva/Projects/WebApps/big-votes/web2py'
p695
asbasbasbag68
(g84
g70
NtRp696
(dp697
g73
(dp698
sg82
g648
sg75
(lp699
g68
(g89
g70
NtRp700
(dp701
g73
(dp702
g93
g94
ssg82
g696
sg75
(lp703
S'cmd_args'
p704
asbag68
(g89
g70
NtRp705
(dp706
g73
(dp707
g100
g101
ssg82
g696
sg75
(lp708
S':'
asbag68
(g89
g70
NtRp709
(dp710
g73
(dp711
sg82
g696
sg75
(lp712
g68
(g69
g70
NtRp713
(dp714
g73
(dp715
g81
I4
ssg82
g709
sg75
(lp716
g68
(g77
g70
NtRp717
(dp718
g73
(dp719
g81
I3
ssg82
Nsg75
(lp720
sbasbasbasbag68
(g84
g70
NtRp721
(dp722
g73
(dp723
sg82
g648
sg75
(lp724
g68
(g89
g70
NtRp725
(dp726
g73
(dp727
g93
g94
ssg82
g721
sg75
(lp728
S'cmd_options'
p729
asbag68
(g89
g70
NtRp730
(dp731
g73
(dp732
g100
g101
ssg82
g721
sg75
(lp733
S':'
asbag68
(g89
g70
NtRp734
(dp735
g73
(dp736
sg82
g721
sg75
(lp737
g68
(g69
g70
NtRp738
(dp739
g73
(dp740
g81
I4
ssg82
g734
sg75
(lp741
S"<Values at 0x1091dbc68: {'verbose': False, 'ip': '127.0.0.1', 'shutdown_timeout': 5, 'taskbar': False, 'nocron': False, 'pid_filename': 'httpserver.pid', 'maxthreads': None, 'softcron': False, 'server_name': 'iMac-de-Kaique.local', 'bpython': False, 'nogui': False, 'port': 8000, 'extcron': False, 'debuglevel': 30, 'test': None, 'folder': '/Users/kaiquesilva/Projects/WebApps/big-votes/web2py', 'config': '', 'import_models': False, 'winservice': '', 'shell': None, 'run': '', 'log_filename': 'httpserver.log', 'args': [''], 'socket_timeout': 5, 'ssl_ca_certificate': None, 'scheduler': None, 'profiler_filename': None, 'ssl_private_key': '', 'password': 'dev', 'request_queue_size': 5, 'ssl_certificate': '', 'cronjob': False, 'numthreads': None, 'quiet': False, 'interfaces': None, 'minthreads': None, 'timeout': 10, 'plain': False, 'nobanner': False}>"
p742
asbasbasbag68
(g84
g70
NtRp743
(dp744
g73
(dp745
sg82
g648
sg75
(lp746
g68
(g89
g70
NtRp747
(dp748
g73
(dp749
g93
g94
ssg82
g743
sg75
(lp750
S'db_sessions'
p751
asbag68
(g89
g70
NtRp752
(dp753
g73
(dp754
g100
g101
ssg82
g743
sg75
(lp755
S':'
asbag68
(g89
g70
NtRp756
(dp757
g73
(dp758
sg82
g743
sg75
(lp759
g68
(g69
g70
NtRp760
(dp761
g73
(dp762
g81
I4
ssg82
g756
sg75
(lp763
S'set([])'
p764
asbasbasbag68
(g84
g70
NtRp765
(dp766
g73
(dp767
sg82
g648
sg75
(lp768
g68
(g89
g70
NtRp769
(dp770
g73
(dp771
g93
g94
ssg82
g765
sg75
(lp772
S'debugging'
p773
asbag68
(g89
g70
NtRp774
(dp775
g73
(dp776
g100
g101
ssg82
g765
sg75
(lp777
S':'
asbag68
(g89
g70
NtRp778
(dp779
g73
(dp780
sg82
g765
sg75
(lp781
g68
(g69
g70
NtRp782
(dp783
g73
(dp784
g81
I4
ssg82
g778
sg75
(lp785
g111
asbasbasbag68
(g84
g70
NtRp786
(dp787
g73
(dp788
sg82
g648
sg75
(lp789
g68
(g89
g70
NtRp790
(dp791
g73
(dp792
g93
g94
ssg82
g786
sg75
(lp793
S'gluon_parent'
p794
asbag68
(g89
g70
NtRp795
(dp796
g73
(dp797
g100
g101
ssg82
g786
sg75
(lp798
S':'
asbag68
(g89
g70
NtRp799
(dp800
g73
(dp801
sg82
g786
sg75
(lp802
g68
(g69
g70
NtRp803
(dp804
g73
(dp805
g81
I4
ssg82
g799
sg75
(lp806
S'/Users/kaiquesilva/Projects/WebApps/big-votes/web2py'
p807
asbasbasbag68
(g84
g70
NtRp808
(dp809
g73
(dp810
sg82
g648
sg75
(lp811
g68
(g89
g70
NtRp812
(dp813
g73
(dp814
g93
g94
ssg82
g808
sg75
(lp815
S'http_accept'
p816
asbag68
(g89
g70
NtRp817
(dp818
g73
(dp819
g100
g101
ssg82
g808
sg75
(lp820
S':'
asbag68
(g89
g70
NtRp821
(dp822
g73
(dp823
sg82
g808
sg75
(lp824
g68
(g69
g70
NtRp825
(dp826
g73
(dp827
g81
I4
ssg82
g821
sg75
(lp828
S'text/html,application/xhtml+xml,application/xml;q=0.9,*/*;q=0.8'
p829
asbasbasbag68
(g84
g70
NtRp830
(dp831
g73
(dp832
sg82
g648
sg75
(lp833
g68
(g89
g70
NtRp834
(dp835
g73
(dp836
g93
g94
ssg82
g830
sg75
(lp837
S'http_accept_encoding'
p838
asbag68
(g89
g70
NtRp839
(dp840
g73
(dp841
g100
g101
ssg82
g830
sg75
(lp842
S':'
asbag68
(g89
g70
NtRp843
(dp844
g73
(dp845
sg82
g830
sg75
(lp846
g68
(g69
g70
NtRp847
(dp848
g73
(dp849
g81
I4
ssg82
g843
sg75
(lp850
S'gzip, deflate'
p851
asbasbasbag68
(g84
g70
NtRp852
(dp853
g73
(dp854
sg82
g648
sg75
(lp855
g68
(g89
g70
NtRp856
(dp857
g73
(dp858
g93
g94
ssg82
g852
sg75
(lp859
S'http_accept_language'
p860
asbag68
(g89
g70
NtRp861
(dp862
g73
(dp863
g100
g101
ssg82
g852
sg75
(lp864
S':'
asbag68
(g89
g70
NtRp865
(dp866
g73
(dp867
sg82
g852
sg75
(lp868
g68
(g69
g70
NtRp869
(dp870
g73
(dp871
g81
I4
ssg82
g865
sg75
(lp872
S'en-us,en;q=0.5'
p873
asbasbasbag68
(g84
g70
NtRp874
(dp875
g73
(dp876
sg82
g648
sg75
(lp877
g68
(g89
g70
NtRp878
(dp879
g73
(dp880
g93
g94
ssg82
g874
sg75
(lp881
S'http_cache_control'
p882
asbag68
(g89
g70
NtRp883
(dp884
g73
(dp885
g100
g101
ssg82
g874
sg75
(lp886
S':'
asbag68
(g89
g70
NtRp887
(dp888
g73
(dp889
sg82
g874
sg75
(lp890
g68
(g69
g70
NtRp891
(dp892
g73
(dp893
g81
I4
ssg82
g887
sg75
(lp894
S'max-age=0'
p895
asbasbasbag68
(g84
g70
NtRp896
(dp897
g73
(dp898
sg82
g648
sg75
(lp899
g68
(g89
g70
NtRp900
(dp901
g73
(dp902
g93
g94
ssg82
g896
sg75
(lp903
S'http_connection'
p904
asbag68
(g89
g70
NtRp905
(dp906
g73
(dp907
g100
g101
ssg82
g896
sg75
(lp908
S':'
asbag68
(g89
g70
NtRp909
(dp910
g73
(dp911
sg82
g896
sg75
(lp912
g68
(g69
g70
NtRp913
(dp914
g73
(dp915
g81
I4
ssg82
g909
sg75
(lp916
S'keep-alive'
p917
asbasbasbag68
(g84
g70
NtRp918
(dp919
g73
(dp920
sg82
g648
sg75
(lp921
g68
(g89
g70
NtRp922
(dp923
g73
(dp924
g93
g94
ssg82
g918
sg75
(lp925
S'http_cookie'
p926
asbag68
(g89
g70
NtRp927
(dp928
g73
(dp929
g100
g101
ssg82
g918
sg75
(lp930
S':'
asbag68
(g89
g70
NtRp931
(dp932
g73
(dp933
sg82
g918
sg75
(lp934
g68
(g69
g70
NtRp935
(dp936
g73
(dp937
g81
I4
ssg82
g931
sg75
(lp938
S'session_id_bigvotes=127.0.0.1-0c65f91e-3424-4f01-826a-fccbbef12bf1; session_id_admin=127.0.0.1-f6b247a3-0842-45e1-be58-ee62c17e5b28'
p939
asbasbasbag68
(g84
g70
NtRp940
(dp941
g73
(dp942
sg82
g648
sg75
(lp943
g68
(g89
g70
NtRp944
(dp945
g73
(dp946
g93
g94
ssg82
g940
sg75
(lp947
S'http_host'
p948
asbag68
(g89
g70
NtRp949
(dp950
g73
(dp951
g100
g101
ssg82
g940
sg75
(lp952
S':'
asbag68
(g89
g70
NtRp953
(dp954
g73
(dp955
sg82
g940
sg75
(lp956
g68
(g69
g70
NtRp957
(dp958
g73
(dp959
g81
I4
ssg82
g953
sg75
(lp960
S'localhost:8000'
p961
asbasbasbag68
(g84
g70
NtRp962
(dp963
g73
(dp964
sg82
g648
sg75
(lp965
g68
(g89
g70
NtRp966
(dp967
g73
(dp968
g93
g94
ssg82
g962
sg75
(lp969
S'http_referer'
p970
asbag68
(g89
g70
NtRp971
(dp972
g73
(dp973
g100
g101
ssg82
g962
sg75
(lp974
S':'
asbag68
(g89
g70
NtRp975
(dp976
g73
(dp977
sg82
g962
sg75
(lp978
g68
(g69
g70
NtRp979
(dp980
g73
(dp981
g81
I4
ssg82
g975
sg75
(lp982
S'http://localhost:8000/bigvotes/member/index'
p983
asbasbasbag68
(g84
g70
NtRp984
(dp985
g73
(dp986
sg82
g648
sg75
(lp987
g68
(g89
g70
NtRp988
(dp989
g73
(dp990
g93
g94
ssg82
g984
sg75
(lp991
S'http_user_agent'
p992
asbag68
(g89
g70
NtRp993
(dp994
g73
(dp995
g100
g101
ssg82
g984
sg75
(lp996
S':'
asbag68
(g89
g70
NtRp997
(dp998
g73
(dp999
sg82
g984
sg75
(lp1000
g68
(g69
g70
NtRp1001
(dp1002
g73
(dp1003
g81
I4
ssg82
g997
sg75
(lp1004
S'Mozilla/5.0 (Macintosh; Intel Mac OS X 10.7; rv:12.0) Gecko/20100101 Firefox/12.0'
p1005
asbasbasbag68
(g84
g70
NtRp1006
(dp1007
g73
(dp1008
sg82
g648
sg75
(lp1009
g68
(g89
g70
NtRp1010
(dp1011
g73
(dp1012
g93
g94
ssg82
g1006
sg75
(lp1013
S'is_jython'
p1014
asbag68
(g89
g70
NtRp1015
(dp1016
g73
(dp1017
g100
g101
ssg82
g1006
sg75
(lp1018
S':'
asbag68
(g89
g70
NtRp1019
(dp1020
g73
(dp1021
sg82
g1006
sg75
(lp1022
g68
(g69
g70
NtRp1023
(dp1024
g73
(dp1025
g81
I4
ssg82
g1019
sg75
(lp1026
g111
asbasbasbag68
(g84
g70
NtRp1027
(dp1028
g73
(dp1029
sg82
g648
sg75
(lp1030
g68
(g89
g70
NtRp1031
(dp1032
g73
(dp1033
g93
g94
ssg82
g1027
sg75
(lp1034
S'is_pypy'
p1035
asbag68
(g89
g70
NtRp1036
(dp1037
g73
(dp1038
g100
g101
ssg82
g1027
sg75
(lp1039
S':'
asbag68
(g89
g70
NtRp1040
(dp1041
g73
(dp1042
sg82
g1027
sg75
(lp1043
g68
(g69
g70
NtRp1044
(dp1045
g73
(dp1046
g81
I4
ssg82
g1040
sg75
(lp1047
g111
asbasbasbag68
(g84
g70
NtRp1048
(dp1049
g73
(dp1050
sg82
g648
sg75
(lp1051
g68
(g89
g70
NtRp1052
(dp1053
g73
(dp1054
g93
g94
ssg82
g1048
sg75
(lp1055
S'path_info'
p1056
asbag68
(g89
g70
NtRp1057
(dp1058
g73
(dp1059
g100
g101
ssg82
g1048
sg75
(lp1060
S':'
asbag68
(g89
g70
NtRp1061
(dp1062
g73
(dp1063
sg82
g1048
sg75
(lp1064
g68
(g69
g70
NtRp1065
(dp1066
g73
(dp1067
g81
I4
ssg82
g1061
sg75
(lp1068
S'/bigvotes/default/index'
p1069
asbasbasbag68
(g84
g70
NtRp1070
(dp1071
g73
(dp1072
sg82
g648
sg75
(lp1073
g68
(g89
g70
NtRp1074
(dp1075
g73
(dp1076
g93
g94
ssg82
g1070
sg75
(lp1077
S'query_string'
p1078
asbag68
(g89
g70
NtRp1079
(dp1080
g73
(dp1081
g100
g101
ssg82
g1070
sg75
(lp1082
S':'
asbag68
(g89
g70
NtRp1083
(dp1084
g73
(dp1085
sg82
g1070
sg75
(lp1086
g68
(g69
g70
NtRp1087
(dp1088
g73
(dp1089
g81
I4
ssg82
g1083
sg75
(lp1090
S''
asbasbasbag68
(g84
g70
NtRp1091
(dp1092
g73
(dp1093
sg82
g648
sg75
(lp1094
g68
(g89
g70
NtRp1095
(dp1096
g73
(dp1097
g93
g94
ssg82
g1091
sg75
(lp1098
S'remote_addr'
p1099
asbag68
(g89
g70
NtRp1100
(dp1101
g73
(dp1102
g100
g101
ssg82
g1091
sg75
(lp1103
S':'
asbag68
(g89
g70
NtRp1104
(dp1105
g73
(dp1106
sg82
g1091
sg75
(lp1107
g68
(g69
g70
NtRp1108
(dp1109
g73
(dp1110
g81
I4
ssg82
g1104
sg75
(lp1111
g201
asbasbasbag68
(g84
g70
NtRp1112
(dp1113
g73
(dp1114
sg82
g648
sg75
(lp1115
g68
(g89
g70
NtRp1116
(dp1117
g73
(dp1118
g93
g94
ssg82
g1112
sg75
(lp1119
S'remote_port'
p1120
asbag68
(g89
g70
NtRp1121
(dp1122
g73
(dp1123
g100
g101
ssg82
g1112
sg75
(lp1124
S':'
asbag68
(g89
g70
NtRp1125
(dp1126
g73
(dp1127
sg82
g1112
sg75
(lp1128
g68
(g69
g70
NtRp1129
(dp1130
g73
(dp1131
g81
I4
ssg82
g1125
sg75
(lp1132
S'51002'
p1133
asbasbasbag68
(g84
g70
NtRp1134
(dp1135
g73
(dp1136
sg82
g648
sg75
(lp1137
g68
(g89
g70
NtRp1138
(dp1139
g73
(dp1140
g93
g94
ssg82
g1134
sg75
(lp1141
S'request_method'
p1142
asbag68
(g89
g70
NtRp1143
(dp1144
g73
(dp1145
g100
g101
ssg82
g1134
sg75
(lp1146
S':'
asbag68
(g89
g70
NtRp1147
(dp1148
g73
(dp1149
sg82
g1134
sg75
(lp1150
g68
(g69
g70
NtRp1151
(dp1152
g73
(dp1153
g81
I4
ssg82
g1147
sg75
(lp1154
S'GET'
p1155
asbasbasbag68
(g84
g70
NtRp1156
(dp1157
g73
(dp1158
sg82
g648
sg75
(lp1159
g68
(g89
g70
NtRp1160
(dp1161
g73
(dp1162
g93
g94
ssg82
g1156
sg75
(lp1163
S'request_uri'
p1164
asbag68
(g89
g70
NtRp1165
(dp1166
g73
(dp1167
g100
g101
ssg82
g1156
sg75
(lp1168
S':'
asbag68
(g89
g70
NtRp1169
(dp1170
g73
(dp1171
sg82
g1156
sg75
(lp1172
g68
(g69
g70
NtRp1173
(dp1174
g73
(dp1175
g81
I4
ssg82
g1169
sg75
(lp1176
g1069
asbasbasbag68
(g84
g70
NtRp1177
(dp1178
g73
(dp1179
sg82
g648
sg75
(lp1180
g68
(g89
g70
NtRp1181
(dp1182
g73
(dp1183
g93
g94
ssg82
g1177
sg75
(lp1184
S'script_name'
p1185
asbag68
(g89
g70
NtRp1186
(dp1187
g73
(dp1188
g100
g101
ssg82
g1177
sg75
(lp1189
S':'
asbag68
(g89
g70
NtRp1190
(dp1191
g73
(dp1192
sg82
g1177
sg75
(lp1193
g68
(g69
g70
NtRp1194
(dp1195
g73
(dp1196
g81
I4
ssg82
g1190
sg75
(lp1197
S''
asbasbasbag68
(g84
g70
NtRp1198
(dp1199
g73
(dp1200
sg82
g648
sg75
(lp1201
g68
(g89
g70
NtRp1202
(dp1203
g73
(dp1204
g93
g94
ssg82
g1198
sg75
(lp1205
S'server_name'
p1206
asbag68
(g89
g70
NtRp1207
(dp1208
g73
(dp1209
g100
g101
ssg82
g1198
sg75
(lp1210
S':'
asbag68
(g89
g70
NtRp1211
(dp1212
g73
(dp1213
sg82
g1198
sg75
(lp1214
g68
(g69
g70
NtRp1215
(dp1216
g73
(dp1217
g81
I4
ssg82
g1211
sg75
(lp1218
S'iMac-de-Kaique.local'
p1219
asbasbasbag68
(g84
g70
NtRp1220
(dp1221
g73
(dp1222
sg82
g648
sg75
(lp1223
g68
(g89
g70
NtRp1224
(dp1225
g73
(dp1226
g93
g94
ssg82
g1220
sg75
(lp1227
S'server_port'
p1228
asbag68
(g89
g70
NtRp1229
(dp1230
g73
(dp1231
g100
g101
ssg82
g1220
sg75
(lp1232
S':'
asbag68
(g89
g70
NtRp1233
(dp1234
g73
(dp1235
sg82
g1220
sg75
(lp1236
g68
(g69
g70
NtRp1237
(dp1238
g73
(dp1239
g81
I4
ssg82
g1233
sg75
(lp1240
S'8000'
p1241
asbasbasbag68
(g84
g70
NtRp1242
(dp1243
g73
(dp1244
sg82
g648
sg75
(lp1245
g68
(g89
g70
NtRp1246
(dp1247
g73
(dp1248
g93
g94
ssg82
g1242
sg75
(lp1249
S'server_protocol'
p1250
asbag68
(g89
g70
NtRp1251
(dp1252
g73
(dp1253
g100
g101
ssg82
g1242
sg75
(lp1254
S':'
asbag68
(g89
g70
NtRp1255
(dp1256
g73
(dp1257
sg82
g1242
sg75
(lp1258
g68
(g69
g70
NtRp1259
(dp1260
g73
(dp1261
g81
I4
ssg82
g1255
sg75
(lp1262
S'HTTP/1.1'
p1263
asbasbasbag68
(g84
g70
NtRp1264
(dp1265
g73
(dp1266
sg82
g648
sg75
(lp1267
g68
(g89
g70
NtRp1268
(dp1269
g73
(dp1270
g93
g94
ssg82
g1264
sg75
(lp1271
S'server_software'
p1272
asbag68
(g89
g70
NtRp1273
(dp1274
g73
(dp1275
g100
g101
ssg82
g1264
sg75
(lp1276
S':'
asbag68
(g89
g70
NtRp1277
(dp1278
g73
(dp1279
sg82
g1264
sg75
(lp1280
g68
(g69
g70
NtRp1281
(dp1282
g73
(dp1283
g81
I4
ssg82
g1277
sg75
(lp1284
S'Rocket 1.2.4'
p1285
asbasbasbag68
(g84
g70
NtRp1286
(dp1287
g73
(dp1288
sg82
g648
sg75
(lp1289
g68
(g89
g70
NtRp1290
(dp1291
g73
(dp1292
g93
g94
ssg82
g1286
sg75
(lp1293
S'web2py_crontype'
p1294
asbag68
(g89
g70
NtRp1295
(dp1296
g73
(dp1297
g100
g101
ssg82
g1286
sg75
(lp1298
S':'
asbag68
(g89
g70
NtRp1299
(dp1300
g73
(dp1301
sg82
g1286
sg75
(lp1302
g68
(g69
g70
NtRp1303
(dp1304
g73
(dp1305
g81
I4
ssg82
g1299
sg75
(lp1306
S'hard'
p1307
asbasbasbag68
(g84
g70
NtRp1308
(dp1309
g73
(dp1310
sg82
g648
sg75
(lp1311
g68
(g89
g70
NtRp1312
(dp1313
g73
(dp1314
g93
g94
ssg82
g1308
sg75
(lp1315
S'web2py_original_uri'
p1316
asbag68
(g89
g70
NtRp1317
(dp1318
g73
(dp1319
g100
g101
ssg82
g1308
sg75
(lp1320
S':'
asbag68
(g89
g70
NtRp1321
(dp1322
g73
(dp1323
sg82
g1308
sg75
(lp1324
g68
(g69
g70
NtRp1325
(dp1326
g73
(dp1327
g81
I4
ssg82
g1321
sg75
(lp1328
g1069
asbasbasbag68
(g84
g70
NtRp1329
(dp1330
g73
(dp1331
sg82
g648
sg75
(lp1332
g68
(g89
g70
NtRp1333
(dp1334
g73
(dp1335
g93
g94
ssg82
g1329
sg75
(lp1336
S'web2py_path'
p1337
asbag68
(g89
g70
NtRp1338
(dp1339
g73
(dp1340
g100
g101
ssg82
g1329
sg75
(lp1341
S':'
asbag68
(g89
g70
NtRp1342
(dp1343
g73
(dp1344
sg82
g1329
sg75
(lp1345
g68
(g69
g70
NtRp1346
(dp1347
g73
(dp1348
g81
I4
ssg82
g1342
sg75
(lp1349
g695
asbasbasbag68
(g84
g70
NtRp1350
(dp1351
g73
(dp1352
sg82
g648
sg75
(lp1353
g68
(g89
g70
NtRp1354
(dp1355
g73
(dp1356
g93
g94
ssg82
g1350
sg75
(lp1357
S'web2py_version'
p1358
asbag68
(g89
g70
NtRp1359
(dp1360
g73
(dp1361
g100
g101
ssg82
g1350
sg75
(lp1362
S':'
asbag68
(g89
g70
NtRp1363
(dp1364
g73
(dp1365
sg82
g1350
sg75
(lp1366
g68
(g69
g70
NtRp1367
(dp1368
g73
(dp1369
g81
I4
ssg82
g1363
sg75
(lp1370
g68
(g77
g70
NtRp1371
(dp1372
g73
(dp1373
g81
I3
ssg82
Nsg75
(lp1374
g68
(g84
g70
NtRp1375
(dp1376
g73
(dp1377
sg82
g1371
sg75
(lp1378
g68
(g89
g70
NtRp1379
(dp1380
g73
(dp1381
sg82
g1375
sg75
(lp1382
g68
(g69
g70
NtRp1383
(dp1384
g73
(dp1385
g81
I3
ssg82
g1379
sg75
(lp1386
S'1'
asbasbasbag68
(g84
g70
NtRp1387
(dp1388
g73
(dp1389
sg82
g1371
sg75
(lp1390
g68
(g89
g70
NtRp1391
(dp1392
g73
(dp1393
sg82
g1387
sg75
(lp1394
g68
(g69
g70
NtRp1395
(dp1396
g73
(dp1397
g81
I3
ssg82
g1391
sg75
(lp1398
S'99'
p1399
asbasbasbag68
(g84
g70
NtRp1400
(dp1401
g73
(dp1402
sg82
g1371
sg75
(lp1403
g68
(g89
g70
NtRp1404
(dp1405
g73
(dp1406
sg82
g1400
sg75
(lp1407
g68
(g69
g70
NtRp1408
(dp1409
g73
(dp1410
g81
I3
ssg82
g1404
sg75
(lp1411
S'7'
asbasbasbag68
(g84
g70
NtRp1412
(dp1413
g73
(dp1414
sg82
g1371
sg75
(lp1415
g68
(g89
g70
NtRp1416
(dp1417
g73
(dp1418
sg82
g1412
sg75
(lp1419
g68
(g69
g70
NtRp1420
(dp1421
g73
(dp1422
g81
I3
ssg82
g1416
sg75
(lp1423
S'datetime.datetime(2012, 3, 4, 22, 12, 8)'
p1424
asbasbasbag68
(g84
g70
NtRp1425
(dp1426
g73
(dp1427
sg82
g1371
sg75
(lp1428
g68
(g89
g70
NtRp1429
(dp1430
g73
(dp1431
sg82
g1425
sg75
(lp1432
g68
(g69
g70
NtRp1433
(dp1434
g73
(dp1435
g81
I3
ssg82
g1429
sg75
(lp1436
S'stable'
p1437
asbasbasbasbasbasbasbag68
(g84
g70
NtRp1438
(dp1439
g73
(dp1440
sg82
g648
sg75
(lp1441
g68
(g89
g70
NtRp1442
(dp1443
g73
(dp1444
g93
g94
ssg82
g1438
sg75
(lp1445
S'wsgi_errors'
p1446
asbag68
(g89
g70
NtRp1447
(dp1448
g73
(dp1449
g100
g101
ssg82
g1438
sg75
(lp1450
S':'
asbag68
(g89
g70
NtRp1451
(dp1452
g73
(dp1453
sg82
g1438
sg75
(lp1454
g68
(g69
g70
NtRp1455
(dp1456
g73
(dp1457
g81
I4
ssg82
g1451
sg75
(lp1458
S"<open file '<stderr>', mode 'w' at 0x108746270>"
p1459
asbasbasbag68
(g84
g70
NtRp1460
(dp1461
g73
(dp1462
sg82
g648
sg75
(lp1463
g68
(g89
g70
NtRp1464
(dp1465
g73
(dp1466
g93
g94
ssg82
g1460
sg75
(lp1467
S'wsgi_file_wrapper'
p1468
asbag68
(g89
g70
NtRp1469
(dp1470
g73
(dp1471
g100
g101
ssg82
g1460
sg75
(lp1472
S':'
asbag68
(g89
g70
NtRp1473
(dp1474
g73
(dp1475
sg82
g1460
sg75
(lp1476
g68
(g69
g70
NtRp1477
(dp1478
g73
(dp1479
g81
I4
ssg82
g1473
sg75
(lp1480
S'<class wsgiref.util.FileWrapper at 0x1090f23f8>'
p1481
asbasbasbag68
(g84
g70
NtRp1482
(dp1483
g73
(dp1484
sg82
g648
sg75
(lp1485
g68
(g89
g70
NtRp1486
(dp1487
g73
(dp1488
g93
g94
ssg82
g1482
sg75
(lp1489
S'wsgi_input'
p1490
asbag68
(g89
g70
NtRp1491
(dp1492
g73
(dp1493
g100
g101
ssg82
g1482
sg75
(lp1494
S':'
asbag68
(g89
g70
NtRp1495
(dp1496
g73
(dp1497
sg82
g1482
sg75
(lp1498
g68
(g69
g70
NtRp1499
(dp1500
g73
(dp1501
g81
I4
ssg82
g1495
sg75
(lp1502
S'<socket._fileobject object at 0x1088584d0>'
p1503
asbasbasbag68
(g84
g70
NtRp1504
(dp1505
g73
(dp1506
sg82
g648
sg75
(lp1507
g68
(g89
g70
NtRp1508
(dp1509
g73
(dp1510
g93
g94
ssg82
g1504
sg75
(lp1511
S'wsgi_multiprocess'
p1512
asbag68
(g89
g70
NtRp1513
(dp1514
g73
(dp1515
g100
g101
ssg82
g1504
sg75
(lp1516
S':'
asbag68
(g89
g70
NtRp1517
(dp1518
g73
(dp1519
sg82
g1504
sg75
(lp1520
g68
(g69
g70
NtRp1521
(dp1522
g73
(dp1523
g81
I4
ssg82
g1517
sg75
(lp1524
g111
asbasbasbag68
(g84
g70
NtRp1525
(dp1526
g73
(dp1527
sg82
g648
sg75
(lp1528
g68
(g89
g70
NtRp1529
(dp1530
g73
(dp1531
g93
g94
ssg82
g1525
sg75
(lp1532
S'wsgi_multithread'
p1533
asbag68
(g89
g70
NtRp1534
(dp1535
g73
(dp1536
g100
g101
ssg82
g1525
sg75
(lp1537
S':'
asbag68
(g89
g70
NtRp1538
(dp1539
g73
(dp1540
sg82
g1525
sg75
(lp1541
g68
(g69
g70
NtRp1542
(dp1543
g73
(dp1544
g81
I4
ssg82
g1538
sg75
(lp1545
S'True'
p1546
asbasbasbag68
(g84
g70
NtRp1547
(dp1548
g73
(dp1549
sg82
g648
sg75
(lp1550
g68
(g89
g70
NtRp1551
(dp1552
g73
(dp1553
g93
g94
ssg82
g1547
sg75
(lp1554
S'wsgi_run_once'
p1555
asbag68
(g89
g70
NtRp1556
(dp1557
g73
(dp1558
g100
g101
ssg82
g1547
sg75
(lp1559
S':'
asbag68
(g89
g70
NtRp1560
(dp1561
g73
(dp1562
sg82
g1547
sg75
(lp1563
g68
(g69
g70
NtRp1564
(dp1565
g73
(dp1566
g81
I4
ssg82
g1560
sg75
(lp1567
g111
asbasbasbag68
(g84
g70
NtRp1568
(dp1569
g73
(dp1570
sg82
g648
sg75
(lp1571
g68
(g89
g70
NtRp1572
(dp1573
g73
(dp1574
g93
g94
ssg82
g1568
sg75
(lp1575
S'wsgi_url_scheme'
p1576
asbag68
(g89
g70
NtRp1577
(dp1578
g73
(dp1579
g100
g101
ssg82
g1568
sg75
(lp1580
S':'
asbag68
(g89
g70
NtRp1581
(dp1582
g73
(dp1583
sg82
g1568
sg75
(lp1584
g68
(g69
g70
NtRp1585
(dp1586
g73
(dp1587
g81
I4
ssg82
g1581
sg75
(lp1588
S'http'
p1589
asbasbasbag68
(g84
g70
NtRp1590
(dp1591
g73
(dp1592
sg82
g648
sg75
(lp1593
g68
(g89
g70
NtRp1594
(dp1595
g73
(dp1596
g93
g94
ssg82
g1590
sg75
(lp1597
S'wsgi_version'
p1598
asbag68
(g89
g70
NtRp1599
(dp1600
g73
(dp1601
g100
g101
ssg82
g1590
sg75
(lp1602
S':'
asbag68
(g89
g70
NtRp1603
(dp1604
g73
(dp1605
sg82
g1590
sg75
(lp1606
g68
(g69
g70
NtRp1607
(dp1608
g73
(dp1609
g81
I4
ssg82
g1603
sg75
(lp1610
g68
(g77
g70
NtRp1611
(dp1612
g73
(dp1613
g81
I3
ssg82
Nsg75
(lp1614
g68
(g84
g70
NtRp1615
(dp1616
g73
(dp1617
sg82
g1611
sg75
(lp1618
g68
(g89
g70
NtRp1619
(dp1620
g73
(dp1621
sg82
g1615
sg75
(lp1622
g68
(g69
g70
NtRp1623
(dp1624
g73
(dp1625
g81
I3
ssg82
g1619
sg75
(lp1626
S'1'
asbasbasbag68
(g84
g70
NtRp1627
(dp1628
g73
(dp1629
sg82
g1611
sg75
(lp1630
g68
(g89
g70
NtRp1631
(dp1632
g73
(dp1633
sg82
g1627
sg75
(lp1634
g68
(g69
g70
NtRp1635
(dp1636
g73
(dp1637
g81
I3
ssg82
g1631
sg75
(lp1638
S'0'
asbasbasbasbasbasbasbasbasbasbasbag68
(g84
g70
NtRp1639
(dp1640
g73
(dp1641
sg82
g78
sg75
(lp1642
g68
(g89
g70
NtRp1643
(dp1644
g73
(dp1645
g93
g94
ssg82
g1639
sg75
(lp1646
S'extension'
p1647
asbag68
(g89
g70
NtRp1648
(dp1649
g73
(dp1650
g100
g101
ssg82
g1639
sg75
(lp1651
S':'
asbag68
(g89
g70
NtRp1652
(dp1653
g73
(dp1654
sg82
g1639
sg75
(lp1655
g68
(g69
g70
NtRp1656
(dp1657
g73
(dp1658
g81
I5
ssg82
g1652
sg75
(lp1659
S'html'
p1660
asbasbasbag68
(g84
g70
NtRp1661
(dp1662
g73
(dp1663
sg82
g78
sg75
(lp1664
g68
(g89
g70
NtRp1665
(dp1666
g73
(dp1667
g93
g94
ssg82
g1661
sg75
(lp1668
S'folder'
p1669
asbag68
(g89
g70
NtRp1670
(dp1671
g73
(dp1672
g100
g101
ssg82
g1661
sg75
(lp1673
S':'
asbag68
(g89
g70
NtRp1674
(dp1675
g73
(dp1676
sg82
g1661
sg75
(lp1677
g68
(g69
g70
NtRp1678
(dp1679
g73
(dp1680
g81
I5
ssg82
g1674
sg75
(lp1681
S'/Users/kaiquesilva/Projects/WebApps/big-votes/web2py/applications/bigvotes/'
p1682
asbasbasbag68
(g84
g70
NtRp1683
(dp1684
g73
(dp1685
sg82
g78
sg75
(lp1686
g68
(g89
g70
NtRp1687
(dp1688
g73
(dp1689
g93
g94
ssg82
g1683
sg75
(lp1690
S'function'
p1691
asbag68
(g89
g70
NtRp1692
(dp1693
g73
(dp1694
g100
g101
ssg82
g1683
sg75
(lp1695
S':'
asbag68
(g89
g70
NtRp1696
(dp1697
g73
(dp1698
sg82
g1683
sg75
(lp1699
g68
(g69
g70
NtRp1700
(dp1701
g73
(dp1702
g81
I5
ssg82
g1696
sg75
(lp1703
S'index'
p1704
asbasbasbag68
(g84
g70
NtRp1705
(dp1706
g73
(dp1707
sg82
g78
sg75
(lp1708
g68
(g89
g70
NtRp1709
(dp1710
g73
(dp1711
g93
g94
ssg82
g1705
sg75
(lp1712
S'get_vars'
p1713
asbag68
(g89
g70
NtRp1714
(dp1715
g73
(dp1716
g100
g101
ssg82
g1705
sg75
(lp1717
S':'
asbag68
(g89
g70
NtRp1718
(dp1719
g73
(dp1720
sg82
g1705
sg75
(lp1721
g68
(g69
g70
NtRp1722
(dp1723
g73
(dp1724
g81
I5
ssg82
g1718
sg75
(lp1725
g68
(g77
g70
NtRp1726
(dp1727
g73
(dp1728
g81
I4
ssg82
Nsg75
(lp1729
sbasbasbasbag68
(g84
g70
NtRp1730
(dp1731
g73
(dp1732
sg82
g78
sg75
(lp1733
g68
(g89
g70
NtRp1734
(dp1735
g73
(dp1736
g93
g94
ssg82
g1730
sg75
(lp1737
S'global_settings'
p1738
asbag68
(g89
g70
NtRp1739
(dp1740
g73
(dp1741
g100
g101
ssg82
g1730
sg75
(lp1742
S':'
asbag68
(g89
g70
NtRp1743
(dp1744
g73
(dp1745
sg82
g1730
sg75
(lp1746
g68
(g69
g70
NtRp1747
(dp1748
g73
(dp1749
g81
I5
ssg82
g1743
sg75
(lp1750
g68
(g77
g70
NtRp1751
(dp1752
g73
(dp1753
g81
I4
ssg82
Nsg75
(lp1754
g68
(g84
g70
NtRp1755
(dp1756
g73
(dp1757
sg82
g1751
sg75
(lp1758
g68
(g89
g70
NtRp1759
(dp1760
g73
(dp1761
g93
g94
ssg82
g1755
sg75
(lp1762
g660
asbag68
(g89
g70
NtRp1763
(dp1764
g73
(dp1765
g100
g101
ssg82
g1755
sg75
(lp1766
S':'
asbag68
(g89
g70
NtRp1767
(dp1768
g73
(dp1769
sg82
g1755
sg75
(lp1770
g68
(g69
g70
NtRp1771
(dp1772
g73
(dp1773
g81
I4
ssg82
g1767
sg75
(lp1774
S"set(['/Users/kaiquesilva/Projects/WebApps/big-votes/web2py/applications/bigvotes/'])"
p1775
asbasbasbag68
(g84
g70
NtRp1776
(dp1777
g73
(dp1778
sg82
g1751
sg75
(lp1779
g68
(g89
g70
NtRp1780
(dp1781
g73
(dp1782
g93
g94
ssg82
g1776
sg75
(lp1783
g682
asbag68
(g89
g70
NtRp1784
(dp1785
g73
(dp1786
g100
g101
ssg82
g1776
sg75
(lp1787
S':'
asbag68
(g89
g70
NtRp1788
(dp1789
g73
(dp1790
sg82
g1776
sg75
(lp1791
g68
(g69
g70
NtRp1792
(dp1793
g73
(dp1794
g81
I4
ssg82
g1788
sg75
(lp1795
g695
asbasbasbag68
(g84
g70
NtRp1796
(dp1797
g73
(dp1798
sg82
g1751
sg75
(lp1799
g68
(g89
g70
NtRp1800
(dp1801
g73
(dp1802
g93
g94
ssg82
g1796
sg75
(lp1803
g704
asbag68
(g89
g70
NtRp1804
(dp1805
g73
(dp1806
g100
g101
ssg82
g1796
sg75
(lp1807
S':'
asbag68
(g89
g70
NtRp1808
(dp1809
g73
(dp1810
sg82
g1796
sg75
(lp1811
g68
(g69
g70
NtRp1812
(dp1813
g73
(dp1814
g81
I4
ssg82
g1808
sg75
(lp1815
g68
(g77
g70
NtRp1816
(dp1817
g73
(dp1818
g81
I3
ssg82
Nsg75
(lp1819
sbasbasbasbag68
(g84
g70
NtRp1820
(dp1821
g73
(dp1822
sg82
g1751
sg75
(lp1823
g68
(g89
g70
NtRp1824
(dp1825
g73
(dp1826
g93
g94
ssg82
g1820
sg75
(lp1827
g729
asbag68
(g89
g70
NtRp1828
(dp1829
g73
(dp1830
g100
g101
ssg82
g1820
sg75
(lp1831
S':'
asbag68
(g89
g70
NtRp1832
(dp1833
g73
(dp1834
sg82
g1820
sg75
(lp1835
g68
(g69
g70
NtRp1836
(dp1837
g73
(dp1838
g81
I4
ssg82
g1832
sg75
(lp1839
S"<Values at 0x1091dbc68: {'verbose': False, 'ip': '127.0.0.1', 'shutdown_timeout': 5, 'taskbar': False, 'nocron': False, 'pid_filename': 'httpserver.pid', 'maxthreads': None, 'softcron': False, 'server_name': 'iMac-de-Kaique.local', 'bpython': False, 'nogui': False, 'port': 8000, 'extcron': False, 'debuglevel': 30, 'test': None, 'folder': '/Users/kaiquesilva/Projects/WebApps/big-votes/web2py', 'config': '', 'import_models': False, 'winservice': '', 'shell': None, 'run': '', 'log_filename': 'httpserver.log', 'args': [''], 'socket_timeout': 5, 'ssl_ca_certificate': None, 'scheduler': None, 'profiler_filename': None, 'ssl_private_key': '', 'password': 'dev', 'request_queue_size': 5, 'ssl_certificate': '', 'cronjob': False, 'numthreads': None, 'quiet': False, 'interfaces': None, 'minthreads': None, 'timeout': 10, 'plain': False, 'nobanner': False}>"
p1840
asbasbasbag68
(g84
g70
NtRp1841
(dp1842
g73
(dp1843
sg82
g1751
sg75
(lp1844
g68
(g89
g70
NtRp1845
(dp1846
g73
(dp1847
g93
g94
ssg82
g1841
sg75
(lp1848
g751
asbag68
(g89
g70
NtRp1849
(dp1850
g73
(dp1851
g100
g101
ssg82
g1841
sg75
(lp1852
S':'
asbag68
(g89
g70
NtRp1853
(dp1854
g73
(dp1855
sg82
g1841
sg75
(lp1856
g68
(g69
g70
NtRp1857
(dp1858
g73
(dp1859
g81
I4
ssg82
g1853
sg75
(lp1860
S'set([])'
p1861
asbasbasbag68
(g84
g70
NtRp1862
(dp1863
g73
(dp1864
sg82
g1751
sg75
(lp1865
g68
(g89
g70
NtRp1866
(dp1867
g73
(dp1868
g93
g94
ssg82
g1862
sg75
(lp1869
g773
asbag68
(g89
g70
NtRp1870
(dp1871
g73
(dp1872
g100
g101
ssg82
g1862
sg75
(lp1873
S':'
asbag68
(g89
g70
NtRp1874
(dp1875
g73
(dp1876
sg82
g1862
sg75
(lp1877
g68
(g69
g70
NtRp1878
(dp1879
g73
(dp1880
g81
I4
ssg82
g1874
sg75
(lp1881
g111
asbasbasbag68
(g84
g70
NtRp1882
(dp1883
g73
(dp1884
sg82
g1751
sg75
(lp1885
g68
(g89
g70
NtRp1886
(dp1887
g73
(dp1888
g93
g94
ssg82
g1882
sg75
(lp1889
g794
asbag68
(g89
g70
NtRp1890
(dp1891
g73
(dp1892
g100
g101
ssg82
g1882
sg75
(lp1893
S':'
asbag68
(g89
g70
NtRp1894
(dp1895
g73
(dp1896
sg82
g1882
sg75
(lp1897
g68
(g69
g70
NtRp1898
(dp1899
g73
(dp1900
g81
I4
ssg82
g1894
sg75
(lp1901
g807
asbasbasbag68
(g84
g70
NtRp1902
(dp1903
g73
(dp1904
sg82
g1751
sg75
(lp1905
g68
(g89
g70
NtRp1906
(dp1907
g73
(dp1908
g93
g94
ssg82
g1902
sg75
(lp1909
g1014
asbag68
(g89
g70
NtRp1910
(dp1911
g73
(dp1912
g100
g101
ssg82
g1902
sg75
(lp1913
S':'
asbag68
(g89
g70
NtRp1914
(dp1915
g73
(dp1916
sg82
g1902
sg75
(lp1917
g68
(g69
g70
NtRp1918
(dp1919
g73
(dp1920
g81
I4
ssg82
g1914
sg75
(lp1921
g111
asbasbasbag68
(g84
g70
NtRp1922
(dp1923
g73
(dp1924
sg82
g1751
sg75
(lp1925
g68
(g89
g70
NtRp1926
(dp1927
g73
(dp1928
g93
g94
ssg82
g1922
sg75
(lp1929
g1035
asbag68
(g89
g70
NtRp1930
(dp1931
g73
(dp1932
g100
g101
ssg82
g1922
sg75
(lp1933
S':'
asbag68
(g89
g70
NtRp1934
(dp1935
g73
(dp1936
sg82
g1922
sg75
(lp1937
g68
(g69
g70
NtRp1938
(dp1939
g73
(dp1940
g81
I4
ssg82
g1934
sg75
(lp1941
g111
asbasbasbag68
(g84
g70
NtRp1942
(dp1943
g73
(dp1944
sg82
g1751
sg75
(lp1945
g68
(g89
g70
NtRp1946
(dp1947
g73
(dp1948
g93
g94
ssg82
g1942
sg75
(lp1949
g1294
asbag68
(g89
g70
NtRp1950
(dp1951
g73
(dp1952
g100
g101
ssg82
g1942
sg75
(lp1953
S':'
asbag68
(g89
g70
NtRp1954
(dp1955
g73
(dp1956
sg82
g1942
sg75
(lp1957
g68
(g69
g70
NtRp1958
(dp1959
g73
(dp1960
g81
I4
ssg82
g1954
sg75
(lp1961
g1307
asbasbasbag68
(g84
g70
NtRp1962
(dp1963
g73
(dp1964
sg82
g1751
sg75
(lp1965
g68
(g89
g70
NtRp1966
(dp1967
g73
(dp1968
g93
g94
ssg82
g1962
sg75
(lp1969
g1358
asbag68
(g89
g70
NtRp1970
(dp1971
g73
(dp1972
g100
g101
ssg82
g1962
sg75
(lp1973
S':'
asbag68
(g89
g70
NtRp1974
(dp1975
g73
(dp1976
sg82
g1962
sg75
(lp1977
g68
(g69
g70
NtRp1978
(dp1979
g73
(dp1980
g81
I4
ssg82
g1974
sg75
(lp1981
g68
(g77
g70
NtRp1982
(dp1983
g73
(dp1984
g81
I3
ssg82
Nsg75
(lp1985
g68
(g84
g70
NtRp1986
(dp1987
g73
(dp1988
sg82
g1982
sg75
(lp1989
g68
(g89
g70
NtRp1990
(dp1991
g73
(dp1992
sg82
g1986
sg75
(lp1993
g68
(g69
g70
NtRp1994
(dp1995
g73
(dp1996
g81
I3
ssg82
g1990
sg75
(lp1997
S'1'
asbasbasbag68
(g84
g70
NtRp1998
(dp1999
g73
(dp2000
sg82
g1982
sg75
(lp2001
g68
(g89
g70
NtRp2002
(dp2003
g73
(dp2004
sg82
g1998
sg75
(lp2005
g68
(g69
g70
NtRp2006
(dp2007
g73
(dp2008
g81
I3
ssg82
g2002
sg75
(lp2009
S'99'
p2010
asbasbasbag68
(g84
g70
NtRp2011
(dp2012
g73
(dp2013
sg82
g1982
sg75
(lp2014
g68
(g89
g70
NtRp2015
(dp2016
g73
(dp2017
sg82
g2011
sg75
(lp2018
g68
(g69
g70
NtRp2019
(dp2020
g73
(dp2021
g81
I3
ssg82
g2015
sg75
(lp2022
S'7'
asbasbasbag68
(g84
g70
NtRp2023
(dp2024
g73
(dp2025
sg82
g1982
sg75
(lp2026
g68
(g89
g70
NtRp2027
(dp2028
g73
(dp2029
sg82
g2023
sg75
(lp2030
g68
(g69
g70
NtRp2031
(dp2032
g73
(dp2033
g81
I3
ssg82
g2027
sg75
(lp2034
S'datetime.datetime(2012, 3, 4, 22, 12, 8)'
p2035
asbasbasbag68
(g84
g70
NtRp2036
(dp2037
g73
(dp2038
sg82
g1982
sg75
(lp2039
g68
(g89
g70
NtRp2040
(dp2041
g73
(dp2042
sg82
g2036
sg75
(lp2043
g68
(g69
g70
NtRp2044
(dp2045
g73
(dp2046
g81
I3
ssg82
g2040
sg75
(lp2047
g1437
asbasbasbasbasbasbasbasbasbasbasbag68
(g84
g70
NtRp2048
(dp2049
g73
(dp2050
sg82
g78
sg75
(lp2051
g68
(g89
g70
NtRp2052
(dp2053
g73
(dp2054
g93
g94
ssg82
g2048
sg75
(lp2055
S'is_https'
p2056
asbag68
(g89
g70
NtRp2057
(dp2058
g73
(dp2059
g100
g101
ssg82
g2048
sg75
(lp2060
S':'
asbag68
(g89
g70
NtRp2061
(dp2062
g73
(dp2063
sg82
g2048
sg75
(lp2064
g68
(g69
g70
NtRp2065
(dp2066
g73
(dp2067
g81
I5
ssg82
g2061
sg75
(lp2068
g111
asbasbasbag68
(g84
g70
NtRp2069
(dp2070
g73
(dp2071
sg82
g78
sg75
(lp2072
g68
(g89
g70
NtRp2073
(dp2074
g73
(dp2075
g93
g94
ssg82
g2069
sg75
(lp2076
S'is_local'
p2077
asbag68
(g89
g70
NtRp2078
(dp2079
g73
(dp2080
g100
g101
ssg82
g2069
sg75
(lp2081
S':'
asbag68
(g89
g70
NtRp2082
(dp2083
g73
(dp2084
sg82
g2069
sg75
(lp2085
g68
(g69
g70
NtRp2086
(dp2087
g73
(dp2088
g81
I5
ssg82
g2082
sg75
(lp2089
g1546
asbasbasbag68
(g84
g70
NtRp2090
(dp2091
g73
(dp2092
sg82
g78
sg75
(lp2093
g68
(g89
g70
NtRp2094
(dp2095
g73
(dp2096
g93
g94
ssg82
g2090
sg75
(lp2097
S'is_restful'
p2098
asbag68
(g89
g70
NtRp2099
(dp2100
g73
(dp2101
g100
g101
ssg82
g2090
sg75
(lp2102
S':'
asbag68
(g89
g70
NtRp2103
(dp2104
g73
(dp2105
sg82
g2090
sg75
(lp2106
g68
(g69
g70
NtRp2107
(dp2108
g73
(dp2109
g81
I5
ssg82
g2103
sg75
(lp2110
g111
asbasbasbag68
(g84
g70
NtRp2111
(dp2112
g73
(dp2113
sg82
g78
sg75
(lp2114
g68
(g89
g70
NtRp2115
(dp2116
g73
(dp2117
g93
g94
ssg82
g2111
sg75
(lp2118
S'now'
p2119
asbag68
(g89
g70
NtRp2120
(dp2121
g73
(dp2122
g100
g101
ssg82
g2111
sg75
(lp2123
S':'
asbag68
(g89
g70
NtRp2124
(dp2125
g73
(dp2126
sg82
g2111
sg75
(lp2127
g68
(g69
g70
NtRp2128
(dp2129
g73
(dp2130
g81
I5
ssg82
g2124
sg75
(lp2131
S'datetime.datetime(2012, 5, 21, 16, 24, 4, 516673)'
p2132
asbasbasbag68
(g84
g70
NtRp2133
(dp2134
g73
(dp2135
sg82
g78
sg75
(lp2136
g68
(g89
g70
NtRp2137
(dp2138
g73
(dp2139
g93
g94
ssg82
g2133
sg75
(lp2140
S'post_vars'
p2141
asbag68
(g89
g70
NtRp2142
(dp2143
g73
(dp2144
g100
g101
ssg82
g2133
sg75
(lp2145
S':'
asbag68
(g89
g70
NtRp2146
(dp2147
g73
(dp2148
sg82
g2133
sg75
(lp2149
g68
(g69
g70
NtRp2150
(dp2151
g73
(dp2152
g81
I5
ssg82
g2146
sg75
(lp2153
g68
(g77
g70
NtRp2154
(dp2155
g73
(dp2156
g81
I4
ssg82
Nsg75
(lp2157
sbasbasbasbag68
(g84
g70
NtRp2158
(dp2159
g73
(dp2160
sg82
g78
sg75
(lp2161
g68
(g89
g70
NtRp2162
(dp2163
g73
(dp2164
g93
g94
ssg82
g2158
sg75
(lp2165
S'url'
p2166
asbag68
(g89
g70
NtRp2167
(dp2168
g73
(dp2169
g100
g101
ssg82
g2158
sg75
(lp2170
S':'
asbag68
(g89
g70
NtRp2171
(dp2172
g73
(dp2173
sg82
g2158
sg75
(lp2174
g68
(g69
g70
NtRp2175
(dp2176
g73
(dp2177
g81
I5
ssg82
g2171
sg75
(lp2178
S'/bigvotes/default/index'
p2179
asbasbasbag68
(g84
g70
NtRp2180
(dp2181
g73
(dp2182
sg82
g78
sg75
(lp2183
g68
(g89
g70
NtRp2184
(dp2185
g73
(dp2186
g93
g94
ssg82
g2180
sg75
(lp2187
S'utcnow'
p2188
asbag68
(g89
g70
NtRp2189
(dp2190
g73
(dp2191
g100
g101
ssg82
g2180
sg75
(lp2192
S':'
asbag68
(g89
g70
NtRp2193
(dp2194
g73
(dp2195
sg82
g2180
sg75
(lp2196
g68
(g69
g70
NtRp2197
(dp2198
g73
(dp2199
g81
I5
ssg82
g2193
sg75
(lp2200
S'datetime.datetime(2012, 5, 21, 19, 24, 4, 516682)'
p2201
asbasbasbag68
(g84
g70
NtRp2202
(dp2203
g73
(dp2204
sg82
g78
sg75
(lp2205
g68
(g89
g70
NtRp2206
(dp2207
g73
(dp2208
g93
g94
ssg82
g2202
sg75
(lp2209
S'uuid'
p2210
asbag68
(g89
g70
NtRp2211
(dp2212
g73
(dp2213
g100
g101
ssg82
g2202
sg75
(lp2214
S':'
asbag68
(g89
g70
NtRp2215
(dp2216
g73
(dp2217
sg82
g2202
sg75
(lp2218
g68
(g69
g70
NtRp2219
(dp2220
g73
(dp2221
g81
I5
ssg82
g2215
sg75
(lp2222
S'bigvotes/127.0.0.1.2012-05-21.16-24-04.df15bfab-1a52-4431-be34-3ed41536d6d3'
p2223
asbasbasbag68
(g84
g70
NtRp2224
(dp2225
g73
(dp2226
sg82
g78
sg75
(lp2227
g68
(g89
g70
NtRp2228
(dp2229
g73
(dp2230
g93
g94
ssg82
g2224
sg75
(lp2231
S'vars'
p2232
asbag68
(g89
g70
NtRp2233
(dp2234
g73
(dp2235
g100
g101
ssg82
g2224
sg75
(lp2236
S':'
asbag68
(g89
g70
NtRp2237
(dp2238
g73
(dp2239
sg82
g2224
sg75
(lp2240
g68
(g69
g70
NtRp2241
(dp2242
g73
(dp2243
g81
I5
ssg82
g2237
sg75
(lp2244
g68
(g77
g70
NtRp2245
(dp2246
g73
(dp2247
g81
I4
ssg82
Nsg75
(lp2248
sbasbasbasbag68
(g84
g70
NtRp2249
(dp2250
g73
(dp2251
sg82
g78
sg75
(lp2252
g68
(g89
g70
NtRp2253
(dp2254
g73
(dp2255
g93
g94
ssg82
g2249
sg75
(lp2256
S'wsgi'
p2257
asbag68
(g89
g70
NtRp2258
(dp2259
g73
(dp2260
g100
g101
ssg82
g2249
sg75
(lp2261
S':'
asbag68
(g89
g70
NtRp2262
(dp2263
g73
(dp2264
sg82
g2249
sg75
(lp2265
g68
(g69
g70
NtRp2266
(dp2267
g73
(dp2268
g81
I5
ssg82
g2262
sg75
(lp2269
g68
(g77
g70
NtRp2270
(dp2271
g73
(dp2272
g81
I4
ssg82
Nsg75
(lp2273
g68
(g84
g70
NtRp2274
(dp2275
g73
(dp2276
sg82
g2270
sg75
(lp2277
g68
(g89
g70
NtRp2278
(dp2279
g73
(dp2280
g93
g94
ssg82
g2274
sg75
(lp2281
S'environ'
p2282
asbag68
(g89
g70
NtRp2283
(dp2284
g73
(dp2285
g100
g101
ssg82
g2274
sg75
(lp2286
S':'
asbag68
(g89
g70
NtRp2287
(dp2288
g73
(dp2289
sg82
g2274
sg75
(lp2290
g68
(g69
g70
NtRp2291
(dp2292
g73
(dp2293
g81
I4
ssg82
g2287
sg75
(lp2294
g68
(g77
g70
NtRp2295
(dp2296
g73
(dp2297
g81
I3
ssg82
Nsg75
(lp2298
g68
(g84
g70
NtRp2299
(dp2300
g73
(dp2301
sg82
g2295
sg75
(lp2302
g68
(g89
g70
NtRp2303
(dp2304
g73
(dp2305
g93
g94
ssg82
g2299
sg75
(lp2306
S'HTTP_ACCEPT'
p2307
asbag68
(g89
g70
NtRp2308
(dp2309
g73
(dp2310
g100
g101
ssg82
g2299
sg75
(lp2311
S':'
asbag68
(g89
g70
NtRp2312
(dp2313
g73
(dp2314
sg82
g2299
sg75
(lp2315
g68
(g69
g70
NtRp2316
(dp2317
g73
(dp2318
g81
I3
ssg82
g2312
sg75
(lp2319
g829
asbasbasbag68
(g84
g70
NtRp2320
(dp2321
g73
(dp2322
sg82
g2295
sg75
(lp2323
g68
(g89
g70
NtRp2324
(dp2325
g73
(dp2326
g93
g94
ssg82
g2320
sg75
(lp2327
S'HTTP_ACCEPT_ENCODING'
p2328
asbag68
(g89
g70
NtRp2329
(dp2330
g73
(dp2331
g100
g101
ssg82
g2320
sg75
(lp2332
S':'
asbag68
(g89
g70
NtRp2333
(dp2334
g73
(dp2335
sg82
g2320
sg75
(lp2336
g68
(g69
g70
NtRp2337
(dp2338
g73
(dp2339
g81
I3
ssg82
g2333
sg75
(lp2340
g851
asbasbasbag68
(g84
g70
NtRp2341
(dp2342
g73
(dp2343
sg82
g2295
sg75
(lp2344
g68
(g89
g70
NtRp2345
(dp2346
g73
(dp2347
g93
g94
ssg82
g2341
sg75
(lp2348
S'HTTP_ACCEPT_LANGUAGE'
p2349
asbag68
(g89
g70
NtRp2350
(dp2351
g73
(dp2352
g100
g101
ssg82
g2341
sg75
(lp2353
S':'
asbag68
(g89
g70
NtRp2354
(dp2355
g73
(dp2356
sg82
g2341
sg75
(lp2357
g68
(g69
g70
NtRp2358
(dp2359
g73
(dp2360
g81
I3
ssg82
g2354
sg75
(lp2361
g873
asbasbasbag68
(g84
g70
NtRp2362
(dp2363
g73
(dp2364
sg82
g2295
sg75
(lp2365
g68
(g89
g70
NtRp2366
(dp2367
g73
(dp2368
g93
g94
ssg82
g2362
sg75
(lp2369
S'HTTP_CACHE_CONTROL'
p2370
asbag68
(g89
g70
NtRp2371
(dp2372
g73
(dp2373
g100
g101
ssg82
g2362
sg75
(lp2374
S':'
asbag68
(g89
g70
NtRp2375
(dp2376
g73
(dp2377
sg82
g2362
sg75
(lp2378
g68
(g69
g70
NtRp2379
(dp2380
g73
(dp2381
g81
I3
ssg82
g2375
sg75
(lp2382
g895
asbasbasbag68
(g84
g70
NtRp2383
(dp2384
g73
(dp2385
sg82
g2295
sg75
(lp2386
g68
(g89
g70
NtRp2387
(dp2388
g73
(dp2389
g93
g94
ssg82
g2383
sg75
(lp2390
S'HTTP_CONNECTION'
p2391
asbag68
(g89
g70
NtRp2392
(dp2393
g73
(dp2394
g100
g101
ssg82
g2383
sg75
(lp2395
S':'
asbag68
(g89
g70
NtRp2396
(dp2397
g73
(dp2398
sg82
g2383
sg75
(lp2399
g68
(g69
g70
NtRp2400
(dp2401
g73
(dp2402
g81
I3
ssg82
g2396
sg75
(lp2403
g917
asbasbasbag68
(g84
g70
NtRp2404
(dp2405
g73
(dp2406
sg82
g2295
sg75
(lp2407
g68
(g89
g70
NtRp2408
(dp2409
g73
(dp2410
g93
g94
ssg82
g2404
sg75
(lp2411
S'HTTP_COOKIE'
p2412
asbag68
(g89
g70
NtRp2413
(dp2414
g73
(dp2415
g100
g101
ssg82
g2404
sg75
(lp2416
S':'
asbag68
(g89
g70
NtRp2417
(dp2418
g73
(dp2419
sg82
g2404
sg75
(lp2420
g68
(g69
g70
NtRp2421
(dp2422
g73
(dp2423
g81
I3
ssg82
g2417
sg75
(lp2424
g939
asbasbasbag68
(g84
g70
NtRp2425
(dp2426
g73
(dp2427
sg82
g2295
sg75
(lp2428
g68
(g89
g70
NtRp2429
(dp2430
g73
(dp2431
g93
g94
ssg82
g2425
sg75
(lp2432
S'HTTP_HOST'
p2433
asbag68
(g89
g70
NtRp2434
(dp2435
g73
(dp2436
g100
g101
ssg82
g2425
sg75
(lp2437
S':'
asbag68
(g89
g70
NtRp2438
(dp2439
g73
(dp2440
sg82
g2425
sg75
(lp2441
g68
(g69
g70
NtRp2442
(dp2443
g73
(dp2444
g81
I3
ssg82
g2438
sg75
(lp2445
g961
asbasbasbag68
(g84
g70
NtRp2446
(dp2447
g73
(dp2448
sg82
g2295
sg75
(lp2449
g68
(g89
g70
NtRp2450
(dp2451
g73
(dp2452
g93
g94
ssg82
g2446
sg75
(lp2453
S'HTTP_REFERER'
p2454
asbag68
(g89
g70
NtRp2455
(dp2456
g73
(dp2457
g100
g101
ssg82
g2446
sg75
(lp2458
S':'
asbag68
(g89
g70
NtRp2459
(dp2460
g73
(dp2461
sg82
g2446
sg75
(lp2462
g68
(g69
g70
NtRp2463
(dp2464
g73
(dp2465
g81
I3
ssg82
g2459
sg75
(lp2466
g983
asbasbasbag68
(g84
g70
NtRp2467
(dp2468
g73
(dp2469
sg82
g2295
sg75
(lp2470
g68
(g89
g70
NtRp2471
(dp2472
g73
(dp2473
g93
g94
ssg82
g2467
sg75
(lp2474
S'HTTP_USER_AGENT'
p2475
asbag68
(g89
g70
NtRp2476
(dp2477
g73
(dp2478
g100
g101
ssg82
g2467
sg75
(lp2479
S':'
asbag68
(g89
g70
NtRp2480
(dp2481
g73
(dp2482
sg82
g2467
sg75
(lp2483
g68
(g69
g70
NtRp2484
(dp2485
g73
(dp2486
g81
I3
ssg82
g2480
sg75
(lp2487
g1005
asbasbasbag68
(g84
g70
NtRp2488
(dp2489
g73
(dp2490
sg82
g2295
sg75
(lp2491
g68
(g89
g70
NtRp2492
(dp2493
g73
(dp2494
g93
g94
ssg82
g2488
sg75
(lp2495
S'PATH_INFO'
p2496
asbag68
(g89
g70
NtRp2497
(dp2498
g73
(dp2499
g100
g101
ssg82
g2488
sg75
(lp2500
S':'
asbag68
(g89
g70
NtRp2501
(dp2502
g73
(dp2503
sg82
g2488
sg75
(lp2504
g68
(g69
g70
NtRp2505
(dp2506
g73
(dp2507
g81
I3
ssg82
g2501
sg75
(lp2508
g1069
asbasbasbag68
(g84
g70
NtRp2509
(dp2510
g73
(dp2511
sg82
g2295
sg75
(lp2512
g68
(g89
g70
NtRp2513
(dp2514
g73
(dp2515
g93
g94
ssg82
g2509
sg75
(lp2516
S'QUERY_STRING'
p2517
asbag68
(g89
g70
NtRp2518
(dp2519
g73
(dp2520
g100
g101
ssg82
g2509
sg75
(lp2521
S':'
asbag68
(g89
g70
NtRp2522
(dp2523
g73
(dp2524
sg82
g2509
sg75
(lp2525
g68
(g69
g70
NtRp2526
(dp2527
g73
(dp2528
g81
I3
ssg82
g2522
sg75
(lp2529
S''
asbasbasbag68
(g84
g70
NtRp2530
(dp2531
g73
(dp2532
sg82
g2295
sg75
(lp2533
g68
(g89
g70
NtRp2534
(dp2535
g73
(dp2536
g93
g94
ssg82
g2530
sg75
(lp2537
S'REMOTE_ADDR'
p2538
asbag68
(g89
g70
NtRp2539
(dp2540
g73
(dp2541
g100
g101
ssg82
g2530
sg75
(lp2542
S':'
asbag68
(g89
g70
NtRp2543
(dp2544
g73
(dp2545
sg82
g2530
sg75
(lp2546
g68
(g69
g70
NtRp2547
(dp2548
g73
(dp2549
g81
I3
ssg82
g2543
sg75
(lp2550
g201
asbasbasbag68
(g84
g70
NtRp2551
(dp2552
g73
(dp2553
sg82
g2295
sg75
(lp2554
g68
(g89
g70
NtRp2555
(dp2556
g73
(dp2557
g93
g94
ssg82
g2551
sg75
(lp2558
S'REMOTE_PORT'
p2559
asbag68
(g89
g70
NtRp2560
(dp2561
g73
(dp2562
g100
g101
ssg82
g2551
sg75
(lp2563
S':'
asbag68
(g89
g70
NtRp2564
(dp2565
g73
(dp2566
sg82
g2551
sg75
(lp2567
g68
(g69
g70
NtRp2568
(dp2569
g73
(dp2570
g81
I3
ssg82
g2564
sg75
(lp2571
g1133
asbasbasbag68
(g84
g70
NtRp2572
(dp2573
g73
(dp2574
sg82
g2295
sg75
(lp2575
g68
(g89
g70
NtRp2576
(dp2577
g73
(dp2578
g93
g94
ssg82
g2572
sg75
(lp2579
S'REQUEST_METHOD'
p2580
asbag68
(g89
g70
NtRp2581
(dp2582
g73
(dp2583
g100
g101
ssg82
g2572
sg75
(lp2584
S':'
asbag68
(g89
g70
NtRp2585
(dp2586
g73
(dp2587
sg82
g2572
sg75
(lp2588
g68
(g69
g70
NtRp2589
(dp2590
g73
(dp2591
g81
I3
ssg82
g2585
sg75
(lp2592
g1155
asbasbasbag68
(g84
g70
NtRp2593
(dp2594
g73
(dp2595
sg82
g2295
sg75
(lp2596
g68
(g89
g70
NtRp2597
(dp2598
g73
(dp2599
g93
g94
ssg82
g2593
sg75
(lp2600
S'REQUEST_URI'
p2601
asbag68
(g89
g70
NtRp2602
(dp2603
g73
(dp2604
g100
g101
ssg82
g2593
sg75
(lp2605
S':'
asbag68
(g89
g70
NtRp2606
(dp2607
g73
(dp2608
sg82
g2593
sg75
(lp2609
g68
(g69
g70
NtRp2610
(dp2611
g73
(dp2612
g81
I3
ssg82
g2606
sg75
(lp2613
g1069
asbasbasbag68
(g84
g70
NtRp2614
(dp2615
g73
(dp2616
sg82
g2295
sg75
(lp2617
g68
(g89
g70
NtRp2618
(dp2619
g73
(dp2620
g93
g94
ssg82
g2614
sg75
(lp2621
S'SCRIPT_NAME'
p2622
asbag68
(g89
g70
NtRp2623
(dp2624
g73
(dp2625
g100
g101
ssg82
g2614
sg75
(lp2626
S':'
asbag68
(g89
g70
NtRp2627
(dp2628
g73
(dp2629
sg82
g2614
sg75
(lp2630
g68
(g69
g70
NtRp2631
(dp2632
g73
(dp2633
g81
I3
ssg82
g2627
sg75
(lp2634
S''
asbasbasbag68
(g84
g70
NtRp2635
(dp2636
g73
(dp2637
sg82
g2295
sg75
(lp2638
g68
(g89
g70
NtRp2639
(dp2640
g73
(dp2641
g93
g94
ssg82
g2635
sg75
(lp2642
S'SERVER_NAME'
p2643
asbag68
(g89
g70
NtRp2644
(dp2645
g73
(dp2646
g100
g101
ssg82
g2635
sg75
(lp2647
S':'
asbag68
(g89
g70
NtRp2648
(dp2649
g73
(dp2650
sg82
g2635
sg75
(lp2651
g68
(g69
g70
NtRp2652
(dp2653
g73
(dp2654
g81
I3
ssg82
g2648
sg75
(lp2655
g1219
asbasbasbag68
(g84
g70
NtRp2656
(dp2657
g73
(dp2658
sg82
g2295
sg75
(lp2659
g68
(g89
g70
NtRp2660
(dp2661
g73
(dp2662
g93
g94
ssg82
g2656
sg75
(lp2663
S'SERVER_PORT'
p2664
asbag68
(g89
g70
NtRp2665
(dp2666
g73
(dp2667
g100
g101
ssg82
g2656
sg75
(lp2668
S':'
asbag68
(g89
g70
NtRp2669
(dp2670
g73
(dp2671
sg82
g2656
sg75
(lp2672
g68
(g69
g70
NtRp2673
(dp2674
g73
(dp2675
g81
I3
ssg82
g2669
sg75
(lp2676
g1241
asbasbasbag68
(g84
g70
NtRp2677
(dp2678
g73
(dp2679
sg82
g2295
sg75
(lp2680
g68
(g89
g70
NtRp2681
(dp2682
g73
(dp2683
g93
g94
ssg82
g2677
sg75
(lp2684
S'SERVER_PROTOCOL'
p2685
asbag68
(g89
g70
NtRp2686
(dp2687
g73
(dp2688
g100
g101
ssg82
g2677
sg75
(lp2689
S':'
asbag68
(g89
g70
NtRp2690
(dp2691
g73
(dp2692
sg82
g2677
sg75
(lp2693
g68
(g69
g70
NtRp2694
(dp2695
g73
(dp2696
g81
I3
ssg82
g2690
sg75
(lp2697
g1263
asbasbasbag68
(g84
g70
NtRp2698
(dp2699
g73
(dp2700
sg82
g2295
sg75
(lp2701
g68
(g89
g70
NtRp2702
(dp2703
g73
(dp2704
g93
g94
ssg82
g2698
sg75
(lp2705
S'SERVER_SOFTWARE'
p2706
asbag68
(g89
g70
NtRp2707
(dp2708
g73
(dp2709
g100
g101
ssg82
g2698
sg75
(lp2710
S':'
asbag68
(g89
g70
NtRp2711
(dp2712
g73
(dp2713
sg82
g2698
sg75
(lp2714
g68
(g69
g70
NtRp2715
(dp2716
g73
(dp2717
g81
I3
ssg82
g2711
sg75
(lp2718
g1285
asbasbasbag68
(g84
g70
NtRp2719
(dp2720
g73
(dp2721
sg82
g2295
sg75
(lp2722
g68
(g89
g70
NtRp2723
(dp2724
g73
(dp2725
g93
g94
ssg82
g2719
sg75
(lp2726
S'WEB2PY_ORIGINAL_URI'
p2727
asbag68
(g89
g70
NtRp2728
(dp2729
g73
(dp2730
g100
g101
ssg82
g2719
sg75
(lp2731
S':'
asbag68
(g89
g70
NtRp2732
(dp2733
g73
(dp2734
sg82
g2719
sg75
(lp2735
g68
(g69
g70
NtRp2736
(dp2737
g73
(dp2738
g81
I3
ssg82
g2732
sg75
(lp2739
g1069
asbasbasbag68
(g84
g70
NtRp2740
(dp2741
g73
(dp2742
sg82
g2295
sg75
(lp2743
g68
(g89
g70
NtRp2744
(dp2745
g73
(dp2746
g93
g94
ssg82
g2740
sg75
(lp2747
S'wsgi.errors'
p2748
asbag68
(g89
g70
NtRp2749
(dp2750
g73
(dp2751
g100
g101
ssg82
g2740
sg75
(lp2752
S':'
asbag68
(g89
g70
NtRp2753
(dp2754
g73
(dp2755
sg82
g2740
sg75
(lp2756
g68
(g69
g70
NtRp2757
(dp2758
g73
(dp2759
g81
I3
ssg82
g2753
sg75
(lp2760
S"<open file '<stderr>', mode 'w' at 0x108746270>"
p2761
asbasbasbag68
(g84
g70
NtRp2762
(dp2763
g73
(dp2764
sg82
g2295
sg75
(lp2765
g68
(g89
g70
NtRp2766
(dp2767
g73
(dp2768
g93
g94
ssg82
g2762
sg75
(lp2769
S'wsgi.file_wrapper'
p2770
asbag68
(g89
g70
NtRp2771
(dp2772
g73
(dp2773
g100
g101
ssg82
g2762
sg75
(lp2774
S':'
asbag68
(g89
g70
NtRp2775
(dp2776
g73
(dp2777
sg82
g2762
sg75
(lp2778
g68
(g69
g70
NtRp2779
(dp2780
g73
(dp2781
g81
I3
ssg82
g2775
sg75
(lp2782
S'<class wsgiref.util.FileWrapper at 0x1090f23f8>'
p2783
asbasbasbag68
(g84
g70
NtRp2784
(dp2785
g73
(dp2786
sg82
g2295
sg75
(lp2787
g68
(g89
g70
NtRp2788
(dp2789
g73
(dp2790
g93
g94
ssg82
g2784
sg75
(lp2791
S'wsgi.input'
p2792
asbag68
(g89
g70
NtRp2793
(dp2794
g73
(dp2795
g100
g101
ssg82
g2784
sg75
(lp2796
S':'
asbag68
(g89
g70
NtRp2797
(dp2798
g73
(dp2799
sg82
g2784
sg75
(lp2800
g68
(g69
g70
NtRp2801
(dp2802
g73
(dp2803
g81
I3
ssg82
g2797
sg75
(lp2804
S'<cStringIO.StringO object at 0x1091c0ae8>'
p2805
asbasbasbag68
(g84
g70
NtRp2806
(dp2807
g73
(dp2808
sg82
g2295
sg75
(lp2809
g68
(g89
g70
NtRp2810
(dp2811
g73
(dp2812
g93
g94
ssg82
g2806
sg75
(lp2813
S'wsgi.multiprocess'
p2814
asbag68
(g89
g70
NtRp2815
(dp2816
g73
(dp2817
g100
g101
ssg82
g2806
sg75
(lp2818
S':'
asbag68
(g89
g70
NtRp2819
(dp2820
g73
(dp2821
sg82
g2806
sg75
(lp2822
g68
(g69
g70
NtRp2823
(dp2824
g73
(dp2825
g81
I3
ssg82
g2819
sg75
(lp2826
g111
asbasbasbag68
(g84
g70
NtRp2827
(dp2828
g73
(dp2829
sg82
g2295
sg75
(lp2830
g68
(g89
g70
NtRp2831
(dp2832
g73
(dp2833
g93
g94
ssg82
g2827
sg75
(lp2834
S'wsgi.multithread'
p2835
asbag68
(g89
g70
NtRp2836
(dp2837
g73
(dp2838
g100
g101
ssg82
g2827
sg75
(lp2839
S':'
asbag68
(g89
g70
NtRp2840
(dp2841
g73
(dp2842
sg82
g2827
sg75
(lp2843
g68
(g69
g70
NtRp2844
(dp2845
g73
(dp2846
g81
I3
ssg82
g2840
sg75
(lp2847
g1546
asbasbasbag68
(g84
g70
NtRp2848
(dp2849
g73
(dp2850
sg82
g2295
sg75
(lp2851
g68
(g89
g70
NtRp2852
(dp2853
g73
(dp2854
g93
g94
ssg82
g2848
sg75
(lp2855
S'wsgi.run_once'
p2856
asbag68
(g89
g70
NtRp2857
(dp2858
g73
(dp2859
g100
g101
ssg82
g2848
sg75
(lp2860
S':'
asbag68
(g89
g70
NtRp2861
(dp2862
g73
(dp2863
sg82
g2848
sg75
(lp2864
g68
(g69
g70
NtRp2865
(dp2866
g73
(dp2867
g81
I3
ssg82
g2861
sg75
(lp2868
g111
asbasbasbag68
(g84
g70
NtRp2869
(dp2870
g73
(dp2871
sg82
g2295
sg75
(lp2872
g68
(g89
g70
NtRp2873
(dp2874
g73
(dp2875
g93
g94
ssg82
g2869
sg75
(lp2876
S'wsgi.url_scheme'
p2877
asbag68
(g89
g70
NtRp2878
(dp2879
g73
(dp2880
g100
g101
ssg82
g2869
sg75
(lp2881
S':'
asbag68
(g89
g70
NtRp2882
(dp2883
g73
(dp2884
sg82
g2869
sg75
(lp2885
g68
(g69
g70
NtRp2886
(dp2887
g73
(dp2888
g81
I3
ssg82
g2882
sg75
(lp2889
g1589
asbasbasbag68
(g84
g70
NtRp2890
(dp2891
g73
(dp2892
sg82
g2295
sg75
(lp2893
g68
(g89
g70
NtRp2894
(dp2895
g73
(dp2896
g93
g94
ssg82
g2890
sg75
(lp2897
S'wsgi.version'
p2898
asbag68
(g89
g70
NtRp2899
(dp2900
g73
(dp2901
g100
g101
ssg82
g2890
sg75
(lp2902
S':'
asbag68
(g89
g70
NtRp2903
(dp2904
g73
(dp2905
sg82
g2890
sg75
(lp2906
g68
(g69
g70
NtRp2907
(dp2908
g73
(dp2909
g81
I3
ssg82
g2903
sg75
(lp2910
S'1'
asbasbasbasbasbasbasbasbasbasbasbasbasbsS'frames'
p2911
(lp2912
(dp2913
S'file'
p2914
S'/Users/kaiquesilva/Projects/WebApps/big-votes/web2py/gluon/restricted.py'
p2915
sS'dump'
p2916
(dp2917
S'code'
p2918
S"'# -*- coding: utf-8 -*-\\nfrom bigvotes import Vot...crud())\\n\\n\\nresponse._vars=response._caller(index)\\n'"
p2919
sS'layer'
p2920
S"'/Users/kaiquesilva/Projects/WebApps/big-votes/web2py/applications/bigvotes/controllers/default.py'"
p2921
sS'global compile2'
p2922
S'<function compile2>'
p2923
sS'ccode'
p2924
S'undefined'
p2925
ssS'lnum'
p2926
I204
sS'lines'
p2927
(dp2928
I199
S"    environment['__name__'] = '__restricted__'"
p2929
sI200
S'    try:'
p2930
sI201
S'        if type(code) == types.CodeType:'
p2931
sI202
S'            ccode = code'
p2932
sI203
S'        else:'
p2933
sI204
S'            ccode = compile2(code,layer)'
p2934
sI205
S'        exec ccode in environment'
p2935
sI206
S'    except HTTP:'
p2936
sI207
S'        raise'
p2937
sI208
S'    except RestrictedError:'
p2938
ssS'call'
p2939
S"(code='# -*- coding: utf-8 -*-\\nfrom bigvotes import Vot...crud())\\n\\n\\nresponse._vars=response._caller(index)\\n', environment={'A': <class 'gluon.html.A'>, 'Auth': <class 'gluon.tools.Auth'>, 'B': <class 'gluon.html.B'>, 'BEAUTIFY': <class 'gluon.html.BEAUTIFY'>, 'BODY': <class 'gluon.html.BODY'>, 'BR': <class 'gluon.html.BR'>, 'BUTTON': <class 'gluon.html.BUTTON'>, 'CAT': <class 'gluon.html.CAT'>, 'CENTER': <class 'gluon.html.CENTER'>, 'CLEANUP': <class 'gluon.validators.CLEANUP'>, ...}, layer='/Users/kaiquesilva/Projects/WebApps/big-votes/web2py/applications/bigvotes/controllers/default.py')"
p2940
sS'func'
p2941
S'restricted'
p2942
sa(dp2943
g2914
S'/Users/kaiquesilva/Projects/WebApps/big-votes/web2py/gluon/restricted.py'
p2944
sg2916
(dp2945
S'builtincompile'
p2946
S'<built-in function compile>'
p2947
sS'code'
p2948
S"'# -*- coding: utf-8 -*-\\nfrom bigvotes import Vot...crud())\\n\\n\\nresponse._vars=response._caller(index)\\n'"
p2949
sS'code.rstrip'
p2950
S'<built-in method rstrip of str object>'
p2951
sS').replace'
p2952
g2925
sS'layer'
p2953
S"'/Users/kaiquesilva/Projects/WebApps/big-votes/web2py/applications/bigvotes/controllers/default.py'"
p2954
ssg2926
I189
sg2927
(dp2955
I192
S'    """'
p2956
sI193
S'    runs code in environment and returns the output. if an exception occurs'
p2957
sI184
S''
sI185
S'def compile2(code,layer):'
p2958
sI186
S'    """'
p2959
sI187
S"    The +'\\n' is necessary else compile fails when code ends in a comment."
p2960
sI188
S'    """'
p2961
sI189
S"    return compile(code.rstrip().replace('\\r\\n','\\n')+'\\n', layer, 'exec')"
p2962
sI190
S''
sI191
S"def restricted(code, environment=None, layer='Unknown'):"
p2963
ssg2939
S"(code='# -*- coding: utf-8 -*-\\nfrom bigvotes import Vot...crud())\\n\\n\\nresponse._vars=response._caller(index)\\n', layer='/Users/kaiquesilva/Projects/WebApps/big-votes/web2py/applications/bigvotes/controllers/default.py')"
p2964
sg2941
S'compile2'
p2965
sasS'pyver'
p2966
S'Python 2.7.1: /usr/bin/python'
p2967
sS'session'
p2968
g68
(g69
g70
NtRp2969
(dp2970
g73
(dp2971
sg75
(lp2972
g68
(g77
g70
NtRp2973
(dp2974
g73
(dp2975
g81
I5
ssg82
Nsg75
(lp2976
sbasbsS'etype'
p2977
S"<type 'exceptions.SyntaxError'>"
p2978
sS'date'
p2979
S'Mon May 21 16:24:04 2012'
p2980
sS'response'
p2981
g68
(g69
g70
NtRp2982
(dp2983
g73
(dp2984
sg75
(lp2985
g68
(g77
g70
NtRp2986
(dp2987
g73
(dp2988
g81
I5
ssg82
Nsg75
(lp2989
g68
(g84
g70
NtRp2990
(dp2991
g73
(dp2992
sg82
g2986
sg75
(lp2993
g68
(g89
g70
NtRp2994
(dp2995
g73
(dp2996
g93
g94
ssg82
g2990
sg75
(lp2997
g166
asbag68
(g89
g70
NtRp2998
(dp2999
g73
(dp3000
g100
g101
ssg82
g2990
sg75
(lp3001
S':'
asbag68
(g89
g70
NtRp3002
(dp3003
g73
(dp3004
sg82
g2990
sg75
(lp3005
g68
(g69
g70
NtRp3006
(dp3007
g73
(dp3008
g81
I5
ssg82
g3002
sg75
(lp3009
S'<cStringIO.StringO object at 0x1091c06f8>'
p3010
asbasbasbag68
(g84
g70
NtRp3011
(dp3012
g73
(dp3013
sg82
g2986
sg75
(lp3014
g68
(g89
g70
NtRp3015
(dp3016
g73
(dp3017
g93
g94
ssg82
g3011
sg75
(lp3018
g232
asbag68
(g89
g70
NtRp3019
(dp3020
g73
(dp3021
g100
g101
ssg82
g3011
sg75
(lp3022
S':'
asbag68
(g89
g70
NtRp3023
(dp3024
g73
(dp3025
sg82
g3011
sg75
(lp3026
g68
(g69
g70
NtRp3027
(dp3028
g73
(dp3029
g81
I5
ssg82
g3023
sg75
(lp3030
g68
(g77
g70
NtRp3031
(dp3032
g73
(dp3033
g81
I4
ssg82
Nsg75
(lp3034
g68
(g84
g70
NtRp3035
(dp3036
g73
(dp3037
sg82
g3031
sg75
(lp3038
g68
(g89
g70
NtRp3039
(dp3040
g73
(dp3041
g93
g94
ssg82
g3035
sg75
(lp3042
S'session_id_bigvotes'
p3043
asbag68
(g89
g70
NtRp3044
(dp3045
g73
(dp3046
g100
g101
ssg82
g3035
sg75
(lp3047
S':'
asbag68
(g89
g70
NtRp3048
(dp3049
g73
(dp3050
sg82
g3035
sg75
(lp3051
g68
(g69
g70
NtRp3052
(dp3053
g73
(dp3054
g81
I4
ssg82
g3048
sg75
(lp3055
g68
(g77
g70
NtRp3056
(dp3057
g73
(dp3058
g81
I3
ssg82
Nsg75
(lp3059
g68
(g84
g70
NtRp3060
(dp3061
g73
(dp3062
sg82
g3056
sg75
(lp3063
g68
(g89
g70
NtRp3064
(dp3065
g73
(dp3066
g93
g94
ssg82
g3060
sg75
(lp3067
g282
asbag68
(g89
g70
NtRp3068
(dp3069
g73
(dp3070
g100
g101
ssg82
g3060
sg75
(lp3071
S':'
asbag68
(g89
g70
NtRp3072
(dp3073
g73
(dp3074
sg82
g3060
sg75
(lp3075
g68
(g69
g70
NtRp3076
(dp3077
g73
(dp3078
g81
I3
ssg82
g3072
sg75
(lp3079
S''
asbasbasbag68
(g84
g70
NtRp3080
(dp3081
g73
(dp3082
sg82
g3056
sg75
(lp3083
g68
(g89
g70
NtRp3084
(dp3085
g73
(dp3086
g93
g94
ssg82
g3080
sg75
(lp3087
g303
asbag68
(g89
g70
NtRp3088
(dp3089
g73
(dp3090
g100
g101
ssg82
g3080
sg75
(lp3091
S':'
asbag68
(g89
g70
NtRp3092
(dp3093
g73
(dp3094
sg82
g3080
sg75
(lp3095
g68
(g69
g70
NtRp3096
(dp3097
g73
(dp3098
g81
I3
ssg82
g3092
sg75
(lp3099
S''
asbasbasbag68
(g84
g70
NtRp3100
(dp3101
g73
(dp3102
sg82
g3056
sg75
(lp3103
g68
(g89
g70
NtRp3104
(dp3105
g73
(dp3106
g93
g94
ssg82
g3100
sg75
(lp3107
g324
asbag68
(g89
g70
NtRp3108
(dp3109
g73
(dp3110
g100
g101
ssg82
g3100
sg75
(lp3111
S':'
asbag68
(g89
g70
NtRp3112
(dp3113
g73
(dp3114
sg82
g3100
sg75
(lp3115
g68
(g69
g70
NtRp3116
(dp3117
g73
(dp3118
g81
I3
ssg82
g3112
sg75
(lp3119
S''
asbasbasbag68
(g84
g70
NtRp3120
(dp3121
g73
(dp3122
sg82
g3056
sg75
(lp3123
g68
(g89
g70
NtRp3124
(dp3125
g73
(dp3126
g93
g94
ssg82
g3120
sg75
(lp3127
g345
asbag68
(g89
g70
NtRp3128
(dp3129
g73
(dp3130
g100
g101
ssg82
g3120
sg75
(lp3131
S':'
asbag68
(g89
g70
NtRp3132
(dp3133
g73
(dp3134
sg82
g3120
sg75
(lp3135
g68
(g69
g70
NtRp3136
(dp3137
g73
(dp3138
g81
I3
ssg82
g3132
sg75
(lp3139
S''
asbasbasbag68
(g84
g70
NtRp3140
(dp3141
g73
(dp3142
sg82
g3056
sg75
(lp3143
g68
(g89
g70
NtRp3144
(dp3145
g73
(dp3146
g93
g94
ssg82
g3140
sg75
(lp3147
g366
asbag68
(g89
g70
NtRp3148
(dp3149
g73
(dp3150
g100
g101
ssg82
g3140
sg75
(lp3151
S':'
asbag68
(g89
g70
NtRp3152
(dp3153
g73
(dp3154
sg82
g3140
sg75
(lp3155
g68
(g69
g70
NtRp3156
(dp3157
g73
(dp3158
g81
I3
ssg82
g3152
sg75
(lp3159
S''
asbasbasbag68
(g84
g70
NtRp3160
(dp3161
g73
(dp3162
sg82
g3056
sg75
(lp3163
g68
(g89
g70
NtRp3164
(dp3165
g73
(dp3166
g93
g94
ssg82
g3160
sg75
(lp3167
g387
asbag68
(g89
g70
NtRp3168
(dp3169
g73
(dp3170
g100
g101
ssg82
g3160
sg75
(lp3171
S':'
asbag68
(g89
g70
NtRp3172
(dp3173
g73
(dp3174
sg82
g3160
sg75
(lp3175
g68
(g69
g70
NtRp3176
(dp3177
g73
(dp3178
g81
I3
ssg82
g3172
sg75
(lp3179
S'/'
asbasbasbag68
(g84
g70
NtRp3180
(dp3181
g73
(dp3182
sg82
g3056
sg75
(lp3183
g68
(g89
g70
NtRp3184
(dp3185
g73
(dp3186
g93
g94
ssg82
g3180
sg75
(lp3187
g408
asbag68
(g89
g70
NtRp3188
(dp3189
g73
(dp3190
g100
g101
ssg82
g3180
sg75
(lp3191
S':'
asbag68
(g89
g70
NtRp3192
(dp3193
g73
(dp3194
sg82
g3180
sg75
(lp3195
g68
(g69
g70
NtRp3196
(dp3197
g73
(dp3198
g81
I3
ssg82
g3192
sg75
(lp3199
S''
asbasbasbag68
(g84
g70
NtRp3200
(dp3201
g73
(dp3202
sg82
g3056
sg75
(lp3203
g68
(g89
g70
NtRp3204
(dp3205
g73
(dp3206
g93
g94
ssg82
g3200
sg75
(lp3207
g429
asbag68
(g89
g70
NtRp3208
(dp3209
g73
(dp3210
g100
g101
ssg82
g3200
sg75
(lp3211
S':'
asbag68
(g89
g70
NtRp3212
(dp3213
g73
(dp3214
sg82
g3200
sg75
(lp3215
g68
(g69
g70
NtRp3216
(dp3217
g73
(dp3218
g81
I3
ssg82
g3212
sg75
(lp3219
S''
asbasbasbasbasbasbasbasbasbasbasbag68
(g84
g70
NtRp3220
(dp3221
g73
(dp3222
sg82
g2986
sg75
(lp3223
g68
(g89
g70
NtRp3224
(dp3225
g73
(dp3226
g93
g94
ssg82
g3220
sg75
(lp3227
S'delimiters'
p3228
asbag68
(g89
g70
NtRp3229
(dp3230
g73
(dp3231
g100
g101
ssg82
g3220
sg75
(lp3232
S':'
asbag68
(g89
g70
NtRp3233
(dp3234
g73
(dp3235
sg82
g3220
sg75
(lp3236
g68
(g69
g70
NtRp3237
(dp3238
g73
(dp3239
g81
I5
ssg82
g3233
sg75
(lp3240
g68
(g77
g70
NtRp3241
(dp3242
g73
(dp3243
g81
I4
ssg82
Nsg75
(lp3244
g68
(g84
g70
NtRp3245
(dp3246
g73
(dp3247
sg82
g3241
sg75
(lp3248
g68
(g89
g70
NtRp3249
(dp3250
g73
(dp3251
sg82
g3245
sg75
(lp3252
g68
(g69
g70
NtRp3253
(dp3254
g73
(dp3255
g81
I4
ssg82
g3249
sg75
(lp3256
S'{{'
p3257
asbasbasbag68
(g84
g70
NtRp3258
(dp3259
g73
(dp3260
sg82
g3241
sg75
(lp3261
g68
(g89
g70
NtRp3262
(dp3263
g73
(dp3264
sg82
g3258
sg75
(lp3265
g68
(g69
g70
NtRp3266
(dp3267
g73
(dp3268
g81
I4
ssg82
g3262
sg75
(lp3269
S'}}'
p3270
asbasbasbasbasbasbasbag68
(g84
g70
NtRp3271
(dp3272
g73
(dp3273
sg82
g2986
sg75
(lp3274
g68
(g89
g70
NtRp3275
(dp3276
g73
(dp3277
g93
g94
ssg82
g3271
sg75
(lp3278
S'files'
p3279
asbag68
(g89
g70
NtRp3280
(dp3281
g73
(dp3282
g100
g101
ssg82
g3271
sg75
(lp3283
S':'
asbag68
(g89
g70
NtRp3284
(dp3285
g73
(dp3286
sg82
g3271
sg75
(lp3287
g68
(g69
g70
NtRp3288
(dp3289
g73
(dp3290
g81
I5
ssg82
g3284
sg75
(lp3291
g68
(g77
g70
NtRp3292
(dp3293
g73
(dp3294
g81
I4
ssg82
Nsg75
(lp3295
sbasbasbasbag68
(g84
g70
NtRp3296
(dp3297
g73
(dp3298
sg82
g2986
sg75
(lp3299
g68
(g89
g70
NtRp3300
(dp3301
g73
(dp3302
g93
g94
ssg82
g3296
sg75
(lp3303
S'flash'
p3304
asbag68
(g89
g70
NtRp3305
(dp3306
g73
(dp3307
g100
g101
ssg82
g3296
sg75
(lp3308
S':'
asbag68
(g89
g70
NtRp3309
(dp3310
g73
(dp3311
sg82
g3296
sg75
(lp3312
g68
(g69
g70
NtRp3313
(dp3314
g73
(dp3315
g81
I5
ssg82
g3309
sg75
(lp3316
S''
asbasbasbag68
(g84
g70
NtRp3317
(dp3318
g73
(dp3319
sg82
g2986
sg75
(lp3320
g68
(g89
g70
NtRp3321
(dp3322
g73
(dp3323
g93
g94
ssg82
g3317
sg75
(lp3324
S'generic_patterns'
p3325
asbag68
(g89
g70
NtRp3326
(dp3327
g73
(dp3328
g100
g101
ssg82
g3317
sg75
(lp3329
S':'
asbag68
(g89
g70
NtRp3330
(dp3331
g73
(dp3332
sg82
g3317
sg75
(lp3333
g68
(g69
g70
NtRp3334
(dp3335
g73
(dp3336
g81
I5
ssg82
g3330
sg75
(lp3337
g68
(g77
g70
NtRp3338
(dp3339
g73
(dp3340
g81
I4
ssg82
Nsg75
(lp3341
g68
(g84
g70
NtRp3342
(dp3343
g73
(dp3344
sg82
g3338
sg75
(lp3345
g68
(g89
g70
NtRp3346
(dp3347
g73
(dp3348
sg82
g3342
sg75
(lp3349
g68
(g69
g70
NtRp3350
(dp3351
g73
(dp3352
g81
I4
ssg82
g3346
sg75
(lp3353
S'*'
asbasbasbasbasbasbasbag68
(g84
g70
NtRp3354
(dp3355
g73
(dp3356
sg82
g2986
sg75
(lp3357
g68
(g89
g70
NtRp3358
(dp3359
g73
(dp3360
g93
g94
ssg82
g3354
sg75
(lp3361
S'headers'
p3362
asbag68
(g89
g70
NtRp3363
(dp3364
g73
(dp3365
g100
g101
ssg82
g3354
sg75
(lp3366
S':'
asbag68
(g89
g70
NtRp3367
(dp3368
g73
(dp3369
sg82
g3354
sg75
(lp3370
g68
(g69
g70
NtRp3371
(dp3372
g73
(dp3373
g81
I5
ssg82
g3367
sg75
(lp3374
g68
(g77
g70
NtRp3375
(dp3376
g73
(dp3377
g81
I4
ssg82
Nsg75
(lp3378
g68
(g84
g70
NtRp3379
(dp3380
g73
(dp3381
sg82
g3375
sg75
(lp3382
g68
(g89
g70
NtRp3383
(dp3384
g73
(dp3385
g93
g94
ssg82
g3379
sg75
(lp3386
S'Cache-Control'
p3387
asbag68
(g89
g70
NtRp3388
(dp3389
g73
(dp3390
g100
g101
ssg82
g3379
sg75
(lp3391
S':'
asbag68
(g89
g70
NtRp3392
(dp3393
g73
(dp3394
sg82
g3379
sg75
(lp3395
g68
(g69
g70
NtRp3396
(dp3397
g73
(dp3398
g81
I4
ssg82
g3392
sg75
(lp3399
S'no-store, no-cache, must-revalidate, post-check=0, pre-check=0'
p3400
asbasbasbag68
(g84
g70
NtRp3401
(dp3402
g73
(dp3403
sg82
g3375
sg75
(lp3404
g68
(g89
g70
NtRp3405
(dp3406
g73
(dp3407
g93
g94
ssg82
g3401
sg75
(lp3408
S'Content-Type'
p3409
asbag68
(g89
g70
NtRp3410
(dp3411
g73
(dp3412
g100
g101
ssg82
g3401
sg75
(lp3413
S':'
asbag68
(g89
g70
NtRp3414
(dp3415
g73
(dp3416
sg82
g3401
sg75
(lp3417
g68
(g69
g70
NtRp3418
(dp3419
g73
(dp3420
g81
I4
ssg82
g3414
sg75
(lp3421
S'text/html; charset=utf-8'
p3422
asbasbasbag68
(g84
g70
NtRp3423
(dp3424
g73
(dp3425
sg82
g3375
sg75
(lp3426
g68
(g89
g70
NtRp3427
(dp3428
g73
(dp3429
g93
g94
ssg82
g3423
sg75
(lp3430
S'Expires'
p3431
asbag68
(g89
g70
NtRp3432
(dp3433
g73
(dp3434
g100
g101
ssg82
g3423
sg75
(lp3435
S':'
asbag68
(g89
g70
NtRp3436
(dp3437
g73
(dp3438
sg82
g3423
sg75
(lp3439
g68
(g69
g70
NtRp3440
(dp3441
g73
(dp3442
g81
I4
ssg82
g3436
sg75
(lp3443
S'Mon, 21 May 2012 19:24:04 GMT'
p3444
asbasbasbag68
(g84
g70
NtRp3445
(dp3446
g73
(dp3447
sg82
g3375
sg75
(lp3448
g68
(g89
g70
NtRp3449
(dp3450
g73
(dp3451
g93
g94
ssg82
g3445
sg75
(lp3452
S'Pragma'
p3453
asbag68
(g89
g70
NtRp3454
(dp3455
g73
(dp3456
g100
g101
ssg82
g3445
sg75
(lp3457
S':'
asbag68
(g89
g70
NtRp3458
(dp3459
g73
(dp3460
sg82
g3445
sg75
(lp3461
g68
(g69
g70
NtRp3462
(dp3463
g73
(dp3464
g81
I4
ssg82
g3458
sg75
(lp3465
S'no-cache'
p3466
asbasbasbag68
(g84
g70
NtRp3467
(dp3468
g73
(dp3469
sg82
g3375
sg75
(lp3470
g68
(g89
g70
NtRp3471
(dp3472
g73
(dp3473
g93
g94
ssg82
g3467
sg75
(lp3474
S'X-Powered-By'
p3475
asbag68
(g89
g70
NtRp3476
(dp3477
g73
(dp3478
g100
g101
ssg82
g3467
sg75
(lp3479
S':'
asbag68
(g89
g70
NtRp3480
(dp3481
g73
(dp3482
sg82
g3467
sg75
(lp3483
g68
(g69
g70
NtRp3484
(dp3485
g73
(dp3486
g81
I4
ssg82
g3480
sg75
(lp3487
S'web2py'
p3488
asbasbasbasbasbasbasbag68
(g84
g70
NtRp3489
(dp3490
g73
(dp3491
sg82
g2986
sg75
(lp3492
g68
(g89
g70
NtRp3493
(dp3494
g73
(dp3495
g93
g94
ssg82
g3489
sg75
(lp3496
S'menu'
p3497
asbag68
(g89
g70
NtRp3498
(dp3499
g73
(dp3500
g100
g101
ssg82
g3489
sg75
(lp3501
S':'
asbag68
(g89
g70
NtRp3502
(dp3503
g73
(dp3504
sg82
g3489
sg75
(lp3505
g68
(g69
g70
NtRp3506
(dp3507
g73
(dp3508
g81
I5
ssg82
g3502
sg75
(lp3509
g68
(g77
g70
NtRp3510
(dp3511
g73
(dp3512
g81
I4
ssg82
Nsg75
(lp3513
g68
(g84
g70
NtRp3514
(dp3515
g73
(dp3516
sg82
g3510
sg75
(lp3517
g68
(g89
g70
NtRp3518
(dp3519
g73
(dp3520
sg82
g3514
sg75
(lp3521
g68
(g69
g70
NtRp3522
(dp3523
g73
(dp3524
g81
I4
ssg82
g3518
sg75
(lp3525
g68
(g77
g70
NtRp3526
(dp3527
g73
(dp3528
g81
I3
ssg82
Nsg75
(lp3529
g68
(g84
g70
NtRp3530
(dp3531
g73
(dp3532
sg82
g3526
sg75
(lp3533
g68
(g89
g70
NtRp3534
(dp3535
g73
(dp3536
sg82
g3530
sg75
(lp3537
g68
(g69
g70
NtRp3538
(dp3539
g73
(dp3540
g81
I3
ssg82
g3534
sg75
(lp3541
cgluon.languages
lazyT_unpickle
p3542
(S't\x05\x00\x00\x00Votes'
tRp3543
asbasbasbag68
(g84
g70
NtRp3544
(dp3545
g73
(dp3546
sg82
g3526
sg75
(lp3547
g68
(g89
g70
NtRp3548
(dp3549
g73
(dp3550
sg82
g3544
sg75
(lp3551
g68
(g69
g70
NtRp3552
(dp3553
g73
(dp3554
g81
I3
ssg82
g3548
sg75
(lp3555
g111
asbasbasbag68
(g84
g70
NtRp3556
(dp3557
g73
(dp3558
sg82
g3526
sg75
(lp3559
g68
(g89
g70
NtRp3560
(dp3561
g73
(dp3562
sg82
g3556
sg75
(lp3563
g68
(g69
g70
NtRp3564
(dp3565
g73
(dp3566
g81
I3
ssg82
g3560
sg75
(lp3567
S'/bigvotes/default/index'
p3568
asbasbasbag68
(g84
g70
NtRp3569
(dp3570
g73
(dp3571
sg82
g3526
sg75
(lp3572
g68
(g89
g70
NtRp3573
(dp3574
g73
(dp3575
sg82
g3569
sg75
(lp3576
g68
(g69
g70
NtRp3577
(dp3578
g73
(dp3579
g81
I3
ssg82
g3573
sg75
(lp3580
g68
(g77
g70
NtRp3581
(dp3582
g73
(dp3583
g81
I2
ssg82
Nsg75
(lp3584
sbasbasbasbasbasbasbasbag68
(g84
g70
NtRp3585
(dp3586
g73
(dp3587
sg82
g3510
sg75
(lp3588
g68
(g89
g70
NtRp3589
(dp3590
g73
(dp3591
sg82
g3585
sg75
(lp3592
g68
(g69
g70
NtRp3593
(dp3594
g73
(dp3595
g81
I4
ssg82
g3589
sg75
(lp3596
g68
(g77
g70
NtRp3597
(dp3598
g73
(dp3599
g81
I3
ssg82
Nsg75
(lp3600
g68
(g84
g70
NtRp3601
(dp3602
g73
(dp3603
sg82
g3597
sg75
(lp3604
g68
(g89
g70
NtRp3605
(dp3606
g73
(dp3607
sg82
g3601
sg75
(lp3608
g68
(g69
g70
NtRp3609
(dp3610
g73
(dp3611
g81
I3
ssg82
g3605
sg75
(lp3612
g3542
(S't\x07\x00\x00\x00Members'
tRp3613
asbasbasbag68
(g84
g70
NtRp3614
(dp3615
g73
(dp3616
sg82
g3597
sg75
(lp3617
g68
(g89
g70
NtRp3618
(dp3619
g73
(dp3620
sg82
g3614
sg75
(lp3621
g68
(g69
g70
NtRp3622
(dp3623
g73
(dp3624
g81
I3
ssg82
g3618
sg75
(lp3625
g111
asbasbasbag68
(g84
g70
NtRp3626
(dp3627
g73
(dp3628
sg82
g3597
sg75
(lp3629
g68
(g89
g70
NtRp3630
(dp3631
g73
(dp3632
sg82
g3626
sg75
(lp3633
g68
(g69
g70
NtRp3634
(dp3635
g73
(dp3636
g81
I3
ssg82
g3630
sg75
(lp3637
S'/bigvotes/member/index'
p3638
asbasbasbag68
(g84
g70
NtRp3639
(dp3640
g73
(dp3641
sg82
g3597
sg75
(lp3642
g68
(g89
g70
NtRp3643
(dp3644
g73
(dp3645
sg82
g3639
sg75
(lp3646
g68
(g69
g70
NtRp3647
(dp3648
g73
(dp3649
g81
I3
ssg82
g3643
sg75
(lp3650
g68
(g77
g70
NtRp3651
(dp3652
g73
(dp3653
g81
I2
ssg82
Nsg75
(lp3654
sbasbasbasbasbasbasbasbag68
(g84
g70
NtRp3655
(dp3656
g73
(dp3657
sg82
g3510
sg75
(lp3658
g68
(g89
g70
NtRp3659
(dp3660
g73
(dp3661
sg82
g3655
sg75
(lp3662
g68
(g69
g70
NtRp3663
(dp3664
g73
(dp3665
g81
I4
ssg82
g3659
sg75
(lp3666
g68
(g77
g70
NtRp3667
(dp3668
g73
(dp3669
g81
I3
ssg82
Nsg75
(lp3670
g68
(g84
g70
NtRp3671
(dp3672
g73
(dp3673
sg82
g3667
sg75
(lp3674
g68
(g89
g70
NtRp3675
(dp3676
g73
(dp3677
sg82
g3671
sg75
(lp3678
g68
(g69
g70
NtRp3679
(dp3680
g73
(dp3681
g81
I3
ssg82
g3675
sg75
(lp3682
g3542
(S's\x12\x00\x00\x00Members Eliminated'
tRp3683
asbasbasbag68
(g84
g70
NtRp3684
(dp3685
g73
(dp3686
sg82
g3667
sg75
(lp3687
g68
(g89
g70
NtRp3688
(dp3689
g73
(dp3690
sg82
g3684
sg75
(lp3691
g68
(g69
g70
NtRp3692
(dp3693
g73
(dp3694
g81
I3
ssg82
g3688
sg75
(lp3695
g111
asbasbasbag68
(g84
g70
NtRp3696
(dp3697
g73
(dp3698
sg82
g3667
sg75
(lp3699
g68
(g89
g70
NtRp3700
(dp3701
g73
(dp3702
sg82
g3696
sg75
(lp3703
g68
(g69
g70
NtRp3704
(dp3705
g73
(dp3706
g81
I3
ssg82
g3700
sg75
(lp3707
S'/bigvotes/member/eliminated'
p3708
asbasbasbag68
(g84
g70
NtRp3709
(dp3710
g73
(dp3711
sg82
g3667
sg75
(lp3712
g68
(g89
g70
NtRp3713
(dp3714
g73
(dp3715
sg82
g3709
sg75
(lp3716
g68
(g69
g70
NtRp3717
(dp3718
g73
(dp3719
g81
I3
ssg82
g3713
sg75
(lp3720
g68
(g77
g70
NtRp3721
(dp3722
g73
(dp3723
g81
I2
ssg82
Nsg75
(lp3724
sbasbasbasbasbasbasbasbasbasbasbasbag68
(g84
g70
NtRp3725
(dp3726
g73
(dp3727
sg82
g2986
sg75
(lp3728
g68
(g89
g70
NtRp3729
(dp3730
g73
(dp3731
g93
g94
ssg82
g3725
sg75
(lp3732
S'meta'
p3733
asbag68
(g89
g70
NtRp3734
(dp3735
g73
(dp3736
g100
g101
ssg82
g3725
sg75
(lp3737
S':'
asbag68
(g89
g70
NtRp3738
(dp3739
g73
(dp3740
sg82
g3725
sg75
(lp3741
g68
(g69
g70
NtRp3742
(dp3743
g73
(dp3744
g81
I5
ssg82
g3738
sg75
(lp3745
g68
(g77
g70
NtRp3746
(dp3747
g73
(dp3748
g81
I4
ssg82
Nsg75
(lp3749
g68
(g84
g70
NtRp3750
(dp3751
g73
(dp3752
sg82
g3746
sg75
(lp3753
g68
(g89
g70
NtRp3754
(dp3755
g73
(dp3756
g93
g94
ssg82
g3750
sg75
(lp3757
S'author'
p3758
asbag68
(g89
g70
NtRp3759
(dp3760
g73
(dp3761
g100
g101
ssg82
g3750
sg75
(lp3762
S':'
asbag68
(g89
g70
NtRp3763
(dp3764
g73
(dp3765
sg82
g3750
sg75
(lp3766
g68
(g69
g70
NtRp3767
(dp3768
g73
(dp3769
g81
I4
ssg82
g3763
sg75
(lp3770
S'Kaique da Silva <kaique.developer@gmail.com>'
p3771
asbasbasbag68
(g84
g70
NtRp3772
(dp3773
g73
(dp3774
sg82
g3746
sg75
(lp3775
g68
(g89
g70
NtRp3776
(dp3777
g73
(dp3778
g93
g94
ssg82
g3772
sg75
(lp3779
S'copyright'
p3780
asbag68
(g89
g70
NtRp3781
(dp3782
g73
(dp3783
g100
g101
ssg82
g3772
sg75
(lp3784
S':'
asbag68
(g89
g70
NtRp3785
(dp3786
g73
(dp3787
sg82
g3772
sg75
(lp3788
g68
(g69
g70
NtRp3789
(dp3790
g73
(dp3791
g81
I4
ssg82
g3785
sg75
(lp3792
S'Copyright 2012'
p3793
asbasbasbag68
(g84
g70
NtRp3794
(dp3795
g73
(dp3796
sg82
g3746
sg75
(lp3797
g68
(g89
g70
NtRp3798
(dp3799
g73
(dp3800
g93
g94
ssg82
g3794
sg75
(lp3801
S'description'
p3802
asbag68
(g89
g70
NtRp3803
(dp3804
g73
(dp3805
g100
g101
ssg82
g3794
sg75
(lp3806
S':'
asbag68
(g89
g70
NtRp3807
(dp3808
g73
(dp3809
sg82
g3794
sg75
(lp3810
g68
(g69
g70
NtRp3811
(dp3812
g73
(dp3813
g81
I4
ssg82
g3807
sg75
(lp3814
S'Challenge app'
p3815
asbasbasbag68
(g84
g70
NtRp3816
(dp3817
g73
(dp3818
sg82
g3746
sg75
(lp3819
g68
(g89
g70
NtRp3820
(dp3821
g73
(dp3822
g93
g94
ssg82
g3816
sg75
(lp3823
S'generator'
p3824
asbag68
(g89
g70
NtRp3825
(dp3826
g73
(dp3827
g100
g101
ssg82
g3816
sg75
(lp3828
S':'
asbag68
(g89
g70
NtRp3829
(dp3830
g73
(dp3831
sg82
g3816
sg75
(lp3832
g68
(g69
g70
NtRp3833
(dp3834
g73
(dp3835
g81
I4
ssg82
g3829
sg75
(lp3836
S'Web2py Web Framework'
p3837
asbasbasbag68
(g84
g70
NtRp3838
(dp3839
g73
(dp3840
sg82
g3746
sg75
(lp3841
g68
(g89
g70
NtRp3842
(dp3843
g73
(dp3844
g93
g94
ssg82
g3838
sg75
(lp3845
S'keywords'
p3846
asbag68
(g89
g70
NtRp3847
(dp3848
g73
(dp3849
g100
g101
ssg82
g3838
sg75
(lp3850
S':'
asbag68
(g89
g70
NtRp3851
(dp3852
g73
(dp3853
sg82
g3838
sg75
(lp3854
g68
(g69
g70
NtRp3855
(dp3856
g73
(dp3857
g81
I4
ssg82
g3851
sg75
(lp3858
S'BBB, votes, challenge'
p3859
asbasbasbasbasbasbasbag68
(g84
g70
NtRp3860
(dp3861
g73
(dp3862
sg82
g2986
sg75
(lp3863
g68
(g89
g70
NtRp3864
(dp3865
g73
(dp3866
g93
g94
ssg82
g3860
sg75
(lp3867
S'postprocessing'
p3868
asbag68
(g89
g70
NtRp3869
(dp3870
g73
(dp3871
g100
g101
ssg82
g3860
sg75
(lp3872
S':'
asbag68
(g89
g70
NtRp3873
(dp3874
g73
(dp3875
sg82
g3860
sg75
(lp3876
g68
(g69
g70
NtRp3877
(dp3878
g73
(dp3879
g81
I5
ssg82
g3873
sg75
(lp3880
g68
(g77
g70
NtRp3881
(dp3882
g73
(dp3883
g81
I4
ssg82
Nsg75
(lp3884
sbasbasbasbag68
(g84
g70
NtRp3885
(dp3886
g73
(dp3887
sg82
g2986
sg75
(lp3888
g68
(g89
g70
NtRp3889
(dp3890
g73
(dp3891
g93
g94
ssg82
g3885
sg75
(lp3892
S'session_file'
p3893
asbag68
(g89
g70
NtRp3894
(dp3895
g73
(dp3896
g100
g101
ssg82
g3885
sg75
(lp3897
S':'
asbag68
(g89
g70
NtRp3898
(dp3899
g73
(dp3900
sg82
g3885
sg75
(lp3901
g68
(g69
g70
NtRp3902
(dp3903
g73
(dp3904
g81
I5
ssg82
g3898
sg75
(lp3905
S"<open file '/Users/kaiquesilva/Projects/WebApps/big-votes/web2py/applications/bigvotes/sessions/127.0.0.1-0c65f91e-3424-4f01-826a-fccbbef12bf1', mode 'rb+' at 0x109114f60>"
p3906
asbasbasbag68
(g84
g70
NtRp3907
(dp3908
g73
(dp3909
sg82
g2986
sg75
(lp3910
g68
(g89
g70
NtRp3911
(dp3912
g73
(dp3913
g93
g94
ssg82
g3907
sg75
(lp3914
S'session_filename'
p3915
asbag68
(g89
g70
NtRp3916
(dp3917
g73
(dp3918
g100
g101
ssg82
g3907
sg75
(lp3919
S':'
asbag68
(g89
g70
NtRp3920
(dp3921
g73
(dp3922
sg82
g3907
sg75
(lp3923
g68
(g69
g70
NtRp3924
(dp3925
g73
(dp3926
g81
I5
ssg82
g3920
sg75
(lp3927
S'/Users/kaiquesilva/Projects/WebApps/big-votes/web2py/applications/bigvotes/sessions/127.0.0.1-0c65f91e-3424-4f01-826a-fccbbef12bf1'
p3928
asbasbasbag68
(g84
g70
NtRp3929
(dp3930
g73
(dp3931
sg82
g2986
sg75
(lp3932
g68
(g89
g70
NtRp3933
(dp3934
g73
(dp3935
g93
g94
ssg82
g3929
sg75
(lp3936
S'session_id'
p3937
asbag68
(g89
g70
NtRp3938
(dp3939
g73
(dp3940
g100
g101
ssg82
g3929
sg75
(lp3941
S':'
asbag68
(g89
g70
NtRp3942
(dp3943
g73
(dp3944
sg82
g3929
sg75
(lp3945
g68
(g69
g70
NtRp3946
(dp3947
g73
(dp3948
g81
I5
ssg82
g3942
sg75
(lp3949
S'127.0.0.1-0c65f91e-3424-4f01-826a-fccbbef12bf1'
p3950
asbasbasbag68
(g84
g70
NtRp3951
(dp3952
g73
(dp3953
sg82
g2986
sg75
(lp3954
g68
(g89
g70
NtRp3955
(dp3956
g73
(dp3957
g93
g94
ssg82
g3951
sg75
(lp3958
S'session_id_name'
p3959
asbag68
(g89
g70
NtRp3960
(dp3961
g73
(dp3962
g100
g101
ssg82
g3951
sg75
(lp3963
S':'
asbag68
(g89
g70
NtRp3964
(dp3965
g73
(dp3966
sg82
g3951
sg75
(lp3967
g68
(g69
g70
NtRp3968
(dp3969
g73
(dp3970
g81
I5
ssg82
g3964
sg75
(lp3971
g3043
asbasbasbag68
(g84
g70
NtRp3972
(dp3973
g73
(dp3974
sg82
g2986
sg75
(lp3975
g68
(g89
g70
NtRp3976
(dp3977
g73
(dp3978
g93
g94
ssg82
g3972
sg75
(lp3979
S'session_locked'
p3980
asbag68
(g89
g70
NtRp3981
(dp3982
g73
(dp3983
g100
g101
ssg82
g3972
sg75
(lp3984
S':'
asbag68
(g89
g70
NtRp3985
(dp3986
g73
(dp3987
sg82
g3972
sg75
(lp3988
g68
(g69
g70
NtRp3989
(dp3990
g73
(dp3991
g81
I5
ssg82
g3985
sg75
(lp3992
g1546
asbasbasbag68
(g84
g70
NtRp3993
(dp3994
g73
(dp3995
sg82
g2986
sg75
(lp3996
g68
(g89
g70
NtRp3997
(dp3998
g73
(dp3999
g93
g94
ssg82
g3993
sg75
(lp4000
S'session_new'
p4001
asbag68
(g89
g70
NtRp4002
(dp4003
g73
(dp4004
g100
g101
ssg82
g3993
sg75
(lp4005
S':'
asbag68
(g89
g70
NtRp4006
(dp4007
g73
(dp4008
sg82
g3993
sg75
(lp4009
g68
(g69
g70
NtRp4010
(dp4011
g73
(dp4012
g81
I5
ssg82
g4006
sg75
(lp4013
g111
asbasbasbag68
(g84
g70
NtRp4014
(dp4015
g73
(dp4016
sg82
g2986
sg75
(lp4017
g68
(g89
g70
NtRp4018
(dp4019
g73
(dp4020
g93
g94
ssg82
g4014
sg75
(lp4021
S'status'
p4022
asbag68
(g89
g70
NtRp4023
(dp4024
g73
(dp4025
g100
g101
ssg82
g4014
sg75
(lp4026
S':'
asbag68
(g89
g70
NtRp4027
(dp4028
g73
(dp4029
sg82
g4014
sg75
(lp4030
g68
(g69
g70
NtRp4031
(dp4032
g73
(dp4033
g81
I5
ssg82
g4027
sg75
(lp4034
S'200'
p4035
asbasbasbag68
(g84
g70
NtRp4036
(dp4037
g73
(dp4038
sg82
g2986
sg75
(lp4039
g68
(g89
g70
NtRp4040
(dp4041
g73
(dp4042
g93
g94
ssg82
g4036
sg75
(lp4043
S'subtitle'
p4044
asbag68
(g89
g70
NtRp4045
(dp4046
g73
(dp4047
g100
g101
ssg82
g4036
sg75
(lp4048
S':'
asbag68
(g89
g70
NtRp4049
(dp4050
g73
(dp4051
sg82
g4036
sg75
(lp4052
g68
(g69
g70
NtRp4053
(dp4054
g73
(dp4055
g81
I5
ssg82
g4049
sg75
(lp4056
S'A simple chanllenge'
p4057
asbasbasbag68
(g84
g70
NtRp4058
(dp4059
g73
(dp4060
sg82
g2986
sg75
(lp4061
g68
(g89
g70
NtRp4062
(dp4063
g73
(dp4064
g93
g94
ssg82
g4058
sg75
(lp4065
S'title'
p4066
asbag68
(g89
g70
NtRp4067
(dp4068
g73
(dp4069
g100
g101
ssg82
g4058
sg75
(lp4070
S':'
asbag68
(g89
g70
NtRp4071
(dp4072
g73
(dp4073
sg82
g4058
sg75
(lp4074
g68
(g69
g70
NtRp4075
(dp4076
g73
(dp4077
g81
I5
ssg82
g4071
sg75
(lp4078
S'Big Votes'
p4079
asbasbasbag68
(g84
g70
NtRp4080
(dp4081
g73
(dp4082
sg82
g2986
sg75
(lp4083
g68
(g89
g70
NtRp4084
(dp4085
g73
(dp4086
g93
g94
ssg82
g4080
sg75
(lp4087
g2210
asbag68
(g89
g70
NtRp4088
(dp4089
g73
(dp4090
g100
g101
ssg82
g4080
sg75
(lp4091
S':'
asbag68
(g89
g70
NtRp4092
(dp4093
g73
(dp4094
sg82
g4080
sg75
(lp4095
g68
(g69
g70
NtRp4096
(dp4097
g73
(dp4098
g81
I5
ssg82
g4092
sg75
(lp4099
g2223
asbasbasbag68
(g84
g70
NtRp4100
(dp4101
g73
(dp4102
sg82
g2986
sg75
(lp4103
g68
(g89
g70
NtRp4104
(dp4105
g73
(dp4106
g93
g94
ssg82
g4100
sg75
(lp4107
S'view'
p4108
asbag68
(g89
g70
NtRp4109
(dp4110
g73
(dp4111
g100
g101
ssg82
g4100
sg75
(lp4112
S':'
asbag68
(g89
g70
NtRp4113
(dp4114
g73
(dp4115
sg82
g4100
sg75
(lp4116
g68
(g69
g70
NtRp4117
(dp4118
g73
(dp4119
g81
I5
ssg82
g4113
sg75
(lp4120
S'default/index.html'
p4121
asbasbasbasbasbsS'locals'
p4122
(dp4123
g4
S"'/Users/kaiquesilva/Projects/WebApps/big-votes/web2py/applications/bigvotes/controllers/default.py'"
p4124
sg6
S"'# -*- coding: utf-8 -*-\\nfrom bigvotes import Vot...crud())\\n\\n\\nresponse._vars=response._caller(index)\\n'"
p4125
sssS'traceback'
p4126
S'Traceback (most recent call last):\n  File "/Users/kaiquesilva/Projects/WebApps/big-votes/web2py/gluon/restricted.py", line 204, in restricted\n    ccode = compile2(code,layer)\n  File "/Users/kaiquesilva/Projects/WebApps/big-votes/web2py/gluon/restricted.py", line 189, in compile2\n    return compile(code.rstrip().replace(\'\\r\\n\',\'\\n\')+\'\\n\', layer, \'exec\')\n  File "/Users/kaiquesilva/Projects/WebApps/big-votes/web2py/applications/bigvotes/controllers/default.py", line 2\n    from bigvotes import Votes, Votes.hello\n                                     ^\nSyntaxError: invalid syntax\n'
p4127
s.