(dp1
S'output'
p2
S"<type 'exceptions.TypeError'> hello() takes no arguments (1 given)"
p3
sS'layer'
p4
S'/Users/kaiquesilva/Projects/WebApps/big-votes/web2py/applications/bigvotes/controllers/default.py'
p5
sS'code'
p6
S'# -*- coding: utf-8 -*-\nimport bigvotes.hello\nfrom bigvotes import Votes\nimport datetime\n\ndef index():\n    # Now time\n    now = datetime.datetime.now()\n    # Get votation members\n    votes = Votes( db ).getActives()\n    specs = {}\n\n    if votes:\n        votes = votes.first()\n        # Specifications of member\n        specs = {\n            \'id\': [member.id for member in votes.members],\n            \'title\': [member.name for member in votes.members],\n            \'avatar\': [\n                \'<img src="{0}" width="40%" height="40%" />\'.format( \n                        URL(\'default\', \'download\', args=[member.avatar]\n                    ) \n                ) for member in votes.members\n            ],\n            \'start\': votes.start_at,\n            \'end\': votes.end_at,\n        }\n\n    return {\n        \'now\': now,\n        \'votes\': votes,\n        \'specs\': specs\n    }\n\n@bigvotes.hello\ndef user():\n    return dict(form=auth())\n\n\ndef download():\n    return response.download(request,db)\n\n\ndef call():\n    return service()\n\n\n@auth.requires_signature()\ndef data():\n    return dict(form=crud())\n\n\nresponse._vars=response._caller(index)\n'
p7
sS'snapshot'
p8
(dp9
S'exception'
p10
(dp11
S'__hash__'
p12
S"<method-wrapper '__hash__' of exceptions.TypeError object>"
p13
sS'__setattr__'
p14
S"<method-wrapper '__setattr__' of exceptions.TypeError object>"
p15
sS'__reduce_ex__'
p16
S'<built-in method __reduce_ex__ of exceptions.TypeError object>'
p17
sS'__getslice__'
p18
S"<method-wrapper '__getslice__' of exceptions.TypeError object>"
p19
sS'__getitem__'
p20
S"<method-wrapper '__getitem__' of exceptions.TypeError object>"
p21
sS'__setstate__'
p22
S'<built-in method __setstate__ of exceptions.TypeError object>'
p23
sS'args'
p24
S"('hello() takes no arguments (1 given)',)"
p25
sS'__reduce__'
p26
S'<built-in method __reduce__ of exceptions.TypeError object>'
p27
sS'__str__'
p28
S"<method-wrapper '__str__' of exceptions.TypeError object>"
p29
sS'__format__'
p30
S'<built-in method __format__ of exceptions.TypeError object>'
p31
sS'__getattribute__'
p32
S"<method-wrapper '__getattribute__' of exceptions.TypeError object>"
p33
sS'__class__'
p34
S"<type 'exceptions.TypeError'>"
p35
sS'__unicode__'
p36
S'<built-in method __unicode__ of exceptions.TypeError object>'
p37
sS'__delattr__'
p38
S"<method-wrapper '__delattr__' of exceptions.TypeError object>"
p39
sS'__subclasshook__'
p40
S'<built-in method __subclasshook__ of type object>'
p41
sS'__repr__'
p42
S"<method-wrapper '__repr__' of exceptions.TypeError object>"
p43
sS'__dict__'
p44
S'{}'
p45
sS'__sizeof__'
p46
S'<built-in method __sizeof__ of exceptions.TypeError object>'
p47
sS'__doc__'
p48
S"'Inappropriate argument type.'"
p49
sS'__init__'
p50
S"<method-wrapper '__init__' of exceptions.TypeError object>"
p51
sS'__new__'
p52
S'<built-in method __new__ of type object>'
p53
ssS'evalue'
p54
S'hello() takes no arguments (1 given)'
p55
sS'request'
p56
ccopy_reg
_reconstructor
p57
(cgluon.html
BEAUTIFY
p58
c__builtin__
object
p59
NtRp60
(dp61
S'attributes'
p62
(dp63
sS'components'
p64
(lp65
g57
(cgluon.html
TABLE
p66
g59
NtRp67
(dp68
g62
(dp69
S'level'
p70
I5
ssS'parent'
p71
Nsg64
(lp72
g57
(cgluon.html
TR
p73
g59
NtRp74
(dp75
g62
(dp76
sg71
g67
sg64
(lp77
g57
(cgluon.html
TD
p78
g59
NtRp79
(dp80
g62
(dp81
S'_style'
p82
S'font-weight:bold;vertical-align:top'
p83
ssg71
g74
sg64
(lp84
S'ajax'
p85
asbag57
(g78
g59
NtRp86
(dp87
g62
(dp88
S'_valign'
p89
S'top'
p90
ssg71
g74
sg64
(lp91
S':'
asbag57
(g78
g59
NtRp92
(dp93
g62
(dp94
sg71
g74
sg64
(lp95
g57
(g58
g59
NtRp96
(dp97
g62
(dp98
g70
I5
ssg71
g92
sg64
(lp99
S'False'
p100
asbasbasbag57
(g73
g59
NtRp101
(dp102
g62
(dp103
sg71
g67
sg64
(lp104
g57
(g78
g59
NtRp105
(dp106
g62
(dp107
g82
g83
ssg71
g101
sg64
(lp108
S'application'
p109
asbag57
(g78
g59
NtRp110
(dp111
g62
(dp112
g89
g90
ssg71
g101
sg64
(lp113
S':'
asbag57
(g78
g59
NtRp114
(dp115
g62
(dp116
sg71
g101
sg64
(lp117
g57
(g58
g59
NtRp118
(dp119
g62
(dp120
g70
I5
ssg71
g114
sg64
(lp121
S'bigvotes'
p122
asbasbasbag57
(g73
g59
NtRp123
(dp124
g62
(dp125
sg71
g67
sg64
(lp126
g57
(g78
g59
NtRp127
(dp128
g62
(dp129
g82
g83
ssg71
g123
sg64
(lp130
g24
asbag57
(g78
g59
NtRp131
(dp132
g62
(dp133
g89
g90
ssg71
g123
sg64
(lp134
S':'
asbag57
(g78
g59
NtRp135
(dp136
g62
(dp137
sg71
g123
sg64
(lp138
g57
(g58
g59
NtRp139
(dp140
g62
(dp141
g70
I5
ssg71
g135
sg64
(lp142
g57
(g66
g59
NtRp143
(dp144
g62
(dp145
g70
I4
ssg71
Nsg64
(lp146
sbasbasbasbag57
(g73
g59
NtRp147
(dp148
g62
(dp149
sg71
g67
sg64
(lp150
g57
(g78
g59
NtRp151
(dp152
g62
(dp153
g82
g83
ssg71
g147
sg64
(lp154
S'body'
p155
asbag57
(g78
g59
NtRp156
(dp157
g62
(dp158
g89
g90
ssg71
g147
sg64
(lp159
S':'
asbag57
(g78
g59
NtRp160
(dp161
g62
(dp162
sg71
g147
sg64
(lp163
g57
(g58
g59
NtRp164
(dp165
g62
(dp166
g70
I5
ssg71
g160
sg64
(lp167
S'<cStringIO.StringO object at 0x102417ae8>'
p168
asbasbasbag57
(g73
g59
NtRp169
(dp170
g62
(dp171
sg71
g67
sg64
(lp172
g57
(g78
g59
NtRp173
(dp174
g62
(dp175
g82
g83
ssg71
g169
sg64
(lp176
S'client'
p177
asbag57
(g78
g59
NtRp178
(dp179
g62
(dp180
g89
g90
ssg71
g169
sg64
(lp181
S':'
asbag57
(g78
g59
NtRp182
(dp183
g62
(dp184
sg71
g169
sg64
(lp185
g57
(g58
g59
NtRp186
(dp187
g62
(dp188
g70
I5
ssg71
g182
sg64
(lp189
S'127.0.0.1'
p190
asbasbasbag57
(g73
g59
NtRp191
(dp192
g62
(dp193
sg71
g67
sg64
(lp194
g57
(g78
g59
NtRp195
(dp196
g62
(dp197
g82
g83
ssg71
g191
sg64
(lp198
S'controller'
p199
asbag57
(g78
g59
NtRp200
(dp201
g62
(dp202
g89
g90
ssg71
g191
sg64
(lp203
S':'
asbag57
(g78
g59
NtRp204
(dp205
g62
(dp206
sg71
g191
sg64
(lp207
g57
(g58
g59
NtRp208
(dp209
g62
(dp210
g70
I5
ssg71
g204
sg64
(lp211
S'default'
p212
asbasbasbag57
(g73
g59
NtRp213
(dp214
g62
(dp215
sg71
g67
sg64
(lp216
g57
(g78
g59
NtRp217
(dp218
g62
(dp219
g82
g83
ssg71
g213
sg64
(lp220
S'cookies'
p221
asbag57
(g78
g59
NtRp222
(dp223
g62
(dp224
g89
g90
ssg71
g213
sg64
(lp225
S':'
asbag57
(g78
g59
NtRp226
(dp227
g62
(dp228
sg71
g213
sg64
(lp229
g57
(g58
g59
NtRp230
(dp231
g62
(dp232
g70
I5
ssg71
g226
sg64
(lp233
g57
(g66
g59
NtRp234
(dp235
g62
(dp236
g70
I4
ssg71
Nsg64
(lp237
g57
(g73
g59
NtRp238
(dp239
g62
(dp240
sg71
g234
sg64
(lp241
g57
(g78
g59
NtRp242
(dp243
g62
(dp244
g82
g83
ssg71
g238
sg64
(lp245
S'session_id_admin'
p246
asbag57
(g78
g59
NtRp247
(dp248
g62
(dp249
g89
g90
ssg71
g238
sg64
(lp250
S':'
asbag57
(g78
g59
NtRp251
(dp252
g62
(dp253
sg71
g238
sg64
(lp254
g57
(g58
g59
NtRp255
(dp256
g62
(dp257
g70
I4
ssg71
g251
sg64
(lp258
g57
(g66
g59
NtRp259
(dp260
g62
(dp261
g70
I3
ssg71
Nsg64
(lp262
g57
(g73
g59
NtRp263
(dp264
g62
(dp265
sg71
g259
sg64
(lp266
g57
(g78
g59
NtRp267
(dp268
g62
(dp269
g82
g83
ssg71
g263
sg64
(lp270
S'comment'
p271
asbag57
(g78
g59
NtRp272
(dp273
g62
(dp274
g89
g90
ssg71
g263
sg64
(lp275
S':'
asbag57
(g78
g59
NtRp276
(dp277
g62
(dp278
sg71
g263
sg64
(lp279
g57
(g58
g59
NtRp280
(dp281
g62
(dp282
g70
I3
ssg71
g276
sg64
(lp283
S''
asbasbasbag57
(g73
g59
NtRp284
(dp285
g62
(dp286
sg71
g259
sg64
(lp287
g57
(g78
g59
NtRp288
(dp289
g62
(dp290
g82
g83
ssg71
g284
sg64
(lp291
S'domain'
p292
asbag57
(g78
g59
NtRp293
(dp294
g62
(dp295
g89
g90
ssg71
g284
sg64
(lp296
S':'
asbag57
(g78
g59
NtRp297
(dp298
g62
(dp299
sg71
g284
sg64
(lp300
g57
(g58
g59
NtRp301
(dp302
g62
(dp303
g70
I3
ssg71
g297
sg64
(lp304
S''
asbasbasbag57
(g73
g59
NtRp305
(dp306
g62
(dp307
sg71
g259
sg64
(lp308
g57
(g78
g59
NtRp309
(dp310
g62
(dp311
g82
g83
ssg71
g305
sg64
(lp312
S'expires'
p313
asbag57
(g78
g59
NtRp314
(dp315
g62
(dp316
g89
g90
ssg71
g305
sg64
(lp317
S':'
asbag57
(g78
g59
NtRp318
(dp319
g62
(dp320
sg71
g305
sg64
(lp321
g57
(g58
g59
NtRp322
(dp323
g62
(dp324
g70
I3
ssg71
g318
sg64
(lp325
S''
asbasbasbag57
(g73
g59
NtRp326
(dp327
g62
(dp328
sg71
g259
sg64
(lp329
g57
(g78
g59
NtRp330
(dp331
g62
(dp332
g82
g83
ssg71
g326
sg64
(lp333
S'httponly'
p334
asbag57
(g78
g59
NtRp335
(dp336
g62
(dp337
g89
g90
ssg71
g326
sg64
(lp338
S':'
asbag57
(g78
g59
NtRp339
(dp340
g62
(dp341
sg71
g326
sg64
(lp342
g57
(g58
g59
NtRp343
(dp344
g62
(dp345
g70
I3
ssg71
g339
sg64
(lp346
S''
asbasbasbag57
(g73
g59
NtRp347
(dp348
g62
(dp349
sg71
g259
sg64
(lp350
g57
(g78
g59
NtRp351
(dp352
g62
(dp353
g82
g83
ssg71
g347
sg64
(lp354
S'max-age'
p355
asbag57
(g78
g59
NtRp356
(dp357
g62
(dp358
g89
g90
ssg71
g347
sg64
(lp359
S':'
asbag57
(g78
g59
NtRp360
(dp361
g62
(dp362
sg71
g347
sg64
(lp363
g57
(g58
g59
NtRp364
(dp365
g62
(dp366
g70
I3
ssg71
g360
sg64
(lp367
S''
asbasbasbag57
(g73
g59
NtRp368
(dp369
g62
(dp370
sg71
g259
sg64
(lp371
g57
(g78
g59
NtRp372
(dp373
g62
(dp374
g82
g83
ssg71
g368
sg64
(lp375
S'path'
p376
asbag57
(g78
g59
NtRp377
(dp378
g62
(dp379
g89
g90
ssg71
g368
sg64
(lp380
S':'
asbag57
(g78
g59
NtRp381
(dp382
g62
(dp383
sg71
g368
sg64
(lp384
g57
(g58
g59
NtRp385
(dp386
g62
(dp387
g70
I3
ssg71
g381
sg64
(lp388
S''
asbasbasbag57
(g73
g59
NtRp389
(dp390
g62
(dp391
sg71
g259
sg64
(lp392
g57
(g78
g59
NtRp393
(dp394
g62
(dp395
g82
g83
ssg71
g389
sg64
(lp396
S'secure'
p397
asbag57
(g78
g59
NtRp398
(dp399
g62
(dp400
g89
g90
ssg71
g389
sg64
(lp401
S':'
asbag57
(g78
g59
NtRp402
(dp403
g62
(dp404
sg71
g389
sg64
(lp405
g57
(g58
g59
NtRp406
(dp407
g62
(dp408
g70
I3
ssg71
g402
sg64
(lp409
S''
asbasbasbag57
(g73
g59
NtRp410
(dp411
g62
(dp412
sg71
g259
sg64
(lp413
g57
(g78
g59
NtRp414
(dp415
g62
(dp416
g82
g83
ssg71
g410
sg64
(lp417
S'version'
p418
asbag57
(g78
g59
NtRp419
(dp420
g62
(dp421
g89
g90
ssg71
g410
sg64
(lp422
S':'
asbag57
(g78
g59
NtRp423
(dp424
g62
(dp425
sg71
g410
sg64
(lp426
g57
(g58
g59
NtRp427
(dp428
g62
(dp429
g70
I3
ssg71
g423
sg64
(lp430
S''
asbasbasbasbasbasbasbag57
(g73
g59
NtRp431
(dp432
g62
(dp433
sg71
g234
sg64
(lp434
g57
(g78
g59
NtRp435
(dp436
g62
(dp437
g82
g83
ssg71
g431
sg64
(lp438
S'session_id_bigvotes'
p439
asbag57
(g78
g59
NtRp440
(dp441
g62
(dp442
g89
g90
ssg71
g431
sg64
(lp443
S':'
asbag57
(g78
g59
NtRp444
(dp445
g62
(dp446
sg71
g431
sg64
(lp447
g57
(g58
g59
NtRp448
(dp449
g62
(dp450
g70
I4
ssg71
g444
sg64
(lp451
g57
(g66
g59
NtRp452
(dp453
g62
(dp454
g70
I3
ssg71
Nsg64
(lp455
g57
(g73
g59
NtRp456
(dp457
g62
(dp458
sg71
g452
sg64
(lp459
g57
(g78
g59
NtRp460
(dp461
g62
(dp462
g82
g83
ssg71
g456
sg64
(lp463
g271
asbag57
(g78
g59
NtRp464
(dp465
g62
(dp466
g89
g90
ssg71
g456
sg64
(lp467
S':'
asbag57
(g78
g59
NtRp468
(dp469
g62
(dp470
sg71
g456
sg64
(lp471
g57
(g58
g59
NtRp472
(dp473
g62
(dp474
g70
I3
ssg71
g468
sg64
(lp475
S''
asbasbasbag57
(g73
g59
NtRp476
(dp477
g62
(dp478
sg71
g452
sg64
(lp479
g57
(g78
g59
NtRp480
(dp481
g62
(dp482
g82
g83
ssg71
g476
sg64
(lp483
g292
asbag57
(g78
g59
NtRp484
(dp485
g62
(dp486
g89
g90
ssg71
g476
sg64
(lp487
S':'
asbag57
(g78
g59
NtRp488
(dp489
g62
(dp490
sg71
g476
sg64
(lp491
g57
(g58
g59
NtRp492
(dp493
g62
(dp494
g70
I3
ssg71
g488
sg64
(lp495
S''
asbasbasbag57
(g73
g59
NtRp496
(dp497
g62
(dp498
sg71
g452
sg64
(lp499
g57
(g78
g59
NtRp500
(dp501
g62
(dp502
g82
g83
ssg71
g496
sg64
(lp503
g313
asbag57
(g78
g59
NtRp504
(dp505
g62
(dp506
g89
g90
ssg71
g496
sg64
(lp507
S':'
asbag57
(g78
g59
NtRp508
(dp509
g62
(dp510
sg71
g496
sg64
(lp511
g57
(g58
g59
NtRp512
(dp513
g62
(dp514
g70
I3
ssg71
g508
sg64
(lp515
S''
asbasbasbag57
(g73
g59
NtRp516
(dp517
g62
(dp518
sg71
g452
sg64
(lp519
g57
(g78
g59
NtRp520
(dp521
g62
(dp522
g82
g83
ssg71
g516
sg64
(lp523
g334
asbag57
(g78
g59
NtRp524
(dp525
g62
(dp526
g89
g90
ssg71
g516
sg64
(lp527
S':'
asbag57
(g78
g59
NtRp528
(dp529
g62
(dp530
sg71
g516
sg64
(lp531
g57
(g58
g59
NtRp532
(dp533
g62
(dp534
g70
I3
ssg71
g528
sg64
(lp535
S''
asbasbasbag57
(g73
g59
NtRp536
(dp537
g62
(dp538
sg71
g452
sg64
(lp539
g57
(g78
g59
NtRp540
(dp541
g62
(dp542
g82
g83
ssg71
g536
sg64
(lp543
g355
asbag57
(g78
g59
NtRp544
(dp545
g62
(dp546
g89
g90
ssg71
g536
sg64
(lp547
S':'
asbag57
(g78
g59
NtRp548
(dp549
g62
(dp550
sg71
g536
sg64
(lp551
g57
(g58
g59
NtRp552
(dp553
g62
(dp554
g70
I3
ssg71
g548
sg64
(lp555
S''
asbasbasbag57
(g73
g59
NtRp556
(dp557
g62
(dp558
sg71
g452
sg64
(lp559
g57
(g78
g59
NtRp560
(dp561
g62
(dp562
g82
g83
ssg71
g556
sg64
(lp563
g376
asbag57
(g78
g59
NtRp564
(dp565
g62
(dp566
g89
g90
ssg71
g556
sg64
(lp567
S':'
asbag57
(g78
g59
NtRp568
(dp569
g62
(dp570
sg71
g556
sg64
(lp571
g57
(g58
g59
NtRp572
(dp573
g62
(dp574
g70
I3
ssg71
g568
sg64
(lp575
S''
asbasbasbag57
(g73
g59
NtRp576
(dp577
g62
(dp578
sg71
g452
sg64
(lp579
g57
(g78
g59
NtRp580
(dp581
g62
(dp582
g82
g83
ssg71
g576
sg64
(lp583
g397
asbag57
(g78
g59
NtRp584
(dp585
g62
(dp586
g89
g90
ssg71
g576
sg64
(lp587
S':'
asbag57
(g78
g59
NtRp588
(dp589
g62
(dp590
sg71
g576
sg64
(lp591
g57
(g58
g59
NtRp592
(dp593
g62
(dp594
g70
I3
ssg71
g588
sg64
(lp595
S''
asbasbasbag57
(g73
g59
NtRp596
(dp597
g62
(dp598
sg71
g452
sg64
(lp599
g57
(g78
g59
NtRp600
(dp601
g62
(dp602
g82
g83
ssg71
g596
sg64
(lp603
g418
asbag57
(g78
g59
NtRp604
(dp605
g62
(dp606
g89
g90
ssg71
g596
sg64
(lp607
S':'
asbag57
(g78
g59
NtRp608
(dp609
g62
(dp610
sg71
g596
sg64
(lp611
g57
(g58
g59
NtRp612
(dp613
g62
(dp614
g70
I3
ssg71
g608
sg64
(lp615
S''
asbasbasbasbasbasbasbasbasbasbasbag57
(g73
g59
NtRp616
(dp617
g62
(dp618
sg71
g67
sg64
(lp619
g57
(g78
g59
NtRp620
(dp621
g62
(dp622
g82
g83
ssg71
g616
sg64
(lp623
S'env'
p624
asbag57
(g78
g59
NtRp625
(dp626
g62
(dp627
g89
g90
ssg71
g616
sg64
(lp628
S':'
asbag57
(g78
g59
NtRp629
(dp630
g62
(dp631
sg71
g616
sg64
(lp632
g57
(g58
g59
NtRp633
(dp634
g62
(dp635
g70
I5
ssg71
g629
sg64
(lp636
g57
(g66
g59
NtRp637
(dp638
g62
(dp639
g70
I4
ssg71
Nsg64
(lp640
g57
(g73
g59
NtRp641
(dp642
g62
(dp643
sg71
g637
sg64
(lp644
g57
(g78
g59
NtRp645
(dp646
g62
(dp647
g82
g83
ssg71
g641
sg64
(lp648
S'app_folders'
p649
asbag57
(g78
g59
NtRp650
(dp651
g62
(dp652
g89
g90
ssg71
g641
sg64
(lp653
S':'
asbag57
(g78
g59
NtRp654
(dp655
g62
(dp656
sg71
g641
sg64
(lp657
g57
(g58
g59
NtRp658
(dp659
g62
(dp660
g70
I4
ssg71
g654
sg64
(lp661
S"set(['/Users/kaiquesilva/Projects/WebApps/big-votes/web2py/applications/bigvotes/'])"
p662
asbasbasbag57
(g73
g59
NtRp663
(dp664
g62
(dp665
sg71
g637
sg64
(lp666
g57
(g78
g59
NtRp667
(dp668
g62
(dp669
g82
g83
ssg71
g663
sg64
(lp670
S'applications_parent'
p671
asbag57
(g78
g59
NtRp672
(dp673
g62
(dp674
g89
g90
ssg71
g663
sg64
(lp675
S':'
asbag57
(g78
g59
NtRp676
(dp677
g62
(dp678
sg71
g663
sg64
(lp679
g57
(g58
g59
NtRp680
(dp681
g62
(dp682
g70
I4
ssg71
g676
sg64
(lp683
S'/Users/kaiquesilva/Projects/WebApps/big-votes/web2py'
p684
asbasbasbag57
(g73
g59
NtRp685
(dp686
g62
(dp687
sg71
g637
sg64
(lp688
g57
(g78
g59
NtRp689
(dp690
g62
(dp691
g82
g83
ssg71
g685
sg64
(lp692
S'cmd_args'
p693
asbag57
(g78
g59
NtRp694
(dp695
g62
(dp696
g89
g90
ssg71
g685
sg64
(lp697
S':'
asbag57
(g78
g59
NtRp698
(dp699
g62
(dp700
sg71
g685
sg64
(lp701
g57
(g58
g59
NtRp702
(dp703
g62
(dp704
g70
I4
ssg71
g698
sg64
(lp705
g57
(g66
g59
NtRp706
(dp707
g62
(dp708
g70
I3
ssg71
Nsg64
(lp709
sbasbasbasbag57
(g73
g59
NtRp710
(dp711
g62
(dp712
sg71
g637
sg64
(lp713
g57
(g78
g59
NtRp714
(dp715
g62
(dp716
g82
g83
ssg71
g710
sg64
(lp717
S'cmd_options'
p718
asbag57
(g78
g59
NtRp719
(dp720
g62
(dp721
g89
g90
ssg71
g710
sg64
(lp722
S':'
asbag57
(g78
g59
NtRp723
(dp724
g62
(dp725
sg71
g710
sg64
(lp726
g57
(g58
g59
NtRp727
(dp728
g62
(dp729
g70
I4
ssg71
g723
sg64
(lp730
S"<Values at 0x102432c68: {'verbose': False, 'ip': '127.0.0.1', 'shutdown_timeout': 5, 'taskbar': False, 'nocron': False, 'pid_filename': 'httpserver.pid', 'maxthreads': None, 'softcron': False, 'server_name': 'iMac-de-Kaique.local', 'bpython': False, 'nogui': False, 'port': 8000, 'extcron': False, 'debuglevel': 30, 'test': None, 'folder': '/Users/kaiquesilva/Projects/WebApps/big-votes/web2py', 'config': '', 'import_models': False, 'winservice': '', 'shell': None, 'run': '', 'log_filename': 'httpserver.log', 'args': [''], 'socket_timeout': 5, 'ssl_ca_certificate': None, 'scheduler': None, 'profiler_filename': None, 'ssl_private_key': '', 'password': 'dev', 'request_queue_size': 5, 'ssl_certificate': '', 'cronjob': False, 'numthreads': None, 'quiet': False, 'interfaces': None, 'minthreads': None, 'timeout': 10, 'plain': False, 'nobanner': False}>"
p731
asbasbasbag57
(g73
g59
NtRp732
(dp733
g62
(dp734
sg71
g637
sg64
(lp735
g57
(g78
g59
NtRp736
(dp737
g62
(dp738
g82
g83
ssg71
g732
sg64
(lp739
S'db_sessions'
p740
asbag57
(g78
g59
NtRp741
(dp742
g62
(dp743
g89
g90
ssg71
g732
sg64
(lp744
S':'
asbag57
(g78
g59
NtRp745
(dp746
g62
(dp747
sg71
g732
sg64
(lp748
g57
(g58
g59
NtRp749
(dp750
g62
(dp751
g70
I4
ssg71
g745
sg64
(lp752
S'set([])'
p753
asbasbasbag57
(g73
g59
NtRp754
(dp755
g62
(dp756
sg71
g637
sg64
(lp757
g57
(g78
g59
NtRp758
(dp759
g62
(dp760
g82
g83
ssg71
g754
sg64
(lp761
S'debugging'
p762
asbag57
(g78
g59
NtRp763
(dp764
g62
(dp765
g89
g90
ssg71
g754
sg64
(lp766
S':'
asbag57
(g78
g59
NtRp767
(dp768
g62
(dp769
sg71
g754
sg64
(lp770
g57
(g58
g59
NtRp771
(dp772
g62
(dp773
g70
I4
ssg71
g767
sg64
(lp774
g100
asbasbasbag57
(g73
g59
NtRp775
(dp776
g62
(dp777
sg71
g637
sg64
(lp778
g57
(g78
g59
NtRp779
(dp780
g62
(dp781
g82
g83
ssg71
g775
sg64
(lp782
S'gluon_parent'
p783
asbag57
(g78
g59
NtRp784
(dp785
g62
(dp786
g89
g90
ssg71
g775
sg64
(lp787
S':'
asbag57
(g78
g59
NtRp788
(dp789
g62
(dp790
sg71
g775
sg64
(lp791
g57
(g58
g59
NtRp792
(dp793
g62
(dp794
g70
I4
ssg71
g788
sg64
(lp795
S'/Users/kaiquesilva/Projects/WebApps/big-votes/web2py'
p796
asbasbasbag57
(g73
g59
NtRp797
(dp798
g62
(dp799
sg71
g637
sg64
(lp800
g57
(g78
g59
NtRp801
(dp802
g62
(dp803
g82
g83
ssg71
g797
sg64
(lp804
S'http_accept'
p805
asbag57
(g78
g59
NtRp806
(dp807
g62
(dp808
g89
g90
ssg71
g797
sg64
(lp809
S':'
asbag57
(g78
g59
NtRp810
(dp811
g62
(dp812
sg71
g797
sg64
(lp813
g57
(g58
g59
NtRp814
(dp815
g62
(dp816
g70
I4
ssg71
g810
sg64
(lp817
S'text/html,application/xhtml+xml,application/xml;q=0.9,*/*;q=0.8'
p818
asbasbasbag57
(g73
g59
NtRp819
(dp820
g62
(dp821
sg71
g637
sg64
(lp822
g57
(g78
g59
NtRp823
(dp824
g62
(dp825
g82
g83
ssg71
g819
sg64
(lp826
S'http_accept_encoding'
p827
asbag57
(g78
g59
NtRp828
(dp829
g62
(dp830
g89
g90
ssg71
g819
sg64
(lp831
S':'
asbag57
(g78
g59
NtRp832
(dp833
g62
(dp834
sg71
g819
sg64
(lp835
g57
(g58
g59
NtRp836
(dp837
g62
(dp838
g70
I4
ssg71
g832
sg64
(lp839
S'gzip, deflate'
p840
asbasbasbag57
(g73
g59
NtRp841
(dp842
g62
(dp843
sg71
g637
sg64
(lp844
g57
(g78
g59
NtRp845
(dp846
g62
(dp847
g82
g83
ssg71
g841
sg64
(lp848
S'http_accept_language'
p849
asbag57
(g78
g59
NtRp850
(dp851
g62
(dp852
g89
g90
ssg71
g841
sg64
(lp853
S':'
asbag57
(g78
g59
NtRp854
(dp855
g62
(dp856
sg71
g841
sg64
(lp857
g57
(g58
g59
NtRp858
(dp859
g62
(dp860
g70
I4
ssg71
g854
sg64
(lp861
S'en-us,en;q=0.5'
p862
asbasbasbag57
(g73
g59
NtRp863
(dp864
g62
(dp865
sg71
g637
sg64
(lp866
g57
(g78
g59
NtRp867
(dp868
g62
(dp869
g82
g83
ssg71
g863
sg64
(lp870
S'http_cache_control'
p871
asbag57
(g78
g59
NtRp872
(dp873
g62
(dp874
g89
g90
ssg71
g863
sg64
(lp875
S':'
asbag57
(g78
g59
NtRp876
(dp877
g62
(dp878
sg71
g863
sg64
(lp879
g57
(g58
g59
NtRp880
(dp881
g62
(dp882
g70
I4
ssg71
g876
sg64
(lp883
S'max-age=0'
p884
asbasbasbag57
(g73
g59
NtRp885
(dp886
g62
(dp887
sg71
g637
sg64
(lp888
g57
(g78
g59
NtRp889
(dp890
g62
(dp891
g82
g83
ssg71
g885
sg64
(lp892
S'http_connection'
p893
asbag57
(g78
g59
NtRp894
(dp895
g62
(dp896
g89
g90
ssg71
g885
sg64
(lp897
S':'
asbag57
(g78
g59
NtRp898
(dp899
g62
(dp900
sg71
g885
sg64
(lp901
g57
(g58
g59
NtRp902
(dp903
g62
(dp904
g70
I4
ssg71
g898
sg64
(lp905
S'keep-alive'
p906
asbasbasbag57
(g73
g59
NtRp907
(dp908
g62
(dp909
sg71
g637
sg64
(lp910
g57
(g78
g59
NtRp911
(dp912
g62
(dp913
g82
g83
ssg71
g907
sg64
(lp914
S'http_cookie'
p915
asbag57
(g78
g59
NtRp916
(dp917
g62
(dp918
g89
g90
ssg71
g907
sg64
(lp919
S':'
asbag57
(g78
g59
NtRp920
(dp921
g62
(dp922
sg71
g907
sg64
(lp923
g57
(g58
g59
NtRp924
(dp925
g62
(dp926
g70
I4
ssg71
g920
sg64
(lp927
S'session_id_bigvotes=127.0.0.1-0c65f91e-3424-4f01-826a-fccbbef12bf1; session_id_admin=127.0.0.1-f6b247a3-0842-45e1-be58-ee62c17e5b28'
p928
asbasbasbag57
(g73
g59
NtRp929
(dp930
g62
(dp931
sg71
g637
sg64
(lp932
g57
(g78
g59
NtRp933
(dp934
g62
(dp935
g82
g83
ssg71
g929
sg64
(lp936
S'http_host'
p937
asbag57
(g78
g59
NtRp938
(dp939
g62
(dp940
g89
g90
ssg71
g929
sg64
(lp941
S':'
asbag57
(g78
g59
NtRp942
(dp943
g62
(dp944
sg71
g929
sg64
(lp945
g57
(g58
g59
NtRp946
(dp947
g62
(dp948
g70
I4
ssg71
g942
sg64
(lp949
S'localhost:8000'
p950
asbasbasbag57
(g73
g59
NtRp951
(dp952
g62
(dp953
sg71
g637
sg64
(lp954
g57
(g78
g59
NtRp955
(dp956
g62
(dp957
g82
g83
ssg71
g951
sg64
(lp958
S'http_referer'
p959
asbag57
(g78
g59
NtRp960
(dp961
g62
(dp962
g89
g90
ssg71
g951
sg64
(lp963
S':'
asbag57
(g78
g59
NtRp964
(dp965
g62
(dp966
sg71
g951
sg64
(lp967
g57
(g58
g59
NtRp968
(dp969
g62
(dp970
g70
I4
ssg71
g964
sg64
(lp971
S'http://localhost:8000/bigvotes/member/index'
p972
asbasbasbag57
(g73
g59
NtRp973
(dp974
g62
(dp975
sg71
g637
sg64
(lp976
g57
(g78
g59
NtRp977
(dp978
g62
(dp979
g82
g83
ssg71
g973
sg64
(lp980
S'http_user_agent'
p981
asbag57
(g78
g59
NtRp982
(dp983
g62
(dp984
g89
g90
ssg71
g973
sg64
(lp985
S':'
asbag57
(g78
g59
NtRp986
(dp987
g62
(dp988
sg71
g973
sg64
(lp989
g57
(g58
g59
NtRp990
(dp991
g62
(dp992
g70
I4
ssg71
g986
sg64
(lp993
S'Mozilla/5.0 (Macintosh; Intel Mac OS X 10.7; rv:12.0) Gecko/20100101 Firefox/12.0'
p994
asbasbasbag57
(g73
g59
NtRp995
(dp996
g62
(dp997
sg71
g637
sg64
(lp998
g57
(g78
g59
NtRp999
(dp1000
g62
(dp1001
g82
g83
ssg71
g995
sg64
(lp1002
S'is_jython'
p1003
asbag57
(g78
g59
NtRp1004
(dp1005
g62
(dp1006
g89
g90
ssg71
g995
sg64
(lp1007
S':'
asbag57
(g78
g59
NtRp1008
(dp1009
g62
(dp1010
sg71
g995
sg64
(lp1011
g57
(g58
g59
NtRp1012
(dp1013
g62
(dp1014
g70
I4
ssg71
g1008
sg64
(lp1015
g100
asbasbasbag57
(g73
g59
NtRp1016
(dp1017
g62
(dp1018
sg71
g637
sg64
(lp1019
g57
(g78
g59
NtRp1020
(dp1021
g62
(dp1022
g82
g83
ssg71
g1016
sg64
(lp1023
S'is_pypy'
p1024
asbag57
(g78
g59
NtRp1025
(dp1026
g62
(dp1027
g89
g90
ssg71
g1016
sg64
(lp1028
S':'
asbag57
(g78
g59
NtRp1029
(dp1030
g62
(dp1031
sg71
g1016
sg64
(lp1032
g57
(g58
g59
NtRp1033
(dp1034
g62
(dp1035
g70
I4
ssg71
g1029
sg64
(lp1036
g100
asbasbasbag57
(g73
g59
NtRp1037
(dp1038
g62
(dp1039
sg71
g637
sg64
(lp1040
g57
(g78
g59
NtRp1041
(dp1042
g62
(dp1043
g82
g83
ssg71
g1037
sg64
(lp1044
S'path_info'
p1045
asbag57
(g78
g59
NtRp1046
(dp1047
g62
(dp1048
g89
g90
ssg71
g1037
sg64
(lp1049
S':'
asbag57
(g78
g59
NtRp1050
(dp1051
g62
(dp1052
sg71
g1037
sg64
(lp1053
g57
(g58
g59
NtRp1054
(dp1055
g62
(dp1056
g70
I4
ssg71
g1050
sg64
(lp1057
S'/bigvotes/default/index'
p1058
asbasbasbag57
(g73
g59
NtRp1059
(dp1060
g62
(dp1061
sg71
g637
sg64
(lp1062
g57
(g78
g59
NtRp1063
(dp1064
g62
(dp1065
g82
g83
ssg71
g1059
sg64
(lp1066
S'query_string'
p1067
asbag57
(g78
g59
NtRp1068
(dp1069
g62
(dp1070
g89
g90
ssg71
g1059
sg64
(lp1071
S':'
asbag57
(g78
g59
NtRp1072
(dp1073
g62
(dp1074
sg71
g1059
sg64
(lp1075
g57
(g58
g59
NtRp1076
(dp1077
g62
(dp1078
g70
I4
ssg71
g1072
sg64
(lp1079
S''
asbasbasbag57
(g73
g59
NtRp1080
(dp1081
g62
(dp1082
sg71
g637
sg64
(lp1083
g57
(g78
g59
NtRp1084
(dp1085
g62
(dp1086
g82
g83
ssg71
g1080
sg64
(lp1087
S'remote_addr'
p1088
asbag57
(g78
g59
NtRp1089
(dp1090
g62
(dp1091
g89
g90
ssg71
g1080
sg64
(lp1092
S':'
asbag57
(g78
g59
NtRp1093
(dp1094
g62
(dp1095
sg71
g1080
sg64
(lp1096
g57
(g58
g59
NtRp1097
(dp1098
g62
(dp1099
g70
I4
ssg71
g1093
sg64
(lp1100
g190
asbasbasbag57
(g73
g59
NtRp1101
(dp1102
g62
(dp1103
sg71
g637
sg64
(lp1104
g57
(g78
g59
NtRp1105
(dp1106
g62
(dp1107
g82
g83
ssg71
g1101
sg64
(lp1108
S'remote_port'
p1109
asbag57
(g78
g59
NtRp1110
(dp1111
g62
(dp1112
g89
g90
ssg71
g1101
sg64
(lp1113
S':'
asbag57
(g78
g59
NtRp1114
(dp1115
g62
(dp1116
sg71
g1101
sg64
(lp1117
g57
(g58
g59
NtRp1118
(dp1119
g62
(dp1120
g70
I4
ssg71
g1114
sg64
(lp1121
S'51096'
p1122
asbasbasbag57
(g73
g59
NtRp1123
(dp1124
g62
(dp1125
sg71
g637
sg64
(lp1126
g57
(g78
g59
NtRp1127
(dp1128
g62
(dp1129
g82
g83
ssg71
g1123
sg64
(lp1130
S'request_method'
p1131
asbag57
(g78
g59
NtRp1132
(dp1133
g62
(dp1134
g89
g90
ssg71
g1123
sg64
(lp1135
S':'
asbag57
(g78
g59
NtRp1136
(dp1137
g62
(dp1138
sg71
g1123
sg64
(lp1139
g57
(g58
g59
NtRp1140
(dp1141
g62
(dp1142
g70
I4
ssg71
g1136
sg64
(lp1143
S'GET'
p1144
asbasbasbag57
(g73
g59
NtRp1145
(dp1146
g62
(dp1147
sg71
g637
sg64
(lp1148
g57
(g78
g59
NtRp1149
(dp1150
g62
(dp1151
g82
g83
ssg71
g1145
sg64
(lp1152
S'request_uri'
p1153
asbag57
(g78
g59
NtRp1154
(dp1155
g62
(dp1156
g89
g90
ssg71
g1145
sg64
(lp1157
S':'
asbag57
(g78
g59
NtRp1158
(dp1159
g62
(dp1160
sg71
g1145
sg64
(lp1161
g57
(g58
g59
NtRp1162
(dp1163
g62
(dp1164
g70
I4
ssg71
g1158
sg64
(lp1165
g1058
asbasbasbag57
(g73
g59
NtRp1166
(dp1167
g62
(dp1168
sg71
g637
sg64
(lp1169
g57
(g78
g59
NtRp1170
(dp1171
g62
(dp1172
g82
g83
ssg71
g1166
sg64
(lp1173
S'script_name'
p1174
asbag57
(g78
g59
NtRp1175
(dp1176
g62
(dp1177
g89
g90
ssg71
g1166
sg64
(lp1178
S':'
asbag57
(g78
g59
NtRp1179
(dp1180
g62
(dp1181
sg71
g1166
sg64
(lp1182
g57
(g58
g59
NtRp1183
(dp1184
g62
(dp1185
g70
I4
ssg71
g1179
sg64
(lp1186
S''
asbasbasbag57
(g73
g59
NtRp1187
(dp1188
g62
(dp1189
sg71
g637
sg64
(lp1190
g57
(g78
g59
NtRp1191
(dp1192
g62
(dp1193
g82
g83
ssg71
g1187
sg64
(lp1194
S'server_name'
p1195
asbag57
(g78
g59
NtRp1196
(dp1197
g62
(dp1198
g89
g90
ssg71
g1187
sg64
(lp1199
S':'
asbag57
(g78
g59
NtRp1200
(dp1201
g62
(dp1202
sg71
g1187
sg64
(lp1203
g57
(g58
g59
NtRp1204
(dp1205
g62
(dp1206
g70
I4
ssg71
g1200
sg64
(lp1207
S'iMac-de-Kaique.local'
p1208
asbasbasbag57
(g73
g59
NtRp1209
(dp1210
g62
(dp1211
sg71
g637
sg64
(lp1212
g57
(g78
g59
NtRp1213
(dp1214
g62
(dp1215
g82
g83
ssg71
g1209
sg64
(lp1216
S'server_port'
p1217
asbag57
(g78
g59
NtRp1218
(dp1219
g62
(dp1220
g89
g90
ssg71
g1209
sg64
(lp1221
S':'
asbag57
(g78
g59
NtRp1222
(dp1223
g62
(dp1224
sg71
g1209
sg64
(lp1225
g57
(g58
g59
NtRp1226
(dp1227
g62
(dp1228
g70
I4
ssg71
g1222
sg64
(lp1229
S'8000'
p1230
asbasbasbag57
(g73
g59
NtRp1231
(dp1232
g62
(dp1233
sg71
g637
sg64
(lp1234
g57
(g78
g59
NtRp1235
(dp1236
g62
(dp1237
g82
g83
ssg71
g1231
sg64
(lp1238
S'server_protocol'
p1239
asbag57
(g78
g59
NtRp1240
(dp1241
g62
(dp1242
g89
g90
ssg71
g1231
sg64
(lp1243
S':'
asbag57
(g78
g59
NtRp1244
(dp1245
g62
(dp1246
sg71
g1231
sg64
(lp1247
g57
(g58
g59
NtRp1248
(dp1249
g62
(dp1250
g70
I4
ssg71
g1244
sg64
(lp1251
S'HTTP/1.1'
p1252
asbasbasbag57
(g73
g59
NtRp1253
(dp1254
g62
(dp1255
sg71
g637
sg64
(lp1256
g57
(g78
g59
NtRp1257
(dp1258
g62
(dp1259
g82
g83
ssg71
g1253
sg64
(lp1260
S'server_software'
p1261
asbag57
(g78
g59
NtRp1262
(dp1263
g62
(dp1264
g89
g90
ssg71
g1253
sg64
(lp1265
S':'
asbag57
(g78
g59
NtRp1266
(dp1267
g62
(dp1268
sg71
g1253
sg64
(lp1269
g57
(g58
g59
NtRp1270
(dp1271
g62
(dp1272
g70
I4
ssg71
g1266
sg64
(lp1273
S'Rocket 1.2.4'
p1274
asbasbasbag57
(g73
g59
NtRp1275
(dp1276
g62
(dp1277
sg71
g637
sg64
(lp1278
g57
(g78
g59
NtRp1279
(dp1280
g62
(dp1281
g82
g83
ssg71
g1275
sg64
(lp1282
S'web2py_crontype'
p1283
asbag57
(g78
g59
NtRp1284
(dp1285
g62
(dp1286
g89
g90
ssg71
g1275
sg64
(lp1287
S':'
asbag57
(g78
g59
NtRp1288
(dp1289
g62
(dp1290
sg71
g1275
sg64
(lp1291
g57
(g58
g59
NtRp1292
(dp1293
g62
(dp1294
g70
I4
ssg71
g1288
sg64
(lp1295
S'hard'
p1296
asbasbasbag57
(g73
g59
NtRp1297
(dp1298
g62
(dp1299
sg71
g637
sg64
(lp1300
g57
(g78
g59
NtRp1301
(dp1302
g62
(dp1303
g82
g83
ssg71
g1297
sg64
(lp1304
S'web2py_original_uri'
p1305
asbag57
(g78
g59
NtRp1306
(dp1307
g62
(dp1308
g89
g90
ssg71
g1297
sg64
(lp1309
S':'
asbag57
(g78
g59
NtRp1310
(dp1311
g62
(dp1312
sg71
g1297
sg64
(lp1313
g57
(g58
g59
NtRp1314
(dp1315
g62
(dp1316
g70
I4
ssg71
g1310
sg64
(lp1317
g1058
asbasbasbag57
(g73
g59
NtRp1318
(dp1319
g62
(dp1320
sg71
g637
sg64
(lp1321
g57
(g78
g59
NtRp1322
(dp1323
g62
(dp1324
g82
g83
ssg71
g1318
sg64
(lp1325
S'web2py_path'
p1326
asbag57
(g78
g59
NtRp1327
(dp1328
g62
(dp1329
g89
g90
ssg71
g1318
sg64
(lp1330
S':'
asbag57
(g78
g59
NtRp1331
(dp1332
g62
(dp1333
sg71
g1318
sg64
(lp1334
g57
(g58
g59
NtRp1335
(dp1336
g62
(dp1337
g70
I4
ssg71
g1331
sg64
(lp1338
g684
asbasbasbag57
(g73
g59
NtRp1339
(dp1340
g62
(dp1341
sg71
g637
sg64
(lp1342
g57
(g78
g59
NtRp1343
(dp1344
g62
(dp1345
g82
g83
ssg71
g1339
sg64
(lp1346
S'web2py_version'
p1347
asbag57
(g78
g59
NtRp1348
(dp1349
g62
(dp1350
g89
g90
ssg71
g1339
sg64
(lp1351
S':'
asbag57
(g78
g59
NtRp1352
(dp1353
g62
(dp1354
sg71
g1339
sg64
(lp1355
g57
(g58
g59
NtRp1356
(dp1357
g62
(dp1358
g70
I4
ssg71
g1352
sg64
(lp1359
g57
(g66
g59
NtRp1360
(dp1361
g62
(dp1362
g70
I3
ssg71
Nsg64
(lp1363
g57
(g73
g59
NtRp1364
(dp1365
g62
(dp1366
sg71
g1360
sg64
(lp1367
g57
(g78
g59
NtRp1368
(dp1369
g62
(dp1370
sg71
g1364
sg64
(lp1371
g57
(g58
g59
NtRp1372
(dp1373
g62
(dp1374
g70
I3
ssg71
g1368
sg64
(lp1375
S'1'
asbasbasbag57
(g73
g59
NtRp1376
(dp1377
g62
(dp1378
sg71
g1360
sg64
(lp1379
g57
(g78
g59
NtRp1380
(dp1381
g62
(dp1382
sg71
g1376
sg64
(lp1383
g57
(g58
g59
NtRp1384
(dp1385
g62
(dp1386
g70
I3
ssg71
g1380
sg64
(lp1387
S'99'
p1388
asbasbasbag57
(g73
g59
NtRp1389
(dp1390
g62
(dp1391
sg71
g1360
sg64
(lp1392
g57
(g78
g59
NtRp1393
(dp1394
g62
(dp1395
sg71
g1389
sg64
(lp1396
g57
(g58
g59
NtRp1397
(dp1398
g62
(dp1399
g70
I3
ssg71
g1393
sg64
(lp1400
S'7'
asbasbasbag57
(g73
g59
NtRp1401
(dp1402
g62
(dp1403
sg71
g1360
sg64
(lp1404
g57
(g78
g59
NtRp1405
(dp1406
g62
(dp1407
sg71
g1401
sg64
(lp1408
g57
(g58
g59
NtRp1409
(dp1410
g62
(dp1411
g70
I3
ssg71
g1405
sg64
(lp1412
S'datetime.datetime(2012, 3, 4, 22, 12, 8)'
p1413
asbasbasbag57
(g73
g59
NtRp1414
(dp1415
g62
(dp1416
sg71
g1360
sg64
(lp1417
g57
(g78
g59
NtRp1418
(dp1419
g62
(dp1420
sg71
g1414
sg64
(lp1421
g57
(g58
g59
NtRp1422
(dp1423
g62
(dp1424
g70
I3
ssg71
g1418
sg64
(lp1425
S'stable'
p1426
asbasbasbasbasbasbasbag57
(g73
g59
NtRp1427
(dp1428
g62
(dp1429
sg71
g637
sg64
(lp1430
g57
(g78
g59
NtRp1431
(dp1432
g62
(dp1433
g82
g83
ssg71
g1427
sg64
(lp1434
S'wsgi_errors'
p1435
asbag57
(g78
g59
NtRp1436
(dp1437
g62
(dp1438
g89
g90
ssg71
g1427
sg64
(lp1439
S':'
asbag57
(g78
g59
NtRp1440
(dp1441
g62
(dp1442
sg71
g1427
sg64
(lp1443
g57
(g58
g59
NtRp1444
(dp1445
g62
(dp1446
g70
I4
ssg71
g1440
sg64
(lp1447
S"<open file '<stderr>', mode 'w' at 0x10199a270>"
p1448
asbasbasbag57
(g73
g59
NtRp1449
(dp1450
g62
(dp1451
sg71
g637
sg64
(lp1452
g57
(g78
g59
NtRp1453
(dp1454
g62
(dp1455
g82
g83
ssg71
g1449
sg64
(lp1456
S'wsgi_file_wrapper'
p1457
asbag57
(g78
g59
NtRp1458
(dp1459
g62
(dp1460
g89
g90
ssg71
g1449
sg64
(lp1461
S':'
asbag57
(g78
g59
NtRp1462
(dp1463
g62
(dp1464
sg71
g1449
sg64
(lp1465
g57
(g58
g59
NtRp1466
(dp1467
g62
(dp1468
g70
I4
ssg71
g1462
sg64
(lp1469
S'<class wsgiref.util.FileWrapper at 0x1023493f8>'
p1470
asbasbasbag57
(g73
g59
NtRp1471
(dp1472
g62
(dp1473
sg71
g637
sg64
(lp1474
g57
(g78
g59
NtRp1475
(dp1476
g62
(dp1477
g82
g83
ssg71
g1471
sg64
(lp1478
S'wsgi_input'
p1479
asbag57
(g78
g59
NtRp1480
(dp1481
g62
(dp1482
g89
g90
ssg71
g1471
sg64
(lp1483
S':'
asbag57
(g78
g59
NtRp1484
(dp1485
g62
(dp1486
sg71
g1471
sg64
(lp1487
g57
(g58
g59
NtRp1488
(dp1489
g62
(dp1490
g70
I4
ssg71
g1484
sg64
(lp1491
S'<socket._fileobject object at 0x101aad4d0>'
p1492
asbasbasbag57
(g73
g59
NtRp1493
(dp1494
g62
(dp1495
sg71
g637
sg64
(lp1496
g57
(g78
g59
NtRp1497
(dp1498
g62
(dp1499
g82
g83
ssg71
g1493
sg64
(lp1500
S'wsgi_multiprocess'
p1501
asbag57
(g78
g59
NtRp1502
(dp1503
g62
(dp1504
g89
g90
ssg71
g1493
sg64
(lp1505
S':'
asbag57
(g78
g59
NtRp1506
(dp1507
g62
(dp1508
sg71
g1493
sg64
(lp1509
g57
(g58
g59
NtRp1510
(dp1511
g62
(dp1512
g70
I4
ssg71
g1506
sg64
(lp1513
g100
asbasbasbag57
(g73
g59
NtRp1514
(dp1515
g62
(dp1516
sg71
g637
sg64
(lp1517
g57
(g78
g59
NtRp1518
(dp1519
g62
(dp1520
g82
g83
ssg71
g1514
sg64
(lp1521
S'wsgi_multithread'
p1522
asbag57
(g78
g59
NtRp1523
(dp1524
g62
(dp1525
g89
g90
ssg71
g1514
sg64
(lp1526
S':'
asbag57
(g78
g59
NtRp1527
(dp1528
g62
(dp1529
sg71
g1514
sg64
(lp1530
g57
(g58
g59
NtRp1531
(dp1532
g62
(dp1533
g70
I4
ssg71
g1527
sg64
(lp1534
S'True'
p1535
asbasbasbag57
(g73
g59
NtRp1536
(dp1537
g62
(dp1538
sg71
g637
sg64
(lp1539
g57
(g78
g59
NtRp1540
(dp1541
g62
(dp1542
g82
g83
ssg71
g1536
sg64
(lp1543
S'wsgi_run_once'
p1544
asbag57
(g78
g59
NtRp1545
(dp1546
g62
(dp1547
g89
g90
ssg71
g1536
sg64
(lp1548
S':'
asbag57
(g78
g59
NtRp1549
(dp1550
g62
(dp1551
sg71
g1536
sg64
(lp1552
g57
(g58
g59
NtRp1553
(dp1554
g62
(dp1555
g70
I4
ssg71
g1549
sg64
(lp1556
g100
asbasbasbag57
(g73
g59
NtRp1557
(dp1558
g62
(dp1559
sg71
g637
sg64
(lp1560
g57
(g78
g59
NtRp1561
(dp1562
g62
(dp1563
g82
g83
ssg71
g1557
sg64
(lp1564
S'wsgi_url_scheme'
p1565
asbag57
(g78
g59
NtRp1566
(dp1567
g62
(dp1568
g89
g90
ssg71
g1557
sg64
(lp1569
S':'
asbag57
(g78
g59
NtRp1570
(dp1571
g62
(dp1572
sg71
g1557
sg64
(lp1573
g57
(g58
g59
NtRp1574
(dp1575
g62
(dp1576
g70
I4
ssg71
g1570
sg64
(lp1577
S'http'
p1578
asbasbasbag57
(g73
g59
NtRp1579
(dp1580
g62
(dp1581
sg71
g637
sg64
(lp1582
g57
(g78
g59
NtRp1583
(dp1584
g62
(dp1585
g82
g83
ssg71
g1579
sg64
(lp1586
S'wsgi_version'
p1587
asbag57
(g78
g59
NtRp1588
(dp1589
g62
(dp1590
g89
g90
ssg71
g1579
sg64
(lp1591
S':'
asbag57
(g78
g59
NtRp1592
(dp1593
g62
(dp1594
sg71
g1579
sg64
(lp1595
g57
(g58
g59
NtRp1596
(dp1597
g62
(dp1598
g70
I4
ssg71
g1592
sg64
(lp1599
g57
(g66
g59
NtRp1600
(dp1601
g62
(dp1602
g70
I3
ssg71
Nsg64
(lp1603
g57
(g73
g59
NtRp1604
(dp1605
g62
(dp1606
sg71
g1600
sg64
(lp1607
g57
(g78
g59
NtRp1608
(dp1609
g62
(dp1610
sg71
g1604
sg64
(lp1611
g57
(g58
g59
NtRp1612
(dp1613
g62
(dp1614
g70
I3
ssg71
g1608
sg64
(lp1615
S'1'
asbasbasbag57
(g73
g59
NtRp1616
(dp1617
g62
(dp1618
sg71
g1600
sg64
(lp1619
g57
(g78
g59
NtRp1620
(dp1621
g62
(dp1622
sg71
g1616
sg64
(lp1623
g57
(g58
g59
NtRp1624
(dp1625
g62
(dp1626
g70
I3
ssg71
g1620
sg64
(lp1627
S'0'
asbasbasbasbasbasbasbasbasbasbasbag57
(g73
g59
NtRp1628
(dp1629
g62
(dp1630
sg71
g67
sg64
(lp1631
g57
(g78
g59
NtRp1632
(dp1633
g62
(dp1634
g82
g83
ssg71
g1628
sg64
(lp1635
S'extension'
p1636
asbag57
(g78
g59
NtRp1637
(dp1638
g62
(dp1639
g89
g90
ssg71
g1628
sg64
(lp1640
S':'
asbag57
(g78
g59
NtRp1641
(dp1642
g62
(dp1643
sg71
g1628
sg64
(lp1644
g57
(g58
g59
NtRp1645
(dp1646
g62
(dp1647
g70
I5
ssg71
g1641
sg64
(lp1648
S'html'
p1649
asbasbasbag57
(g73
g59
NtRp1650
(dp1651
g62
(dp1652
sg71
g67
sg64
(lp1653
g57
(g78
g59
NtRp1654
(dp1655
g62
(dp1656
g82
g83
ssg71
g1650
sg64
(lp1657
S'folder'
p1658
asbag57
(g78
g59
NtRp1659
(dp1660
g62
(dp1661
g89
g90
ssg71
g1650
sg64
(lp1662
S':'
asbag57
(g78
g59
NtRp1663
(dp1664
g62
(dp1665
sg71
g1650
sg64
(lp1666
g57
(g58
g59
NtRp1667
(dp1668
g62
(dp1669
g70
I5
ssg71
g1663
sg64
(lp1670
S'/Users/kaiquesilva/Projects/WebApps/big-votes/web2py/applications/bigvotes/'
p1671
asbasbasbag57
(g73
g59
NtRp1672
(dp1673
g62
(dp1674
sg71
g67
sg64
(lp1675
g57
(g78
g59
NtRp1676
(dp1677
g62
(dp1678
g82
g83
ssg71
g1672
sg64
(lp1679
S'function'
p1680
asbag57
(g78
g59
NtRp1681
(dp1682
g62
(dp1683
g89
g90
ssg71
g1672
sg64
(lp1684
S':'
asbag57
(g78
g59
NtRp1685
(dp1686
g62
(dp1687
sg71
g1672
sg64
(lp1688
g57
(g58
g59
NtRp1689
(dp1690
g62
(dp1691
g70
I5
ssg71
g1685
sg64
(lp1692
S'index'
p1693
asbasbasbag57
(g73
g59
NtRp1694
(dp1695
g62
(dp1696
sg71
g67
sg64
(lp1697
g57
(g78
g59
NtRp1698
(dp1699
g62
(dp1700
g82
g83
ssg71
g1694
sg64
(lp1701
S'get_vars'
p1702
asbag57
(g78
g59
NtRp1703
(dp1704
g62
(dp1705
g89
g90
ssg71
g1694
sg64
(lp1706
S':'
asbag57
(g78
g59
NtRp1707
(dp1708
g62
(dp1709
sg71
g1694
sg64
(lp1710
g57
(g58
g59
NtRp1711
(dp1712
g62
(dp1713
g70
I5
ssg71
g1707
sg64
(lp1714
g57
(g66
g59
NtRp1715
(dp1716
g62
(dp1717
g70
I4
ssg71
Nsg64
(lp1718
sbasbasbasbag57
(g73
g59
NtRp1719
(dp1720
g62
(dp1721
sg71
g67
sg64
(lp1722
g57
(g78
g59
NtRp1723
(dp1724
g62
(dp1725
g82
g83
ssg71
g1719
sg64
(lp1726
S'global_settings'
p1727
asbag57
(g78
g59
NtRp1728
(dp1729
g62
(dp1730
g89
g90
ssg71
g1719
sg64
(lp1731
S':'
asbag57
(g78
g59
NtRp1732
(dp1733
g62
(dp1734
sg71
g1719
sg64
(lp1735
g57
(g58
g59
NtRp1736
(dp1737
g62
(dp1738
g70
I5
ssg71
g1732
sg64
(lp1739
g57
(g66
g59
NtRp1740
(dp1741
g62
(dp1742
g70
I4
ssg71
Nsg64
(lp1743
g57
(g73
g59
NtRp1744
(dp1745
g62
(dp1746
sg71
g1740
sg64
(lp1747
g57
(g78
g59
NtRp1748
(dp1749
g62
(dp1750
g82
g83
ssg71
g1744
sg64
(lp1751
g649
asbag57
(g78
g59
NtRp1752
(dp1753
g62
(dp1754
g89
g90
ssg71
g1744
sg64
(lp1755
S':'
asbag57
(g78
g59
NtRp1756
(dp1757
g62
(dp1758
sg71
g1744
sg64
(lp1759
g57
(g58
g59
NtRp1760
(dp1761
g62
(dp1762
g70
I4
ssg71
g1756
sg64
(lp1763
S"set(['/Users/kaiquesilva/Projects/WebApps/big-votes/web2py/applications/bigvotes/'])"
p1764
asbasbasbag57
(g73
g59
NtRp1765
(dp1766
g62
(dp1767
sg71
g1740
sg64
(lp1768
g57
(g78
g59
NtRp1769
(dp1770
g62
(dp1771
g82
g83
ssg71
g1765
sg64
(lp1772
g671
asbag57
(g78
g59
NtRp1773
(dp1774
g62
(dp1775
g89
g90
ssg71
g1765
sg64
(lp1776
S':'
asbag57
(g78
g59
NtRp1777
(dp1778
g62
(dp1779
sg71
g1765
sg64
(lp1780
g57
(g58
g59
NtRp1781
(dp1782
g62
(dp1783
g70
I4
ssg71
g1777
sg64
(lp1784
g684
asbasbasbag57
(g73
g59
NtRp1785
(dp1786
g62
(dp1787
sg71
g1740
sg64
(lp1788
g57
(g78
g59
NtRp1789
(dp1790
g62
(dp1791
g82
g83
ssg71
g1785
sg64
(lp1792
g693
asbag57
(g78
g59
NtRp1793
(dp1794
g62
(dp1795
g89
g90
ssg71
g1785
sg64
(lp1796
S':'
asbag57
(g78
g59
NtRp1797
(dp1798
g62
(dp1799
sg71
g1785
sg64
(lp1800
g57
(g58
g59
NtRp1801
(dp1802
g62
(dp1803
g70
I4
ssg71
g1797
sg64
(lp1804
g57
(g66
g59
NtRp1805
(dp1806
g62
(dp1807
g70
I3
ssg71
Nsg64
(lp1808
sbasbasbasbag57
(g73
g59
NtRp1809
(dp1810
g62
(dp1811
sg71
g1740
sg64
(lp1812
g57
(g78
g59
NtRp1813
(dp1814
g62
(dp1815
g82
g83
ssg71
g1809
sg64
(lp1816
g718
asbag57
(g78
g59
NtRp1817
(dp1818
g62
(dp1819
g89
g90
ssg71
g1809
sg64
(lp1820
S':'
asbag57
(g78
g59
NtRp1821
(dp1822
g62
(dp1823
sg71
g1809
sg64
(lp1824
g57
(g58
g59
NtRp1825
(dp1826
g62
(dp1827
g70
I4
ssg71
g1821
sg64
(lp1828
S"<Values at 0x102432c68: {'verbose': False, 'ip': '127.0.0.1', 'shutdown_timeout': 5, 'taskbar': False, 'nocron': False, 'pid_filename': 'httpserver.pid', 'maxthreads': None, 'softcron': False, 'server_name': 'iMac-de-Kaique.local', 'bpython': False, 'nogui': False, 'port': 8000, 'extcron': False, 'debuglevel': 30, 'test': None, 'folder': '/Users/kaiquesilva/Projects/WebApps/big-votes/web2py', 'config': '', 'import_models': False, 'winservice': '', 'shell': None, 'run': '', 'log_filename': 'httpserver.log', 'args': [''], 'socket_timeout': 5, 'ssl_ca_certificate': None, 'scheduler': None, 'profiler_filename': None, 'ssl_private_key': '', 'password': 'dev', 'request_queue_size': 5, 'ssl_certificate': '', 'cronjob': False, 'numthreads': None, 'quiet': False, 'interfaces': None, 'minthreads': None, 'timeout': 10, 'plain': False, 'nobanner': False}>"
p1829
asbasbasbag57
(g73
g59
NtRp1830
(dp1831
g62
(dp1832
sg71
g1740
sg64
(lp1833
g57
(g78
g59
NtRp1834
(dp1835
g62
(dp1836
g82
g83
ssg71
g1830
sg64
(lp1837
g740
asbag57
(g78
g59
NtRp1838
(dp1839
g62
(dp1840
g89
g90
ssg71
g1830
sg64
(lp1841
S':'
asbag57
(g78
g59
NtRp1842
(dp1843
g62
(dp1844
sg71
g1830
sg64
(lp1845
g57
(g58
g59
NtRp1846
(dp1847
g62
(dp1848
g70
I4
ssg71
g1842
sg64
(lp1849
S'set([])'
p1850
asbasbasbag57
(g73
g59
NtRp1851
(dp1852
g62
(dp1853
sg71
g1740
sg64
(lp1854
g57
(g78
g59
NtRp1855
(dp1856
g62
(dp1857
g82
g83
ssg71
g1851
sg64
(lp1858
g762
asbag57
(g78
g59
NtRp1859
(dp1860
g62
(dp1861
g89
g90
ssg71
g1851
sg64
(lp1862
S':'
asbag57
(g78
g59
NtRp1863
(dp1864
g62
(dp1865
sg71
g1851
sg64
(lp1866
g57
(g58
g59
NtRp1867
(dp1868
g62
(dp1869
g70
I4
ssg71
g1863
sg64
(lp1870
g100
asbasbasbag57
(g73
g59
NtRp1871
(dp1872
g62
(dp1873
sg71
g1740
sg64
(lp1874
g57
(g78
g59
NtRp1875
(dp1876
g62
(dp1877
g82
g83
ssg71
g1871
sg64
(lp1878
g783
asbag57
(g78
g59
NtRp1879
(dp1880
g62
(dp1881
g89
g90
ssg71
g1871
sg64
(lp1882
S':'
asbag57
(g78
g59
NtRp1883
(dp1884
g62
(dp1885
sg71
g1871
sg64
(lp1886
g57
(g58
g59
NtRp1887
(dp1888
g62
(dp1889
g70
I4
ssg71
g1883
sg64
(lp1890
g796
asbasbasbag57
(g73
g59
NtRp1891
(dp1892
g62
(dp1893
sg71
g1740
sg64
(lp1894
g57
(g78
g59
NtRp1895
(dp1896
g62
(dp1897
g82
g83
ssg71
g1891
sg64
(lp1898
g1003
asbag57
(g78
g59
NtRp1899
(dp1900
g62
(dp1901
g89
g90
ssg71
g1891
sg64
(lp1902
S':'
asbag57
(g78
g59
NtRp1903
(dp1904
g62
(dp1905
sg71
g1891
sg64
(lp1906
g57
(g58
g59
NtRp1907
(dp1908
g62
(dp1909
g70
I4
ssg71
g1903
sg64
(lp1910
g100
asbasbasbag57
(g73
g59
NtRp1911
(dp1912
g62
(dp1913
sg71
g1740
sg64
(lp1914
g57
(g78
g59
NtRp1915
(dp1916
g62
(dp1917
g82
g83
ssg71
g1911
sg64
(lp1918
g1024
asbag57
(g78
g59
NtRp1919
(dp1920
g62
(dp1921
g89
g90
ssg71
g1911
sg64
(lp1922
S':'
asbag57
(g78
g59
NtRp1923
(dp1924
g62
(dp1925
sg71
g1911
sg64
(lp1926
g57
(g58
g59
NtRp1927
(dp1928
g62
(dp1929
g70
I4
ssg71
g1923
sg64
(lp1930
g100
asbasbasbag57
(g73
g59
NtRp1931
(dp1932
g62
(dp1933
sg71
g1740
sg64
(lp1934
g57
(g78
g59
NtRp1935
(dp1936
g62
(dp1937
g82
g83
ssg71
g1931
sg64
(lp1938
g1283
asbag57
(g78
g59
NtRp1939
(dp1940
g62
(dp1941
g89
g90
ssg71
g1931
sg64
(lp1942
S':'
asbag57
(g78
g59
NtRp1943
(dp1944
g62
(dp1945
sg71
g1931
sg64
(lp1946
g57
(g58
g59
NtRp1947
(dp1948
g62
(dp1949
g70
I4
ssg71
g1943
sg64
(lp1950
g1296
asbasbasbag57
(g73
g59
NtRp1951
(dp1952
g62
(dp1953
sg71
g1740
sg64
(lp1954
g57
(g78
g59
NtRp1955
(dp1956
g62
(dp1957
g82
g83
ssg71
g1951
sg64
(lp1958
g1347
asbag57
(g78
g59
NtRp1959
(dp1960
g62
(dp1961
g89
g90
ssg71
g1951
sg64
(lp1962
S':'
asbag57
(g78
g59
NtRp1963
(dp1964
g62
(dp1965
sg71
g1951
sg64
(lp1966
g57
(g58
g59
NtRp1967
(dp1968
g62
(dp1969
g70
I4
ssg71
g1963
sg64
(lp1970
g57
(g66
g59
NtRp1971
(dp1972
g62
(dp1973
g70
I3
ssg71
Nsg64
(lp1974
g57
(g73
g59
NtRp1975
(dp1976
g62
(dp1977
sg71
g1971
sg64
(lp1978
g57
(g78
g59
NtRp1979
(dp1980
g62
(dp1981
sg71
g1975
sg64
(lp1982
g57
(g58
g59
NtRp1983
(dp1984
g62
(dp1985
g70
I3
ssg71
g1979
sg64
(lp1986
S'1'
asbasbasbag57
(g73
g59
NtRp1987
(dp1988
g62
(dp1989
sg71
g1971
sg64
(lp1990
g57
(g78
g59
NtRp1991
(dp1992
g62
(dp1993
sg71
g1987
sg64
(lp1994
g57
(g58
g59
NtRp1995
(dp1996
g62
(dp1997
g70
I3
ssg71
g1991
sg64
(lp1998
S'99'
p1999
asbasbasbag57
(g73
g59
NtRp2000
(dp2001
g62
(dp2002
sg71
g1971
sg64
(lp2003
g57
(g78
g59
NtRp2004
(dp2005
g62
(dp2006
sg71
g2000
sg64
(lp2007
g57
(g58
g59
NtRp2008
(dp2009
g62
(dp2010
g70
I3
ssg71
g2004
sg64
(lp2011
S'7'
asbasbasbag57
(g73
g59
NtRp2012
(dp2013
g62
(dp2014
sg71
g1971
sg64
(lp2015
g57
(g78
g59
NtRp2016
(dp2017
g62
(dp2018
sg71
g2012
sg64
(lp2019
g57
(g58
g59
NtRp2020
(dp2021
g62
(dp2022
g70
I3
ssg71
g2016
sg64
(lp2023
S'datetime.datetime(2012, 3, 4, 22, 12, 8)'
p2024
asbasbasbag57
(g73
g59
NtRp2025
(dp2026
g62
(dp2027
sg71
g1971
sg64
(lp2028
g57
(g78
g59
NtRp2029
(dp2030
g62
(dp2031
sg71
g2025
sg64
(lp2032
g57
(g58
g59
NtRp2033
(dp2034
g62
(dp2035
g70
I3
ssg71
g2029
sg64
(lp2036
g1426
asbasbasbasbasbasbasbasbasbasbasbag57
(g73
g59
NtRp2037
(dp2038
g62
(dp2039
sg71
g67
sg64
(lp2040
g57
(g78
g59
NtRp2041
(dp2042
g62
(dp2043
g82
g83
ssg71
g2037
sg64
(lp2044
S'is_https'
p2045
asbag57
(g78
g59
NtRp2046
(dp2047
g62
(dp2048
g89
g90
ssg71
g2037
sg64
(lp2049
S':'
asbag57
(g78
g59
NtRp2050
(dp2051
g62
(dp2052
sg71
g2037
sg64
(lp2053
g57
(g58
g59
NtRp2054
(dp2055
g62
(dp2056
g70
I5
ssg71
g2050
sg64
(lp2057
g100
asbasbasbag57
(g73
g59
NtRp2058
(dp2059
g62
(dp2060
sg71
g67
sg64
(lp2061
g57
(g78
g59
NtRp2062
(dp2063
g62
(dp2064
g82
g83
ssg71
g2058
sg64
(lp2065
S'is_local'
p2066
asbag57
(g78
g59
NtRp2067
(dp2068
g62
(dp2069
g89
g90
ssg71
g2058
sg64
(lp2070
S':'
asbag57
(g78
g59
NtRp2071
(dp2072
g62
(dp2073
sg71
g2058
sg64
(lp2074
g57
(g58
g59
NtRp2075
(dp2076
g62
(dp2077
g70
I5
ssg71
g2071
sg64
(lp2078
g1535
asbasbasbag57
(g73
g59
NtRp2079
(dp2080
g62
(dp2081
sg71
g67
sg64
(lp2082
g57
(g78
g59
NtRp2083
(dp2084
g62
(dp2085
g82
g83
ssg71
g2079
sg64
(lp2086
S'is_restful'
p2087
asbag57
(g78
g59
NtRp2088
(dp2089
g62
(dp2090
g89
g90
ssg71
g2079
sg64
(lp2091
S':'
asbag57
(g78
g59
NtRp2092
(dp2093
g62
(dp2094
sg71
g2079
sg64
(lp2095
g57
(g58
g59
NtRp2096
(dp2097
g62
(dp2098
g70
I5
ssg71
g2092
sg64
(lp2099
g100
asbasbasbag57
(g73
g59
NtRp2100
(dp2101
g62
(dp2102
sg71
g67
sg64
(lp2103
g57
(g78
g59
NtRp2104
(dp2105
g62
(dp2106
g82
g83
ssg71
g2100
sg64
(lp2107
S'now'
p2108
asbag57
(g78
g59
NtRp2109
(dp2110
g62
(dp2111
g89
g90
ssg71
g2100
sg64
(lp2112
S':'
asbag57
(g78
g59
NtRp2113
(dp2114
g62
(dp2115
sg71
g2100
sg64
(lp2116
g57
(g58
g59
NtRp2117
(dp2118
g62
(dp2119
g70
I5
ssg71
g2113
sg64
(lp2120
S'datetime.datetime(2012, 5, 21, 16, 27, 15, 477080)'
p2121
asbasbasbag57
(g73
g59
NtRp2122
(dp2123
g62
(dp2124
sg71
g67
sg64
(lp2125
g57
(g78
g59
NtRp2126
(dp2127
g62
(dp2128
g82
g83
ssg71
g2122
sg64
(lp2129
S'post_vars'
p2130
asbag57
(g78
g59
NtRp2131
(dp2132
g62
(dp2133
g89
g90
ssg71
g2122
sg64
(lp2134
S':'
asbag57
(g78
g59
NtRp2135
(dp2136
g62
(dp2137
sg71
g2122
sg64
(lp2138
g57
(g58
g59
NtRp2139
(dp2140
g62
(dp2141
g70
I5
ssg71
g2135
sg64
(lp2142
g57
(g66
g59
NtRp2143
(dp2144
g62
(dp2145
g70
I4
ssg71
Nsg64
(lp2146
sbasbasbasbag57
(g73
g59
NtRp2147
(dp2148
g62
(dp2149
sg71
g67
sg64
(lp2150
g57
(g78
g59
NtRp2151
(dp2152
g62
(dp2153
g82
g83
ssg71
g2147
sg64
(lp2154
S'url'
p2155
asbag57
(g78
g59
NtRp2156
(dp2157
g62
(dp2158
g89
g90
ssg71
g2147
sg64
(lp2159
S':'
asbag57
(g78
g59
NtRp2160
(dp2161
g62
(dp2162
sg71
g2147
sg64
(lp2163
g57
(g58
g59
NtRp2164
(dp2165
g62
(dp2166
g70
I5
ssg71
g2160
sg64
(lp2167
S'/bigvotes/default/index'
p2168
asbasbasbag57
(g73
g59
NtRp2169
(dp2170
g62
(dp2171
sg71
g67
sg64
(lp2172
g57
(g78
g59
NtRp2173
(dp2174
g62
(dp2175
g82
g83
ssg71
g2169
sg64
(lp2176
S'utcnow'
p2177
asbag57
(g78
g59
NtRp2178
(dp2179
g62
(dp2180
g89
g90
ssg71
g2169
sg64
(lp2181
S':'
asbag57
(g78
g59
NtRp2182
(dp2183
g62
(dp2184
sg71
g2169
sg64
(lp2185
g57
(g58
g59
NtRp2186
(dp2187
g62
(dp2188
g70
I5
ssg71
g2182
sg64
(lp2189
S'datetime.datetime(2012, 5, 21, 19, 27, 15, 477088)'
p2190
asbasbasbag57
(g73
g59
NtRp2191
(dp2192
g62
(dp2193
sg71
g67
sg64
(lp2194
g57
(g78
g59
NtRp2195
(dp2196
g62
(dp2197
g82
g83
ssg71
g2191
sg64
(lp2198
S'uuid'
p2199
asbag57
(g78
g59
NtRp2200
(dp2201
g62
(dp2202
g89
g90
ssg71
g2191
sg64
(lp2203
S':'
asbag57
(g78
g59
NtRp2204
(dp2205
g62
(dp2206
sg71
g2191
sg64
(lp2207
g57
(g58
g59
NtRp2208
(dp2209
g62
(dp2210
g70
I5
ssg71
g2204
sg64
(lp2211
S'bigvotes/127.0.0.1.2012-05-21.16-27-15.447bf12d-da79-4555-8072-51d24ca87272'
p2212
asbasbasbag57
(g73
g59
NtRp2213
(dp2214
g62
(dp2215
sg71
g67
sg64
(lp2216
g57
(g78
g59
NtRp2217
(dp2218
g62
(dp2219
g82
g83
ssg71
g2213
sg64
(lp2220
S'vars'
p2221
asbag57
(g78
g59
NtRp2222
(dp2223
g62
(dp2224
g89
g90
ssg71
g2213
sg64
(lp2225
S':'
asbag57
(g78
g59
NtRp2226
(dp2227
g62
(dp2228
sg71
g2213
sg64
(lp2229
g57
(g58
g59
NtRp2230
(dp2231
g62
(dp2232
g70
I5
ssg71
g2226
sg64
(lp2233
g57
(g66
g59
NtRp2234
(dp2235
g62
(dp2236
g70
I4
ssg71
Nsg64
(lp2237
sbasbasbasbag57
(g73
g59
NtRp2238
(dp2239
g62
(dp2240
sg71
g67
sg64
(lp2241
g57
(g78
g59
NtRp2242
(dp2243
g62
(dp2244
g82
g83
ssg71
g2238
sg64
(lp2245
S'wsgi'
p2246
asbag57
(g78
g59
NtRp2247
(dp2248
g62
(dp2249
g89
g90
ssg71
g2238
sg64
(lp2250
S':'
asbag57
(g78
g59
NtRp2251
(dp2252
g62
(dp2253
sg71
g2238
sg64
(lp2254
g57
(g58
g59
NtRp2255
(dp2256
g62
(dp2257
g70
I5
ssg71
g2251
sg64
(lp2258
g57
(g66
g59
NtRp2259
(dp2260
g62
(dp2261
g70
I4
ssg71
Nsg64
(lp2262
g57
(g73
g59
NtRp2263
(dp2264
g62
(dp2265
sg71
g2259
sg64
(lp2266
g57
(g78
g59
NtRp2267
(dp2268
g62
(dp2269
g82
g83
ssg71
g2263
sg64
(lp2270
S'environ'
p2271
asbag57
(g78
g59
NtRp2272
(dp2273
g62
(dp2274
g89
g90
ssg71
g2263
sg64
(lp2275
S':'
asbag57
(g78
g59
NtRp2276
(dp2277
g62
(dp2278
sg71
g2263
sg64
(lp2279
g57
(g58
g59
NtRp2280
(dp2281
g62
(dp2282
g70
I4
ssg71
g2276
sg64
(lp2283
g57
(g66
g59
NtRp2284
(dp2285
g62
(dp2286
g70
I3
ssg71
Nsg64
(lp2287
g57
(g73
g59
NtRp2288
(dp2289
g62
(dp2290
sg71
g2284
sg64
(lp2291
g57
(g78
g59
NtRp2292
(dp2293
g62
(dp2294
g82
g83
ssg71
g2288
sg64
(lp2295
S'HTTP_ACCEPT'
p2296
asbag57
(g78
g59
NtRp2297
(dp2298
g62
(dp2299
g89
g90
ssg71
g2288
sg64
(lp2300
S':'
asbag57
(g78
g59
NtRp2301
(dp2302
g62
(dp2303
sg71
g2288
sg64
(lp2304
g57
(g58
g59
NtRp2305
(dp2306
g62
(dp2307
g70
I3
ssg71
g2301
sg64
(lp2308
g818
asbasbasbag57
(g73
g59
NtRp2309
(dp2310
g62
(dp2311
sg71
g2284
sg64
(lp2312
g57
(g78
g59
NtRp2313
(dp2314
g62
(dp2315
g82
g83
ssg71
g2309
sg64
(lp2316
S'HTTP_ACCEPT_ENCODING'
p2317
asbag57
(g78
g59
NtRp2318
(dp2319
g62
(dp2320
g89
g90
ssg71
g2309
sg64
(lp2321
S':'
asbag57
(g78
g59
NtRp2322
(dp2323
g62
(dp2324
sg71
g2309
sg64
(lp2325
g57
(g58
g59
NtRp2326
(dp2327
g62
(dp2328
g70
I3
ssg71
g2322
sg64
(lp2329
g840
asbasbasbag57
(g73
g59
NtRp2330
(dp2331
g62
(dp2332
sg71
g2284
sg64
(lp2333
g57
(g78
g59
NtRp2334
(dp2335
g62
(dp2336
g82
g83
ssg71
g2330
sg64
(lp2337
S'HTTP_ACCEPT_LANGUAGE'
p2338
asbag57
(g78
g59
NtRp2339
(dp2340
g62
(dp2341
g89
g90
ssg71
g2330
sg64
(lp2342
S':'
asbag57
(g78
g59
NtRp2343
(dp2344
g62
(dp2345
sg71
g2330
sg64
(lp2346
g57
(g58
g59
NtRp2347
(dp2348
g62
(dp2349
g70
I3
ssg71
g2343
sg64
(lp2350
g862
asbasbasbag57
(g73
g59
NtRp2351
(dp2352
g62
(dp2353
sg71
g2284
sg64
(lp2354
g57
(g78
g59
NtRp2355
(dp2356
g62
(dp2357
g82
g83
ssg71
g2351
sg64
(lp2358
S'HTTP_CACHE_CONTROL'
p2359
asbag57
(g78
g59
NtRp2360
(dp2361
g62
(dp2362
g89
g90
ssg71
g2351
sg64
(lp2363
S':'
asbag57
(g78
g59
NtRp2364
(dp2365
g62
(dp2366
sg71
g2351
sg64
(lp2367
g57
(g58
g59
NtRp2368
(dp2369
g62
(dp2370
g70
I3
ssg71
g2364
sg64
(lp2371
g884
asbasbasbag57
(g73
g59
NtRp2372
(dp2373
g62
(dp2374
sg71
g2284
sg64
(lp2375
g57
(g78
g59
NtRp2376
(dp2377
g62
(dp2378
g82
g83
ssg71
g2372
sg64
(lp2379
S'HTTP_CONNECTION'
p2380
asbag57
(g78
g59
NtRp2381
(dp2382
g62
(dp2383
g89
g90
ssg71
g2372
sg64
(lp2384
S':'
asbag57
(g78
g59
NtRp2385
(dp2386
g62
(dp2387
sg71
g2372
sg64
(lp2388
g57
(g58
g59
NtRp2389
(dp2390
g62
(dp2391
g70
I3
ssg71
g2385
sg64
(lp2392
g906
asbasbasbag57
(g73
g59
NtRp2393
(dp2394
g62
(dp2395
sg71
g2284
sg64
(lp2396
g57
(g78
g59
NtRp2397
(dp2398
g62
(dp2399
g82
g83
ssg71
g2393
sg64
(lp2400
S'HTTP_COOKIE'
p2401
asbag57
(g78
g59
NtRp2402
(dp2403
g62
(dp2404
g89
g90
ssg71
g2393
sg64
(lp2405
S':'
asbag57
(g78
g59
NtRp2406
(dp2407
g62
(dp2408
sg71
g2393
sg64
(lp2409
g57
(g58
g59
NtRp2410
(dp2411
g62
(dp2412
g70
I3
ssg71
g2406
sg64
(lp2413
g928
asbasbasbag57
(g73
g59
NtRp2414
(dp2415
g62
(dp2416
sg71
g2284
sg64
(lp2417
g57
(g78
g59
NtRp2418
(dp2419
g62
(dp2420
g82
g83
ssg71
g2414
sg64
(lp2421
S'HTTP_HOST'
p2422
asbag57
(g78
g59
NtRp2423
(dp2424
g62
(dp2425
g89
g90
ssg71
g2414
sg64
(lp2426
S':'
asbag57
(g78
g59
NtRp2427
(dp2428
g62
(dp2429
sg71
g2414
sg64
(lp2430
g57
(g58
g59
NtRp2431
(dp2432
g62
(dp2433
g70
I3
ssg71
g2427
sg64
(lp2434
g950
asbasbasbag57
(g73
g59
NtRp2435
(dp2436
g62
(dp2437
sg71
g2284
sg64
(lp2438
g57
(g78
g59
NtRp2439
(dp2440
g62
(dp2441
g82
g83
ssg71
g2435
sg64
(lp2442
S'HTTP_REFERER'
p2443
asbag57
(g78
g59
NtRp2444
(dp2445
g62
(dp2446
g89
g90
ssg71
g2435
sg64
(lp2447
S':'
asbag57
(g78
g59
NtRp2448
(dp2449
g62
(dp2450
sg71
g2435
sg64
(lp2451
g57
(g58
g59
NtRp2452
(dp2453
g62
(dp2454
g70
I3
ssg71
g2448
sg64
(lp2455
g972
asbasbasbag57
(g73
g59
NtRp2456
(dp2457
g62
(dp2458
sg71
g2284
sg64
(lp2459
g57
(g78
g59
NtRp2460
(dp2461
g62
(dp2462
g82
g83
ssg71
g2456
sg64
(lp2463
S'HTTP_USER_AGENT'
p2464
asbag57
(g78
g59
NtRp2465
(dp2466
g62
(dp2467
g89
g90
ssg71
g2456
sg64
(lp2468
S':'
asbag57
(g78
g59
NtRp2469
(dp2470
g62
(dp2471
sg71
g2456
sg64
(lp2472
g57
(g58
g59
NtRp2473
(dp2474
g62
(dp2475
g70
I3
ssg71
g2469
sg64
(lp2476
g994
asbasbasbag57
(g73
g59
NtRp2477
(dp2478
g62
(dp2479
sg71
g2284
sg64
(lp2480
g57
(g78
g59
NtRp2481
(dp2482
g62
(dp2483
g82
g83
ssg71
g2477
sg64
(lp2484
S'PATH_INFO'
p2485
asbag57
(g78
g59
NtRp2486
(dp2487
g62
(dp2488
g89
g90
ssg71
g2477
sg64
(lp2489
S':'
asbag57
(g78
g59
NtRp2490
(dp2491
g62
(dp2492
sg71
g2477
sg64
(lp2493
g57
(g58
g59
NtRp2494
(dp2495
g62
(dp2496
g70
I3
ssg71
g2490
sg64
(lp2497
g1058
asbasbasbag57
(g73
g59
NtRp2498
(dp2499
g62
(dp2500
sg71
g2284
sg64
(lp2501
g57
(g78
g59
NtRp2502
(dp2503
g62
(dp2504
g82
g83
ssg71
g2498
sg64
(lp2505
S'QUERY_STRING'
p2506
asbag57
(g78
g59
NtRp2507
(dp2508
g62
(dp2509
g89
g90
ssg71
g2498
sg64
(lp2510
S':'
asbag57
(g78
g59
NtRp2511
(dp2512
g62
(dp2513
sg71
g2498
sg64
(lp2514
g57
(g58
g59
NtRp2515
(dp2516
g62
(dp2517
g70
I3
ssg71
g2511
sg64
(lp2518
S''
asbasbasbag57
(g73
g59
NtRp2519
(dp2520
g62
(dp2521
sg71
g2284
sg64
(lp2522
g57
(g78
g59
NtRp2523
(dp2524
g62
(dp2525
g82
g83
ssg71
g2519
sg64
(lp2526
S'REMOTE_ADDR'
p2527
asbag57
(g78
g59
NtRp2528
(dp2529
g62
(dp2530
g89
g90
ssg71
g2519
sg64
(lp2531
S':'
asbag57
(g78
g59
NtRp2532
(dp2533
g62
(dp2534
sg71
g2519
sg64
(lp2535
g57
(g58
g59
NtRp2536
(dp2537
g62
(dp2538
g70
I3
ssg71
g2532
sg64
(lp2539
g190
asbasbasbag57
(g73
g59
NtRp2540
(dp2541
g62
(dp2542
sg71
g2284
sg64
(lp2543
g57
(g78
g59
NtRp2544
(dp2545
g62
(dp2546
g82
g83
ssg71
g2540
sg64
(lp2547
S'REMOTE_PORT'
p2548
asbag57
(g78
g59
NtRp2549
(dp2550
g62
(dp2551
g89
g90
ssg71
g2540
sg64
(lp2552
S':'
asbag57
(g78
g59
NtRp2553
(dp2554
g62
(dp2555
sg71
g2540
sg64
(lp2556
g57
(g58
g59
NtRp2557
(dp2558
g62
(dp2559
g70
I3
ssg71
g2553
sg64
(lp2560
g1122
asbasbasbag57
(g73
g59
NtRp2561
(dp2562
g62
(dp2563
sg71
g2284
sg64
(lp2564
g57
(g78
g59
NtRp2565
(dp2566
g62
(dp2567
g82
g83
ssg71
g2561
sg64
(lp2568
S'REQUEST_METHOD'
p2569
asbag57
(g78
g59
NtRp2570
(dp2571
g62
(dp2572
g89
g90
ssg71
g2561
sg64
(lp2573
S':'
asbag57
(g78
g59
NtRp2574
(dp2575
g62
(dp2576
sg71
g2561
sg64
(lp2577
g57
(g58
g59
NtRp2578
(dp2579
g62
(dp2580
g70
I3
ssg71
g2574
sg64
(lp2581
g1144
asbasbasbag57
(g73
g59
NtRp2582
(dp2583
g62
(dp2584
sg71
g2284
sg64
(lp2585
g57
(g78
g59
NtRp2586
(dp2587
g62
(dp2588
g82
g83
ssg71
g2582
sg64
(lp2589
S'REQUEST_URI'
p2590
asbag57
(g78
g59
NtRp2591
(dp2592
g62
(dp2593
g89
g90
ssg71
g2582
sg64
(lp2594
S':'
asbag57
(g78
g59
NtRp2595
(dp2596
g62
(dp2597
sg71
g2582
sg64
(lp2598
g57
(g58
g59
NtRp2599
(dp2600
g62
(dp2601
g70
I3
ssg71
g2595
sg64
(lp2602
g1058
asbasbasbag57
(g73
g59
NtRp2603
(dp2604
g62
(dp2605
sg71
g2284
sg64
(lp2606
g57
(g78
g59
NtRp2607
(dp2608
g62
(dp2609
g82
g83
ssg71
g2603
sg64
(lp2610
S'SCRIPT_NAME'
p2611
asbag57
(g78
g59
NtRp2612
(dp2613
g62
(dp2614
g89
g90
ssg71
g2603
sg64
(lp2615
S':'
asbag57
(g78
g59
NtRp2616
(dp2617
g62
(dp2618
sg71
g2603
sg64
(lp2619
g57
(g58
g59
NtRp2620
(dp2621
g62
(dp2622
g70
I3
ssg71
g2616
sg64
(lp2623
S''
asbasbasbag57
(g73
g59
NtRp2624
(dp2625
g62
(dp2626
sg71
g2284
sg64
(lp2627
g57
(g78
g59
NtRp2628
(dp2629
g62
(dp2630
g82
g83
ssg71
g2624
sg64
(lp2631
S'SERVER_NAME'
p2632
asbag57
(g78
g59
NtRp2633
(dp2634
g62
(dp2635
g89
g90
ssg71
g2624
sg64
(lp2636
S':'
asbag57
(g78
g59
NtRp2637
(dp2638
g62
(dp2639
sg71
g2624
sg64
(lp2640
g57
(g58
g59
NtRp2641
(dp2642
g62
(dp2643
g70
I3
ssg71
g2637
sg64
(lp2644
g1208
asbasbasbag57
(g73
g59
NtRp2645
(dp2646
g62
(dp2647
sg71
g2284
sg64
(lp2648
g57
(g78
g59
NtRp2649
(dp2650
g62
(dp2651
g82
g83
ssg71
g2645
sg64
(lp2652
S'SERVER_PORT'
p2653
asbag57
(g78
g59
NtRp2654
(dp2655
g62
(dp2656
g89
g90
ssg71
g2645
sg64
(lp2657
S':'
asbag57
(g78
g59
NtRp2658
(dp2659
g62
(dp2660
sg71
g2645
sg64
(lp2661
g57
(g58
g59
NtRp2662
(dp2663
g62
(dp2664
g70
I3
ssg71
g2658
sg64
(lp2665
g1230
asbasbasbag57
(g73
g59
NtRp2666
(dp2667
g62
(dp2668
sg71
g2284
sg64
(lp2669
g57
(g78
g59
NtRp2670
(dp2671
g62
(dp2672
g82
g83
ssg71
g2666
sg64
(lp2673
S'SERVER_PROTOCOL'
p2674
asbag57
(g78
g59
NtRp2675
(dp2676
g62
(dp2677
g89
g90
ssg71
g2666
sg64
(lp2678
S':'
asbag57
(g78
g59
NtRp2679
(dp2680
g62
(dp2681
sg71
g2666
sg64
(lp2682
g57
(g58
g59
NtRp2683
(dp2684
g62
(dp2685
g70
I3
ssg71
g2679
sg64
(lp2686
g1252
asbasbasbag57
(g73
g59
NtRp2687
(dp2688
g62
(dp2689
sg71
g2284
sg64
(lp2690
g57
(g78
g59
NtRp2691
(dp2692
g62
(dp2693
g82
g83
ssg71
g2687
sg64
(lp2694
S'SERVER_SOFTWARE'
p2695
asbag57
(g78
g59
NtRp2696
(dp2697
g62
(dp2698
g89
g90
ssg71
g2687
sg64
(lp2699
S':'
asbag57
(g78
g59
NtRp2700
(dp2701
g62
(dp2702
sg71
g2687
sg64
(lp2703
g57
(g58
g59
NtRp2704
(dp2705
g62
(dp2706
g70
I3
ssg71
g2700
sg64
(lp2707
g1274
asbasbasbag57
(g73
g59
NtRp2708
(dp2709
g62
(dp2710
sg71
g2284
sg64
(lp2711
g57
(g78
g59
NtRp2712
(dp2713
g62
(dp2714
g82
g83
ssg71
g2708
sg64
(lp2715
S'WEB2PY_ORIGINAL_URI'
p2716
asbag57
(g78
g59
NtRp2717
(dp2718
g62
(dp2719
g89
g90
ssg71
g2708
sg64
(lp2720
S':'
asbag57
(g78
g59
NtRp2721
(dp2722
g62
(dp2723
sg71
g2708
sg64
(lp2724
g57
(g58
g59
NtRp2725
(dp2726
g62
(dp2727
g70
I3
ssg71
g2721
sg64
(lp2728
g1058
asbasbasbag57
(g73
g59
NtRp2729
(dp2730
g62
(dp2731
sg71
g2284
sg64
(lp2732
g57
(g78
g59
NtRp2733
(dp2734
g62
(dp2735
g82
g83
ssg71
g2729
sg64
(lp2736
S'wsgi.errors'
p2737
asbag57
(g78
g59
NtRp2738
(dp2739
g62
(dp2740
g89
g90
ssg71
g2729
sg64
(lp2741
S':'
asbag57
(g78
g59
NtRp2742
(dp2743
g62
(dp2744
sg71
g2729
sg64
(lp2745
g57
(g58
g59
NtRp2746
(dp2747
g62
(dp2748
g70
I3
ssg71
g2742
sg64
(lp2749
S"<open file '<stderr>', mode 'w' at 0x10199a270>"
p2750
asbasbasbag57
(g73
g59
NtRp2751
(dp2752
g62
(dp2753
sg71
g2284
sg64
(lp2754
g57
(g78
g59
NtRp2755
(dp2756
g62
(dp2757
g82
g83
ssg71
g2751
sg64
(lp2758
S'wsgi.file_wrapper'
p2759
asbag57
(g78
g59
NtRp2760
(dp2761
g62
(dp2762
g89
g90
ssg71
g2751
sg64
(lp2763
S':'
asbag57
(g78
g59
NtRp2764
(dp2765
g62
(dp2766
sg71
g2751
sg64
(lp2767
g57
(g58
g59
NtRp2768
(dp2769
g62
(dp2770
g70
I3
ssg71
g2764
sg64
(lp2771
S'<class wsgiref.util.FileWrapper at 0x1023493f8>'
p2772
asbasbasbag57
(g73
g59
NtRp2773
(dp2774
g62
(dp2775
sg71
g2284
sg64
(lp2776
g57
(g78
g59
NtRp2777
(dp2778
g62
(dp2779
g82
g83
ssg71
g2773
sg64
(lp2780
S'wsgi.input'
p2781
asbag57
(g78
g59
NtRp2782
(dp2783
g62
(dp2784
g89
g90
ssg71
g2773
sg64
(lp2785
S':'
asbag57
(g78
g59
NtRp2786
(dp2787
g62
(dp2788
sg71
g2773
sg64
(lp2789
g57
(g58
g59
NtRp2790
(dp2791
g62
(dp2792
g70
I3
ssg71
g2786
sg64
(lp2793
S'<cStringIO.StringO object at 0x102417ae8>'
p2794
asbasbasbag57
(g73
g59
NtRp2795
(dp2796
g62
(dp2797
sg71
g2284
sg64
(lp2798
g57
(g78
g59
NtRp2799
(dp2800
g62
(dp2801
g82
g83
ssg71
g2795
sg64
(lp2802
S'wsgi.multiprocess'
p2803
asbag57
(g78
g59
NtRp2804
(dp2805
g62
(dp2806
g89
g90
ssg71
g2795
sg64
(lp2807
S':'
asbag57
(g78
g59
NtRp2808
(dp2809
g62
(dp2810
sg71
g2795
sg64
(lp2811
g57
(g58
g59
NtRp2812
(dp2813
g62
(dp2814
g70
I3
ssg71
g2808
sg64
(lp2815
g100
asbasbasbag57
(g73
g59
NtRp2816
(dp2817
g62
(dp2818
sg71
g2284
sg64
(lp2819
g57
(g78
g59
NtRp2820
(dp2821
g62
(dp2822
g82
g83
ssg71
g2816
sg64
(lp2823
S'wsgi.multithread'
p2824
asbag57
(g78
g59
NtRp2825
(dp2826
g62
(dp2827
g89
g90
ssg71
g2816
sg64
(lp2828
S':'
asbag57
(g78
g59
NtRp2829
(dp2830
g62
(dp2831
sg71
g2816
sg64
(lp2832
g57
(g58
g59
NtRp2833
(dp2834
g62
(dp2835
g70
I3
ssg71
g2829
sg64
(lp2836
g1535
asbasbasbag57
(g73
g59
NtRp2837
(dp2838
g62
(dp2839
sg71
g2284
sg64
(lp2840
g57
(g78
g59
NtRp2841
(dp2842
g62
(dp2843
g82
g83
ssg71
g2837
sg64
(lp2844
S'wsgi.run_once'
p2845
asbag57
(g78
g59
NtRp2846
(dp2847
g62
(dp2848
g89
g90
ssg71
g2837
sg64
(lp2849
S':'
asbag57
(g78
g59
NtRp2850
(dp2851
g62
(dp2852
sg71
g2837
sg64
(lp2853
g57
(g58
g59
NtRp2854
(dp2855
g62
(dp2856
g70
I3
ssg71
g2850
sg64
(lp2857
g100
asbasbasbag57
(g73
g59
NtRp2858
(dp2859
g62
(dp2860
sg71
g2284
sg64
(lp2861
g57
(g78
g59
NtRp2862
(dp2863
g62
(dp2864
g82
g83
ssg71
g2858
sg64
(lp2865
S'wsgi.url_scheme'
p2866
asbag57
(g78
g59
NtRp2867
(dp2868
g62
(dp2869
g89
g90
ssg71
g2858
sg64
(lp2870
S':'
asbag57
(g78
g59
NtRp2871
(dp2872
g62
(dp2873
sg71
g2858
sg64
(lp2874
g57
(g58
g59
NtRp2875
(dp2876
g62
(dp2877
g70
I3
ssg71
g2871
sg64
(lp2878
g1578
asbasbasbag57
(g73
g59
NtRp2879
(dp2880
g62
(dp2881
sg71
g2284
sg64
(lp2882
g57
(g78
g59
NtRp2883
(dp2884
g62
(dp2885
g82
g83
ssg71
g2879
sg64
(lp2886
S'wsgi.version'
p2887
asbag57
(g78
g59
NtRp2888
(dp2889
g62
(dp2890
g89
g90
ssg71
g2879
sg64
(lp2891
S':'
asbag57
(g78
g59
NtRp2892
(dp2893
g62
(dp2894
sg71
g2879
sg64
(lp2895
g57
(g58
g59
NtRp2896
(dp2897
g62
(dp2898
g70
I3
ssg71
g2892
sg64
(lp2899
S'1'
asbasbasbasbasbasbasbasbasbasbasbasbasbsS'frames'
p2900
(lp2901
(dp2902
S'file'
p2903
S'/Users/kaiquesilva/Projects/WebApps/big-votes/web2py/gluon/restricted.py'
p2904
sS'dump'
p2905
(dp2906
S'environment'
p2907
S"{'A': <class 'gluon.html.A'>, 'Auth': <class 'gluon.tools.Auth'>, 'B': <class 'gluon.html.B'>, 'BEAUTIFY': <class 'gluon.html.BEAUTIFY'>, 'BODY': <class 'gluon.html.BODY'>, 'BR': <class 'gluon.html.BR'>, 'BUTTON': <class 'gluon.html.BUTTON'>, 'CAT': <class 'gluon.html.CAT'>, 'CENTER': <class 'gluon.html.CENTER'>, 'CLEANUP': <class 'gluon.validators.CLEANUP'>, ...}"
p2908
sS'ccode'
p2909
S'<code object <module> at 0x102f9f030, file "/Use...cations/bigvotes/controllers/default.py", line 2>'
p2910
ssS'lnum'
p2911
I205
sS'lines'
p2912
(dp2913
I200
S'    try:'
p2914
sI201
S'        if type(code) == types.CodeType:'
p2915
sI202
S'            ccode = code'
p2916
sI203
S'        else:'
p2917
sI204
S'            ccode = compile2(code,layer)'
p2918
sI205
S'        exec ccode in environment'
p2919
sI206
S'    except HTTP:'
p2920
sI207
S'        raise'
p2921
sI208
S'    except RestrictedError:'
p2922
sI209
S'        # do not encapsulate (obfuscate) the original RestrictedError'
p2923
ssS'call'
p2924
S"(code='# -*- coding: utf-8 -*-\\nimport bigvotes.hello\\nfr...crud())\\n\\n\\nresponse._vars=response._caller(index)\\n', environment={'A': <class 'gluon.html.A'>, 'Auth': <class 'gluon.tools.Auth'>, 'B': <class 'gluon.html.B'>, 'BEAUTIFY': <class 'gluon.html.BEAUTIFY'>, 'BODY': <class 'gluon.html.BODY'>, 'BR': <class 'gluon.html.BR'>, 'BUTTON': <class 'gluon.html.BUTTON'>, 'CAT': <class 'gluon.html.CAT'>, 'CENTER': <class 'gluon.html.CENTER'>, 'CLEANUP': <class 'gluon.validators.CLEANUP'>, ...}, layer='/Users/kaiquesilva/Projects/WebApps/big-votes/web2py/applications/bigvotes/controllers/default.py')"
p2925
sS'func'
p2926
S'restricted'
p2927
sa(dp2928
g2903
S'/Users/kaiquesilva/Projects/WebApps/big-votes/web2py/applications/bigvotes/controllers/default.py'
p2929
sg2905
(dp2930
S'bigvotes'
p2931
S"<module 'applications.bigvotes.modules.bigvotes' from 'applications/bigvotes/modules/bigvotes.py'>"
p2932
sS'bigvotes.hello'
p2933
S'<function hello>'
p2934
ssg2911
I35
sg2912
(dp2935
I32
S"        'specs': specs"
p2936
sI33
S'    }'
p2937
sI34
S''
sI35
S'@bigvotes.hello'
p2938
sI36
S'def user():'
p2939
sI37
S'    return dict(form=auth())'
p2940
sI38
S''
sI39
S''
sI30
S"        'now': now,"
p2941
sI31
S"        'votes': votes,"
p2942
ssg2924
S'()'
p2943
sg2926
S'<module>'
p2944
sasS'pyver'
p2945
S'Python 2.7.1: /usr/bin/python'
p2946
sS'session'
p2947
g57
(g58
g59
NtRp2948
(dp2949
g62
(dp2950
sg64
(lp2951
g57
(g66
g59
NtRp2952
(dp2953
g62
(dp2954
g70
I5
ssg71
Nsg64
(lp2955
sbasbsS'etype'
p2956
S"<type 'exceptions.TypeError'>"
p2957
sS'date'
p2958
S'Mon May 21 16:27:15 2012'
p2959
sS'response'
p2960
g57
(g58
g59
NtRp2961
(dp2962
g62
(dp2963
sg64
(lp2964
g57
(g66
g59
NtRp2965
(dp2966
g62
(dp2967
g70
I5
ssg71
Nsg64
(lp2968
g57
(g73
g59
NtRp2969
(dp2970
g62
(dp2971
sg71
g2965
sg64
(lp2972
g57
(g78
g59
NtRp2973
(dp2974
g62
(dp2975
g82
g83
ssg71
g2969
sg64
(lp2976
g155
asbag57
(g78
g59
NtRp2977
(dp2978
g62
(dp2979
g89
g90
ssg71
g2969
sg64
(lp2980
S':'
asbag57
(g78
g59
NtRp2981
(dp2982
g62
(dp2983
sg71
g2969
sg64
(lp2984
g57
(g58
g59
NtRp2985
(dp2986
g62
(dp2987
g70
I5
ssg71
g2981
sg64
(lp2988
S'<cStringIO.StringO object at 0x1024176f8>'
p2989
asbasbasbag57
(g73
g59
NtRp2990
(dp2991
g62
(dp2992
sg71
g2965
sg64
(lp2993
g57
(g78
g59
NtRp2994
(dp2995
g62
(dp2996
g82
g83
ssg71
g2990
sg64
(lp2997
g221
asbag57
(g78
g59
NtRp2998
(dp2999
g62
(dp3000
g89
g90
ssg71
g2990
sg64
(lp3001
S':'
asbag57
(g78
g59
NtRp3002
(dp3003
g62
(dp3004
sg71
g2990
sg64
(lp3005
g57
(g58
g59
NtRp3006
(dp3007
g62
(dp3008
g70
I5
ssg71
g3002
sg64
(lp3009
g57
(g66
g59
NtRp3010
(dp3011
g62
(dp3012
g70
I4
ssg71
Nsg64
(lp3013
g57
(g73
g59
NtRp3014
(dp3015
g62
(dp3016
sg71
g3010
sg64
(lp3017
g57
(g78
g59
NtRp3018
(dp3019
g62
(dp3020
g82
g83
ssg71
g3014
sg64
(lp3021
S'session_id_bigvotes'
p3022
asbag57
(g78
g59
NtRp3023
(dp3024
g62
(dp3025
g89
g90
ssg71
g3014
sg64
(lp3026
S':'
asbag57
(g78
g59
NtRp3027
(dp3028
g62
(dp3029
sg71
g3014
sg64
(lp3030
g57
(g58
g59
NtRp3031
(dp3032
g62
(dp3033
g70
I4
ssg71
g3027
sg64
(lp3034
g57
(g66
g59
NtRp3035
(dp3036
g62
(dp3037
g70
I3
ssg71
Nsg64
(lp3038
g57
(g73
g59
NtRp3039
(dp3040
g62
(dp3041
sg71
g3035
sg64
(lp3042
g57
(g78
g59
NtRp3043
(dp3044
g62
(dp3045
g82
g83
ssg71
g3039
sg64
(lp3046
g271
asbag57
(g78
g59
NtRp3047
(dp3048
g62
(dp3049
g89
g90
ssg71
g3039
sg64
(lp3050
S':'
asbag57
(g78
g59
NtRp3051
(dp3052
g62
(dp3053
sg71
g3039
sg64
(lp3054
g57
(g58
g59
NtRp3055
(dp3056
g62
(dp3057
g70
I3
ssg71
g3051
sg64
(lp3058
S''
asbasbasbag57
(g73
g59
NtRp3059
(dp3060
g62
(dp3061
sg71
g3035
sg64
(lp3062
g57
(g78
g59
NtRp3063
(dp3064
g62
(dp3065
g82
g83
ssg71
g3059
sg64
(lp3066
g292
asbag57
(g78
g59
NtRp3067
(dp3068
g62
(dp3069
g89
g90
ssg71
g3059
sg64
(lp3070
S':'
asbag57
(g78
g59
NtRp3071
(dp3072
g62
(dp3073
sg71
g3059
sg64
(lp3074
g57
(g58
g59
NtRp3075
(dp3076
g62
(dp3077
g70
I3
ssg71
g3071
sg64
(lp3078
S''
asbasbasbag57
(g73
g59
NtRp3079
(dp3080
g62
(dp3081
sg71
g3035
sg64
(lp3082
g57
(g78
g59
NtRp3083
(dp3084
g62
(dp3085
g82
g83
ssg71
g3079
sg64
(lp3086
g313
asbag57
(g78
g59
NtRp3087
(dp3088
g62
(dp3089
g89
g90
ssg71
g3079
sg64
(lp3090
S':'
asbag57
(g78
g59
NtRp3091
(dp3092
g62
(dp3093
sg71
g3079
sg64
(lp3094
g57
(g58
g59
NtRp3095
(dp3096
g62
(dp3097
g70
I3
ssg71
g3091
sg64
(lp3098
S''
asbasbasbag57
(g73
g59
NtRp3099
(dp3100
g62
(dp3101
sg71
g3035
sg64
(lp3102
g57
(g78
g59
NtRp3103
(dp3104
g62
(dp3105
g82
g83
ssg71
g3099
sg64
(lp3106
g334
asbag57
(g78
g59
NtRp3107
(dp3108
g62
(dp3109
g89
g90
ssg71
g3099
sg64
(lp3110
S':'
asbag57
(g78
g59
NtRp3111
(dp3112
g62
(dp3113
sg71
g3099
sg64
(lp3114
g57
(g58
g59
NtRp3115
(dp3116
g62
(dp3117
g70
I3
ssg71
g3111
sg64
(lp3118
S''
asbasbasbag57
(g73
g59
NtRp3119
(dp3120
g62
(dp3121
sg71
g3035
sg64
(lp3122
g57
(g78
g59
NtRp3123
(dp3124
g62
(dp3125
g82
g83
ssg71
g3119
sg64
(lp3126
g355
asbag57
(g78
g59
NtRp3127
(dp3128
g62
(dp3129
g89
g90
ssg71
g3119
sg64
(lp3130
S':'
asbag57
(g78
g59
NtRp3131
(dp3132
g62
(dp3133
sg71
g3119
sg64
(lp3134
g57
(g58
g59
NtRp3135
(dp3136
g62
(dp3137
g70
I3
ssg71
g3131
sg64
(lp3138
S''
asbasbasbag57
(g73
g59
NtRp3139
(dp3140
g62
(dp3141
sg71
g3035
sg64
(lp3142
g57
(g78
g59
NtRp3143
(dp3144
g62
(dp3145
g82
g83
ssg71
g3139
sg64
(lp3146
g376
asbag57
(g78
g59
NtRp3147
(dp3148
g62
(dp3149
g89
g90
ssg71
g3139
sg64
(lp3150
S':'
asbag57
(g78
g59
NtRp3151
(dp3152
g62
(dp3153
sg71
g3139
sg64
(lp3154
g57
(g58
g59
NtRp3155
(dp3156
g62
(dp3157
g70
I3
ssg71
g3151
sg64
(lp3158
S'/'
asbasbasbag57
(g73
g59
NtRp3159
(dp3160
g62
(dp3161
sg71
g3035
sg64
(lp3162
g57
(g78
g59
NtRp3163
(dp3164
g62
(dp3165
g82
g83
ssg71
g3159
sg64
(lp3166
g397
asbag57
(g78
g59
NtRp3167
(dp3168
g62
(dp3169
g89
g90
ssg71
g3159
sg64
(lp3170
S':'
asbag57
(g78
g59
NtRp3171
(dp3172
g62
(dp3173
sg71
g3159
sg64
(lp3174
g57
(g58
g59
NtRp3175
(dp3176
g62
(dp3177
g70
I3
ssg71
g3171
sg64
(lp3178
S''
asbasbasbag57
(g73
g59
NtRp3179
(dp3180
g62
(dp3181
sg71
g3035
sg64
(lp3182
g57
(g78
g59
NtRp3183
(dp3184
g62
(dp3185
g82
g83
ssg71
g3179
sg64
(lp3186
g418
asbag57
(g78
g59
NtRp3187
(dp3188
g62
(dp3189
g89
g90
ssg71
g3179
sg64
(lp3190
S':'
asbag57
(g78
g59
NtRp3191
(dp3192
g62
(dp3193
sg71
g3179
sg64
(lp3194
g57
(g58
g59
NtRp3195
(dp3196
g62
(dp3197
g70
I3
ssg71
g3191
sg64
(lp3198
S''
asbasbasbasbasbasbasbasbasbasbasbag57
(g73
g59
NtRp3199
(dp3200
g62
(dp3201
sg71
g2965
sg64
(lp3202
g57
(g78
g59
NtRp3203
(dp3204
g62
(dp3205
g82
g83
ssg71
g3199
sg64
(lp3206
S'delimiters'
p3207
asbag57
(g78
g59
NtRp3208
(dp3209
g62
(dp3210
g89
g90
ssg71
g3199
sg64
(lp3211
S':'
asbag57
(g78
g59
NtRp3212
(dp3213
g62
(dp3214
sg71
g3199
sg64
(lp3215
g57
(g58
g59
NtRp3216
(dp3217
g62
(dp3218
g70
I5
ssg71
g3212
sg64
(lp3219
g57
(g66
g59
NtRp3220
(dp3221
g62
(dp3222
g70
I4
ssg71
Nsg64
(lp3223
g57
(g73
g59
NtRp3224
(dp3225
g62
(dp3226
sg71
g3220
sg64
(lp3227
g57
(g78
g59
NtRp3228
(dp3229
g62
(dp3230
sg71
g3224
sg64
(lp3231
g57
(g58
g59
NtRp3232
(dp3233
g62
(dp3234
g70
I4
ssg71
g3228
sg64
(lp3235
S'{{'
p3236
asbasbasbag57
(g73
g59
NtRp3237
(dp3238
g62
(dp3239
sg71
g3220
sg64
(lp3240
g57
(g78
g59
NtRp3241
(dp3242
g62
(dp3243
sg71
g3237
sg64
(lp3244
g57
(g58
g59
NtRp3245
(dp3246
g62
(dp3247
g70
I4
ssg71
g3241
sg64
(lp3248
S'}}'
p3249
asbasbasbasbasbasbasbag57
(g73
g59
NtRp3250
(dp3251
g62
(dp3252
sg71
g2965
sg64
(lp3253
g57
(g78
g59
NtRp3254
(dp3255
g62
(dp3256
g82
g83
ssg71
g3250
sg64
(lp3257
S'files'
p3258
asbag57
(g78
g59
NtRp3259
(dp3260
g62
(dp3261
g89
g90
ssg71
g3250
sg64
(lp3262
S':'
asbag57
(g78
g59
NtRp3263
(dp3264
g62
(dp3265
sg71
g3250
sg64
(lp3266
g57
(g58
g59
NtRp3267
(dp3268
g62
(dp3269
g70
I5
ssg71
g3263
sg64
(lp3270
g57
(g66
g59
NtRp3271
(dp3272
g62
(dp3273
g70
I4
ssg71
Nsg64
(lp3274
sbasbasbasbag57
(g73
g59
NtRp3275
(dp3276
g62
(dp3277
sg71
g2965
sg64
(lp3278
g57
(g78
g59
NtRp3279
(dp3280
g62
(dp3281
g82
g83
ssg71
g3275
sg64
(lp3282
S'flash'
p3283
asbag57
(g78
g59
NtRp3284
(dp3285
g62
(dp3286
g89
g90
ssg71
g3275
sg64
(lp3287
S':'
asbag57
(g78
g59
NtRp3288
(dp3289
g62
(dp3290
sg71
g3275
sg64
(lp3291
g57
(g58
g59
NtRp3292
(dp3293
g62
(dp3294
g70
I5
ssg71
g3288
sg64
(lp3295
S''
asbasbasbag57
(g73
g59
NtRp3296
(dp3297
g62
(dp3298
sg71
g2965
sg64
(lp3299
g57
(g78
g59
NtRp3300
(dp3301
g62
(dp3302
g82
g83
ssg71
g3296
sg64
(lp3303
S'generic_patterns'
p3304
asbag57
(g78
g59
NtRp3305
(dp3306
g62
(dp3307
g89
g90
ssg71
g3296
sg64
(lp3308
S':'
asbag57
(g78
g59
NtRp3309
(dp3310
g62
(dp3311
sg71
g3296
sg64
(lp3312
g57
(g58
g59
NtRp3313
(dp3314
g62
(dp3315
g70
I5
ssg71
g3309
sg64
(lp3316
g57
(g66
g59
NtRp3317
(dp3318
g62
(dp3319
g70
I4
ssg71
Nsg64
(lp3320
g57
(g73
g59
NtRp3321
(dp3322
g62
(dp3323
sg71
g3317
sg64
(lp3324
g57
(g78
g59
NtRp3325
(dp3326
g62
(dp3327
sg71
g3321
sg64
(lp3328
g57
(g58
g59
NtRp3329
(dp3330
g62
(dp3331
g70
I4
ssg71
g3325
sg64
(lp3332
S'*'
asbasbasbasbasbasbasbag57
(g73
g59
NtRp3333
(dp3334
g62
(dp3335
sg71
g2965
sg64
(lp3336
g57
(g78
g59
NtRp3337
(dp3338
g62
(dp3339
g82
g83
ssg71
g3333
sg64
(lp3340
S'headers'
p3341
asbag57
(g78
g59
NtRp3342
(dp3343
g62
(dp3344
g89
g90
ssg71
g3333
sg64
(lp3345
S':'
asbag57
(g78
g59
NtRp3346
(dp3347
g62
(dp3348
sg71
g3333
sg64
(lp3349
g57
(g58
g59
NtRp3350
(dp3351
g62
(dp3352
g70
I5
ssg71
g3346
sg64
(lp3353
g57
(g66
g59
NtRp3354
(dp3355
g62
(dp3356
g70
I4
ssg71
Nsg64
(lp3357
g57
(g73
g59
NtRp3358
(dp3359
g62
(dp3360
sg71
g3354
sg64
(lp3361
g57
(g78
g59
NtRp3362
(dp3363
g62
(dp3364
g82
g83
ssg71
g3358
sg64
(lp3365
S'Cache-Control'
p3366
asbag57
(g78
g59
NtRp3367
(dp3368
g62
(dp3369
g89
g90
ssg71
g3358
sg64
(lp3370
S':'
asbag57
(g78
g59
NtRp3371
(dp3372
g62
(dp3373
sg71
g3358
sg64
(lp3374
g57
(g58
g59
NtRp3375
(dp3376
g62
(dp3377
g70
I4
ssg71
g3371
sg64
(lp3378
S'no-store, no-cache, must-revalidate, post-check=0, pre-check=0'
p3379
asbasbasbag57
(g73
g59
NtRp3380
(dp3381
g62
(dp3382
sg71
g3354
sg64
(lp3383
g57
(g78
g59
NtRp3384
(dp3385
g62
(dp3386
g82
g83
ssg71
g3380
sg64
(lp3387
S'Content-Type'
p3388
asbag57
(g78
g59
NtRp3389
(dp3390
g62
(dp3391
g89
g90
ssg71
g3380
sg64
(lp3392
S':'
asbag57
(g78
g59
NtRp3393
(dp3394
g62
(dp3395
sg71
g3380
sg64
(lp3396
g57
(g58
g59
NtRp3397
(dp3398
g62
(dp3399
g70
I4
ssg71
g3393
sg64
(lp3400
S'text/html; charset=utf-8'
p3401
asbasbasbag57
(g73
g59
NtRp3402
(dp3403
g62
(dp3404
sg71
g3354
sg64
(lp3405
g57
(g78
g59
NtRp3406
(dp3407
g62
(dp3408
g82
g83
ssg71
g3402
sg64
(lp3409
S'Expires'
p3410
asbag57
(g78
g59
NtRp3411
(dp3412
g62
(dp3413
g89
g90
ssg71
g3402
sg64
(lp3414
S':'
asbag57
(g78
g59
NtRp3415
(dp3416
g62
(dp3417
sg71
g3402
sg64
(lp3418
g57
(g58
g59
NtRp3419
(dp3420
g62
(dp3421
g70
I4
ssg71
g3415
sg64
(lp3422
S'Mon, 21 May 2012 19:27:15 GMT'
p3423
asbasbasbag57
(g73
g59
NtRp3424
(dp3425
g62
(dp3426
sg71
g3354
sg64
(lp3427
g57
(g78
g59
NtRp3428
(dp3429
g62
(dp3430
g82
g83
ssg71
g3424
sg64
(lp3431
S'Pragma'
p3432
asbag57
(g78
g59
NtRp3433
(dp3434
g62
(dp3435
g89
g90
ssg71
g3424
sg64
(lp3436
S':'
asbag57
(g78
g59
NtRp3437
(dp3438
g62
(dp3439
sg71
g3424
sg64
(lp3440
g57
(g58
g59
NtRp3441
(dp3442
g62
(dp3443
g70
I4
ssg71
g3437
sg64
(lp3444
S'no-cache'
p3445
asbasbasbag57
(g73
g59
NtRp3446
(dp3447
g62
(dp3448
sg71
g3354
sg64
(lp3449
g57
(g78
g59
NtRp3450
(dp3451
g62
(dp3452
g82
g83
ssg71
g3446
sg64
(lp3453
S'X-Powered-By'
p3454
asbag57
(g78
g59
NtRp3455
(dp3456
g62
(dp3457
g89
g90
ssg71
g3446
sg64
(lp3458
S':'
asbag57
(g78
g59
NtRp3459
(dp3460
g62
(dp3461
sg71
g3446
sg64
(lp3462
g57
(g58
g59
NtRp3463
(dp3464
g62
(dp3465
g70
I4
ssg71
g3459
sg64
(lp3466
S'web2py'
p3467
asbasbasbasbasbasbasbag57
(g73
g59
NtRp3468
(dp3469
g62
(dp3470
sg71
g2965
sg64
(lp3471
g57
(g78
g59
NtRp3472
(dp3473
g62
(dp3474
g82
g83
ssg71
g3468
sg64
(lp3475
S'menu'
p3476
asbag57
(g78
g59
NtRp3477
(dp3478
g62
(dp3479
g89
g90
ssg71
g3468
sg64
(lp3480
S':'
asbag57
(g78
g59
NtRp3481
(dp3482
g62
(dp3483
sg71
g3468
sg64
(lp3484
g57
(g58
g59
NtRp3485
(dp3486
g62
(dp3487
g70
I5
ssg71
g3481
sg64
(lp3488
g57
(g66
g59
NtRp3489
(dp3490
g62
(dp3491
g70
I4
ssg71
Nsg64
(lp3492
g57
(g73
g59
NtRp3493
(dp3494
g62
(dp3495
sg71
g3489
sg64
(lp3496
g57
(g78
g59
NtRp3497
(dp3498
g62
(dp3499
sg71
g3493
sg64
(lp3500
g57
(g58
g59
NtRp3501
(dp3502
g62
(dp3503
g70
I4
ssg71
g3497
sg64
(lp3504
g57
(g66
g59
NtRp3505
(dp3506
g62
(dp3507
g70
I3
ssg71
Nsg64
(lp3508
g57
(g73
g59
NtRp3509
(dp3510
g62
(dp3511
sg71
g3505
sg64
(lp3512
g57
(g78
g59
NtRp3513
(dp3514
g62
(dp3515
sg71
g3509
sg64
(lp3516
g57
(g58
g59
NtRp3517
(dp3518
g62
(dp3519
g70
I3
ssg71
g3513
sg64
(lp3520
cgluon.languages
lazyT_unpickle
p3521
(S't\x05\x00\x00\x00Votes'
tRp3522
asbasbasbag57
(g73
g59
NtRp3523
(dp3524
g62
(dp3525
sg71
g3505
sg64
(lp3526
g57
(g78
g59
NtRp3527
(dp3528
g62
(dp3529
sg71
g3523
sg64
(lp3530
g57
(g58
g59
NtRp3531
(dp3532
g62
(dp3533
g70
I3
ssg71
g3527
sg64
(lp3534
g100
asbasbasbag57
(g73
g59
NtRp3535
(dp3536
g62
(dp3537
sg71
g3505
sg64
(lp3538
g57
(g78
g59
NtRp3539
(dp3540
g62
(dp3541
sg71
g3535
sg64
(lp3542
g57
(g58
g59
NtRp3543
(dp3544
g62
(dp3545
g70
I3
ssg71
g3539
sg64
(lp3546
S'/bigvotes/default/index'
p3547
asbasbasbag57
(g73
g59
NtRp3548
(dp3549
g62
(dp3550
sg71
g3505
sg64
(lp3551
g57
(g78
g59
NtRp3552
(dp3553
g62
(dp3554
sg71
g3548
sg64
(lp3555
g57
(g58
g59
NtRp3556
(dp3557
g62
(dp3558
g70
I3
ssg71
g3552
sg64
(lp3559
g57
(g66
g59
NtRp3560
(dp3561
g62
(dp3562
g70
I2
ssg71
Nsg64
(lp3563
sbasbasbasbasbasbasbasbag57
(g73
g59
NtRp3564
(dp3565
g62
(dp3566
sg71
g3489
sg64
(lp3567
g57
(g78
g59
NtRp3568
(dp3569
g62
(dp3570
sg71
g3564
sg64
(lp3571
g57
(g58
g59
NtRp3572
(dp3573
g62
(dp3574
g70
I4
ssg71
g3568
sg64
(lp3575
g57
(g66
g59
NtRp3576
(dp3577
g62
(dp3578
g70
I3
ssg71
Nsg64
(lp3579
g57
(g73
g59
NtRp3580
(dp3581
g62
(dp3582
sg71
g3576
sg64
(lp3583
g57
(g78
g59
NtRp3584
(dp3585
g62
(dp3586
sg71
g3580
sg64
(lp3587
g57
(g58
g59
NtRp3588
(dp3589
g62
(dp3590
g70
I3
ssg71
g3584
sg64
(lp3591
g3521
(S't\x07\x00\x00\x00Members'
tRp3592
asbasbasbag57
(g73
g59
NtRp3593
(dp3594
g62
(dp3595
sg71
g3576
sg64
(lp3596
g57
(g78
g59
NtRp3597
(dp3598
g62
(dp3599
sg71
g3593
sg64
(lp3600
g57
(g58
g59
NtRp3601
(dp3602
g62
(dp3603
g70
I3
ssg71
g3597
sg64
(lp3604
g100
asbasbasbag57
(g73
g59
NtRp3605
(dp3606
g62
(dp3607
sg71
g3576
sg64
(lp3608
g57
(g78
g59
NtRp3609
(dp3610
g62
(dp3611
sg71
g3605
sg64
(lp3612
g57
(g58
g59
NtRp3613
(dp3614
g62
(dp3615
g70
I3
ssg71
g3609
sg64
(lp3616
S'/bigvotes/member/index'
p3617
asbasbasbag57
(g73
g59
NtRp3618
(dp3619
g62
(dp3620
sg71
g3576
sg64
(lp3621
g57
(g78
g59
NtRp3622
(dp3623
g62
(dp3624
sg71
g3618
sg64
(lp3625
g57
(g58
g59
NtRp3626
(dp3627
g62
(dp3628
g70
I3
ssg71
g3622
sg64
(lp3629
g57
(g66
g59
NtRp3630
(dp3631
g62
(dp3632
g70
I2
ssg71
Nsg64
(lp3633
sbasbasbasbasbasbasbasbag57
(g73
g59
NtRp3634
(dp3635
g62
(dp3636
sg71
g3489
sg64
(lp3637
g57
(g78
g59
NtRp3638
(dp3639
g62
(dp3640
sg71
g3634
sg64
(lp3641
g57
(g58
g59
NtRp3642
(dp3643
g62
(dp3644
g70
I4
ssg71
g3638
sg64
(lp3645
g57
(g66
g59
NtRp3646
(dp3647
g62
(dp3648
g70
I3
ssg71
Nsg64
(lp3649
g57
(g73
g59
NtRp3650
(dp3651
g62
(dp3652
sg71
g3646
sg64
(lp3653
g57
(g78
g59
NtRp3654
(dp3655
g62
(dp3656
sg71
g3650
sg64
(lp3657
g57
(g58
g59
NtRp3658
(dp3659
g62
(dp3660
g70
I3
ssg71
g3654
sg64
(lp3661
g3521
(S's\x12\x00\x00\x00Members Eliminated'
tRp3662
asbasbasbag57
(g73
g59
NtRp3663
(dp3664
g62
(dp3665
sg71
g3646
sg64
(lp3666
g57
(g78
g59
NtRp3667
(dp3668
g62
(dp3669
sg71
g3663
sg64
(lp3670
g57
(g58
g59
NtRp3671
(dp3672
g62
(dp3673
g70
I3
ssg71
g3667
sg64
(lp3674
g100
asbasbasbag57
(g73
g59
NtRp3675
(dp3676
g62
(dp3677
sg71
g3646
sg64
(lp3678
g57
(g78
g59
NtRp3679
(dp3680
g62
(dp3681
sg71
g3675
sg64
(lp3682
g57
(g58
g59
NtRp3683
(dp3684
g62
(dp3685
g70
I3
ssg71
g3679
sg64
(lp3686
S'/bigvotes/member/eliminated'
p3687
asbasbasbag57
(g73
g59
NtRp3688
(dp3689
g62
(dp3690
sg71
g3646
sg64
(lp3691
g57
(g78
g59
NtRp3692
(dp3693
g62
(dp3694
sg71
g3688
sg64
(lp3695
g57
(g58
g59
NtRp3696
(dp3697
g62
(dp3698
g70
I3
ssg71
g3692
sg64
(lp3699
g57
(g66
g59
NtRp3700
(dp3701
g62
(dp3702
g70
I2
ssg71
Nsg64
(lp3703
sbasbasbasbasbasbasbasbasbasbasbasbag57
(g73
g59
NtRp3704
(dp3705
g62
(dp3706
sg71
g2965
sg64
(lp3707
g57
(g78
g59
NtRp3708
(dp3709
g62
(dp3710
g82
g83
ssg71
g3704
sg64
(lp3711
S'meta'
p3712
asbag57
(g78
g59
NtRp3713
(dp3714
g62
(dp3715
g89
g90
ssg71
g3704
sg64
(lp3716
S':'
asbag57
(g78
g59
NtRp3717
(dp3718
g62
(dp3719
sg71
g3704
sg64
(lp3720
g57
(g58
g59
NtRp3721
(dp3722
g62
(dp3723
g70
I5
ssg71
g3717
sg64
(lp3724
g57
(g66
g59
NtRp3725
(dp3726
g62
(dp3727
g70
I4
ssg71
Nsg64
(lp3728
g57
(g73
g59
NtRp3729
(dp3730
g62
(dp3731
sg71
g3725
sg64
(lp3732
g57
(g78
g59
NtRp3733
(dp3734
g62
(dp3735
g82
g83
ssg71
g3729
sg64
(lp3736
S'author'
p3737
asbag57
(g78
g59
NtRp3738
(dp3739
g62
(dp3740
g89
g90
ssg71
g3729
sg64
(lp3741
S':'
asbag57
(g78
g59
NtRp3742
(dp3743
g62
(dp3744
sg71
g3729
sg64
(lp3745
g57
(g58
g59
NtRp3746
(dp3747
g62
(dp3748
g70
I4
ssg71
g3742
sg64
(lp3749
S'Kaique da Silva <kaique.developer@gmail.com>'
p3750
asbasbasbag57
(g73
g59
NtRp3751
(dp3752
g62
(dp3753
sg71
g3725
sg64
(lp3754
g57
(g78
g59
NtRp3755
(dp3756
g62
(dp3757
g82
g83
ssg71
g3751
sg64
(lp3758
S'copyright'
p3759
asbag57
(g78
g59
NtRp3760
(dp3761
g62
(dp3762
g89
g90
ssg71
g3751
sg64
(lp3763
S':'
asbag57
(g78
g59
NtRp3764
(dp3765
g62
(dp3766
sg71
g3751
sg64
(lp3767
g57
(g58
g59
NtRp3768
(dp3769
g62
(dp3770
g70
I4
ssg71
g3764
sg64
(lp3771
S'Copyright 2012'
p3772
asbasbasbag57
(g73
g59
NtRp3773
(dp3774
g62
(dp3775
sg71
g3725
sg64
(lp3776
g57
(g78
g59
NtRp3777
(dp3778
g62
(dp3779
g82
g83
ssg71
g3773
sg64
(lp3780
S'description'
p3781
asbag57
(g78
g59
NtRp3782
(dp3783
g62
(dp3784
g89
g90
ssg71
g3773
sg64
(lp3785
S':'
asbag57
(g78
g59
NtRp3786
(dp3787
g62
(dp3788
sg71
g3773
sg64
(lp3789
g57
(g58
g59
NtRp3790
(dp3791
g62
(dp3792
g70
I4
ssg71
g3786
sg64
(lp3793
S'Challenge app'
p3794
asbasbasbag57
(g73
g59
NtRp3795
(dp3796
g62
(dp3797
sg71
g3725
sg64
(lp3798
g57
(g78
g59
NtRp3799
(dp3800
g62
(dp3801
g82
g83
ssg71
g3795
sg64
(lp3802
S'generator'
p3803
asbag57
(g78
g59
NtRp3804
(dp3805
g62
(dp3806
g89
g90
ssg71
g3795
sg64
(lp3807
S':'
asbag57
(g78
g59
NtRp3808
(dp3809
g62
(dp3810
sg71
g3795
sg64
(lp3811
g57
(g58
g59
NtRp3812
(dp3813
g62
(dp3814
g70
I4
ssg71
g3808
sg64
(lp3815
S'Web2py Web Framework'
p3816
asbasbasbag57
(g73
g59
NtRp3817
(dp3818
g62
(dp3819
sg71
g3725
sg64
(lp3820
g57
(g78
g59
NtRp3821
(dp3822
g62
(dp3823
g82
g83
ssg71
g3817
sg64
(lp3824
S'keywords'
p3825
asbag57
(g78
g59
NtRp3826
(dp3827
g62
(dp3828
g89
g90
ssg71
g3817
sg64
(lp3829
S':'
asbag57
(g78
g59
NtRp3830
(dp3831
g62
(dp3832
sg71
g3817
sg64
(lp3833
g57
(g58
g59
NtRp3834
(dp3835
g62
(dp3836
g70
I4
ssg71
g3830
sg64
(lp3837
S'BBB, votes, challenge'
p3838
asbasbasbasbasbasbasbag57
(g73
g59
NtRp3839
(dp3840
g62
(dp3841
sg71
g2965
sg64
(lp3842
g57
(g78
g59
NtRp3843
(dp3844
g62
(dp3845
g82
g83
ssg71
g3839
sg64
(lp3846
S'postprocessing'
p3847
asbag57
(g78
g59
NtRp3848
(dp3849
g62
(dp3850
g89
g90
ssg71
g3839
sg64
(lp3851
S':'
asbag57
(g78
g59
NtRp3852
(dp3853
g62
(dp3854
sg71
g3839
sg64
(lp3855
g57
(g58
g59
NtRp3856
(dp3857
g62
(dp3858
g70
I5
ssg71
g3852
sg64
(lp3859
g57
(g66
g59
NtRp3860
(dp3861
g62
(dp3862
g70
I4
ssg71
Nsg64
(lp3863
sbasbasbasbag57
(g73
g59
NtRp3864
(dp3865
g62
(dp3866
sg71
g2965
sg64
(lp3867
g57
(g78
g59
NtRp3868
(dp3869
g62
(dp3870
g82
g83
ssg71
g3864
sg64
(lp3871
S'session_file'
p3872
asbag57
(g78
g59
NtRp3873
(dp3874
g62
(dp3875
g89
g90
ssg71
g3864
sg64
(lp3876
S':'
asbag57
(g78
g59
NtRp3877
(dp3878
g62
(dp3879
sg71
g3864
sg64
(lp3880
g57
(g58
g59
NtRp3881
(dp3882
g62
(dp3883
g70
I5
ssg71
g3877
sg64
(lp3884
S"<open file '/Users/kaiquesilva/Projects/WebApps/big-votes/web2py/applications/bigvotes/sessions/127.0.0.1-0c65f91e-3424-4f01-826a-fccbbef12bf1', mode 'rb+' at 0x10236bf60>"
p3885
asbasbasbag57
(g73
g59
NtRp3886
(dp3887
g62
(dp3888
sg71
g2965
sg64
(lp3889
g57
(g78
g59
NtRp3890
(dp3891
g62
(dp3892
g82
g83
ssg71
g3886
sg64
(lp3893
S'session_filename'
p3894
asbag57
(g78
g59
NtRp3895
(dp3896
g62
(dp3897
g89
g90
ssg71
g3886
sg64
(lp3898
S':'
asbag57
(g78
g59
NtRp3899
(dp3900
g62
(dp3901
sg71
g3886
sg64
(lp3902
g57
(g58
g59
NtRp3903
(dp3904
g62
(dp3905
g70
I5
ssg71
g3899
sg64
(lp3906
S'/Users/kaiquesilva/Projects/WebApps/big-votes/web2py/applications/bigvotes/sessions/127.0.0.1-0c65f91e-3424-4f01-826a-fccbbef12bf1'
p3907
asbasbasbag57
(g73
g59
NtRp3908
(dp3909
g62
(dp3910
sg71
g2965
sg64
(lp3911
g57
(g78
g59
NtRp3912
(dp3913
g62
(dp3914
g82
g83
ssg71
g3908
sg64
(lp3915
S'session_id'
p3916
asbag57
(g78
g59
NtRp3917
(dp3918
g62
(dp3919
g89
g90
ssg71
g3908
sg64
(lp3920
S':'
asbag57
(g78
g59
NtRp3921
(dp3922
g62
(dp3923
sg71
g3908
sg64
(lp3924
g57
(g58
g59
NtRp3925
(dp3926
g62
(dp3927
g70
I5
ssg71
g3921
sg64
(lp3928
S'127.0.0.1-0c65f91e-3424-4f01-826a-fccbbef12bf1'
p3929
asbasbasbag57
(g73
g59
NtRp3930
(dp3931
g62
(dp3932
sg71
g2965
sg64
(lp3933
g57
(g78
g59
NtRp3934
(dp3935
g62
(dp3936
g82
g83
ssg71
g3930
sg64
(lp3937
S'session_id_name'
p3938
asbag57
(g78
g59
NtRp3939
(dp3940
g62
(dp3941
g89
g90
ssg71
g3930
sg64
(lp3942
S':'
asbag57
(g78
g59
NtRp3943
(dp3944
g62
(dp3945
sg71
g3930
sg64
(lp3946
g57
(g58
g59
NtRp3947
(dp3948
g62
(dp3949
g70
I5
ssg71
g3943
sg64
(lp3950
g3022
asbasbasbag57
(g73
g59
NtRp3951
(dp3952
g62
(dp3953
sg71
g2965
sg64
(lp3954
g57
(g78
g59
NtRp3955
(dp3956
g62
(dp3957
g82
g83
ssg71
g3951
sg64
(lp3958
S'session_locked'
p3959
asbag57
(g78
g59
NtRp3960
(dp3961
g62
(dp3962
g89
g90
ssg71
g3951
sg64
(lp3963
S':'
asbag57
(g78
g59
NtRp3964
(dp3965
g62
(dp3966
sg71
g3951
sg64
(lp3967
g57
(g58
g59
NtRp3968
(dp3969
g62
(dp3970
g70
I5
ssg71
g3964
sg64
(lp3971
g1535
asbasbasbag57
(g73
g59
NtRp3972
(dp3973
g62
(dp3974
sg71
g2965
sg64
(lp3975
g57
(g78
g59
NtRp3976
(dp3977
g62
(dp3978
g82
g83
ssg71
g3972
sg64
(lp3979
S'session_new'
p3980
asbag57
(g78
g59
NtRp3981
(dp3982
g62
(dp3983
g89
g90
ssg71
g3972
sg64
(lp3984
S':'
asbag57
(g78
g59
NtRp3985
(dp3986
g62
(dp3987
sg71
g3972
sg64
(lp3988
g57
(g58
g59
NtRp3989
(dp3990
g62
(dp3991
g70
I5
ssg71
g3985
sg64
(lp3992
g100
asbasbasbag57
(g73
g59
NtRp3993
(dp3994
g62
(dp3995
sg71
g2965
sg64
(lp3996
g57
(g78
g59
NtRp3997
(dp3998
g62
(dp3999
g82
g83
ssg71
g3993
sg64
(lp4000
S'status'
p4001
asbag57
(g78
g59
NtRp4002
(dp4003
g62
(dp4004
g89
g90
ssg71
g3993
sg64
(lp4005
S':'
asbag57
(g78
g59
NtRp4006
(dp4007
g62
(dp4008
sg71
g3993
sg64
(lp4009
g57
(g58
g59
NtRp4010
(dp4011
g62
(dp4012
g70
I5
ssg71
g4006
sg64
(lp4013
S'200'
p4014
asbasbasbag57
(g73
g59
NtRp4015
(dp4016
g62
(dp4017
sg71
g2965
sg64
(lp4018
g57
(g78
g59
NtRp4019
(dp4020
g62
(dp4021
g82
g83
ssg71
g4015
sg64
(lp4022
S'subtitle'
p4023
asbag57
(g78
g59
NtRp4024
(dp4025
g62
(dp4026
g89
g90
ssg71
g4015
sg64
(lp4027
S':'
asbag57
(g78
g59
NtRp4028
(dp4029
g62
(dp4030
sg71
g4015
sg64
(lp4031
g57
(g58
g59
NtRp4032
(dp4033
g62
(dp4034
g70
I5
ssg71
g4028
sg64
(lp4035
S'A simple chanllenge'
p4036
asbasbasbag57
(g73
g59
NtRp4037
(dp4038
g62
(dp4039
sg71
g2965
sg64
(lp4040
g57
(g78
g59
NtRp4041
(dp4042
g62
(dp4043
g82
g83
ssg71
g4037
sg64
(lp4044
S'title'
p4045
asbag57
(g78
g59
NtRp4046
(dp4047
g62
(dp4048
g89
g90
ssg71
g4037
sg64
(lp4049
S':'
asbag57
(g78
g59
NtRp4050
(dp4051
g62
(dp4052
sg71
g4037
sg64
(lp4053
g57
(g58
g59
NtRp4054
(dp4055
g62
(dp4056
g70
I5
ssg71
g4050
sg64
(lp4057
S'Big Votes'
p4058
asbasbasbag57
(g73
g59
NtRp4059
(dp4060
g62
(dp4061
sg71
g2965
sg64
(lp4062
g57
(g78
g59
NtRp4063
(dp4064
g62
(dp4065
g82
g83
ssg71
g4059
sg64
(lp4066
g2199
asbag57
(g78
g59
NtRp4067
(dp4068
g62
(dp4069
g89
g90
ssg71
g4059
sg64
(lp4070
S':'
asbag57
(g78
g59
NtRp4071
(dp4072
g62
(dp4073
sg71
g4059
sg64
(lp4074
g57
(g58
g59
NtRp4075
(dp4076
g62
(dp4077
g70
I5
ssg71
g4071
sg64
(lp4078
g2212
asbasbasbag57
(g73
g59
NtRp4079
(dp4080
g62
(dp4081
sg71
g2965
sg64
(lp4082
g57
(g78
g59
NtRp4083
(dp4084
g62
(dp4085
g82
g83
ssg71
g4079
sg64
(lp4086
S'view'
p4087
asbag57
(g78
g59
NtRp4088
(dp4089
g62
(dp4090
g89
g90
ssg71
g4079
sg64
(lp4091
S':'
asbag57
(g78
g59
NtRp4092
(dp4093
g62
(dp4094
sg71
g4079
sg64
(lp4095
g57
(g58
g59
NtRp4096
(dp4097
g62
(dp4098
g70
I5
ssg71
g4092
sg64
(lp4099
S'default/index.html'
p4100
asbasbasbasbasbsS'locals'
p4101
(dp4102
S'Service'
p4103
S"<class 'gluon.tools.Service'>"
p4104
sS'OBJECT'
p4105
S"<class 'gluon.html.OBJECT'>"
p4106
sS'SQLDB'
p4107
S"<class 'gluon.dal.DAL'>"
p4108
sg2947
S"<Storage {'_Session__hash': '9\\x8f\\x04\\xff1\\x00Y...owser': {'version': '12.0', 'name': 'Firefox'}}}>"
p4109
sS'LINK'
p4110
S"<class 'gluon.html.LINK'>"
p4111
sS'BR'
p4112
S"<class 'gluon.html.BR'>"
p4113
sS'local_import'
p4114
S'<function <lambda>>'
p4115
sS'OPTGROUP'
p4116
S"<class 'gluon.html.OPTGROUP'>"
p4117
sS'bigvotes'
p4118
S"<module 'applications.bigvotes.modules.bigvotes' from 'applications/bigvotes/modules/bigvotes.py'>"
p4119
sS'LI'
p4120
S"<class 'gluon.html.LI'>"
p4121
sS'PRE'
p4122
S"<class 'gluon.html.PRE'>"
p4123
sS'IS_INT_IN_RANGE'
p4124
S"<class 'gluon.validators.IS_INT_IN_RANGE'>"
p4125
sS'IS_LOWER'
p4126
S"<class 'gluon.validators.IS_LOWER'>"
p4127
sS'IS_STRONG'
p4128
S"<class 'gluon.validators.IS_STRONG'>"
p4129
sS'cache'
p4130
S'<gluon.cache.Cache object>'
p4131
sS'IS_IN_DB'
p4132
S"<class 'gluon.validators.IS_IN_DB'>"
p4133
sS'TAG'
p4134
S'<gluon.html.__TAG__ object>'
p4135
sS'SQLField'
p4136
S"<class 'gluon.dal.Field'>"
p4137
sS'mail'
p4138
S'<gluon.tools.Mail object>'
p4139
sS'BODY'
p4140
S"<class 'gluon.html.BODY'>"
p4141
sS'IS_DATE_IN_RANGE'
p4142
S"<class 'gluon.validators.IS_DATE_IN_RANGE'>"
p4143
sS'IFRAME'
p4144
S"<class 'gluon.html.IFRAME'>"
p4145
sS'URL'
p4146
S'<function URL>'
p4147
sS'__file__'
p4148
S"'/Users/kaiquesilva/Projects/WebApps/big-votes/web2py/applications/bigvotes/controllers/default.py'"
p4149
sS'db'
p4150
S"<DAL {'auth_event': <Table {'origin': <gluon.dal..._id': <gluon.dal.Field object at 0x102fa8250>}>}>"
p4151
sS'auth'
p4152
S'<gluon.tools.Auth object>'
p4153
sS'P'
S"<class 'gluon.html.P'>"
p4154
sS'TFOOT'
p4155
S"<class 'gluon.html.TFOOT'>"
p4156
sS'XHTML'
p4157
S"<class 'gluon.html.XHTML'>"
p4158
sS'datetime'
p4159
S"<module 'datetime' from '/System/Library/Framewo...sions/2.7/lib/python2.7/lib-dynload/datetime.so'>"
p4160
sS'ON'
p4161
g1535
sS'OL'
p4162
S"<class 'gluon.html.OL'>"
p4163
sS'TEXTAREA'
p4164
S"<class 'gluon.html.TEXTAREA'>"
p4165
sS'MENU'
p4166
S"<class 'gluon.html.MENU'>"
p4167
sS'EM'
p4168
S"<class 'gluon.html.EM'>"
p4169
sS'CODE'
p4170
S"<class 'gluon.html.CODE'>"
p4171
sS'HTTP'
p4172
S"<class 'gluon.http.HTTP'>"
p4173
sS'HR'
p4174
S"<class 'gluon.html.HR'>"
p4175
sS'IS_DATETIME'
p4176
S"<class 'gluon.validators.IS_DATETIME'>"
p4177
sS'STYLE'
p4178
S"<class 'gluon.html.STYLE'>"
p4179
sS'LABEL'
p4180
S"<class 'gluon.html.LABEL'>"
p4181
sS'META'
p4182
S"<class 'gluon.html.META'>"
p4183
sS'plugins'
p4184
S'<gluon.tools.PluginManager object>'
p4185
sS'SELECT'
p4186
S"<class 'gluon.html.SELECT'>"
p4187
sS'index'
p4188
S'<function index>'
p4189
sS'use_janrain'
p4190
S'<function use_janrain>'
p4191
sS'CENTER'
p4192
S"<class 'gluon.html.CENTER'>"
p4193
sS'prettydate'
p4194
S'<function prettydate>'
p4195
sS'Crud'
p4196
S"<class 'gluon.tools.Crud'>"
p4197
sS'Auth'
p4198
S"<class 'gluon.tools.Auth'>"
p4199
sS'__builtins__'
p4200
S"{'ArithmeticError': <type 'exceptions.ArithmeticError'>, 'AssertionError': <type 'exceptions.AssertionError'>, 'AttributeError': <type 'exceptions.AttributeError'>, 'BaseException': <type 'exceptions.BaseException'>, 'BufferError': <type 'exceptions.BufferError'>, 'BytesWarning': <type 'exceptions.BytesWarning'>, 'DeprecationWarning': <type 'exceptions.DeprecationWarning'>, 'EOFError': <type 'exceptions.EOFError'>, 'Ellipsis': Ellipsis, 'EnvironmentError': <type 'exceptions.EnvironmentError'>, ...}"
p4201
sS'HTML'
p4202
S"<class 'gluon.html.HTML'>"
p4203
sS'SQLFORM'
p4204
S"<class 'gluon.sqlhtml.SQLFORM'>"
p4205
sS'LOAD'
p4206
S'<function LOAD>'
p4207
sS'redirect'
p4208
S'<function redirect>'
p4209
sS'FIELDSET'
p4210
S"<class 'gluon.html.FIELDSET'>"
p4211
sS'IS_EQUAL_TO'
p4212
S"<class 'gluon.validators.IS_EQUAL_TO'>"
p4213
sS'embed64'
p4214
S'<function embed64>'
p4215
sS'IS_LIST_OF'
p4216
S"<class 'gluon.validators.IS_LIST_OF'>"
p4217
sS'INPUT'
p4218
S"<class 'gluon.html.INPUT'>"
p4219
sS'EMBED'
p4220
S"<class 'gluon.html.EMBED'>"
p4221
sS'FORM'
p4222
S"<class 'gluon.html.FORM'>"
p4223
sS'H2'
p4224
S"<class 'gluon.html.H2'>"
p4225
sS'H3'
p4226
S"<class 'gluon.html.H3'>"
p4227
sS'BUTTON'
p4228
S"<class 'gluon.html.BUTTON'>"
p4229
sS'H1'
p4230
S"<class 'gluon.html.H1'>"
p4231
sS'H6'
p4232
S"<class 'gluon.html.H6'>"
p4233
sS'H4'
p4234
S"<class 'gluon.html.H4'>"
p4235
sS'H5'
p4236
S"<class 'gluon.html.H5'>"
p4237
sS'UL'
p4238
S"<class 'gluon.html.UL'>"
p4239
sS'IS_UPPER'
p4240
S"<class 'gluon.validators.IS_UPPER'>"
p4241
sS'xmlescape'
p4242
S'<function xmlescape>'
p4243
sS'IS_TIME'
p4244
S"<class 'gluon.validators.IS_TIME'>"
p4245
sS'Votes'
p4246
S"<class 'applications.bigvotes.modules.bigvotes.Votes'>"
p4247
sS'OPTION'
p4248
S"<class 'gluon.html.OPTION'>"
p4249
sS'TITLE'
p4250
S"<class 'gluon.html.TITLE'>"
p4251
sS'CRYPT'
p4252
S"<class 'gluon.validators.CRYPT'>"
p4253
sS'IS_EMPTY_OR'
p4254
S"<class 'gluon.validators.IS_EMPTY_OR'>"
p4255
sS'MARKMIN'
p4256
S"<class 'gluon.html.MARKMIN'>"
p4257
sS'__name__'
p4258
S"'__restricted__'"
p4259
sS'COL'
p4260
S"<class 'gluon.html.COL'>"
p4261
sS'service'
p4262
S'<gluon.tools.Service object>'
p4263
sS'SCRIPT'
p4264
S"<class 'gluon.html.SCRIPT'>"
p4265
sS'TABLE'
p4266
S"<class 'gluon.html.TABLE'>"
p4267
sS'IS_IPV4'
p4268
S"<class 'gluon.validators.IS_IPV4'>"
p4269
sS'IS_LENGTH'
p4270
S"<class 'gluon.validators.IS_LENGTH'>"
p4271
sS'XML'
p4272
S"<class 'gluon.html.XML'>"
p4273
sS'B'
S"<class 'gluon.html.B'>"
p4274
sS'IMG'
p4275
S"<class 'gluon.html.IMG'>"
p4276
sS'SQLTABLE'
p4277
S"<class 'gluon.sqlhtml.SQLTABLE'>"
p4278
sS'IS_MATCH'
p4279
S"<class 'gluon.validators.IS_MATCH'>"
p4280
sS'IS_ALPHANUMERIC'
p4281
S"<class 'gluon.validators.IS_ALPHANUMERIC'>"
p4282
sS'SPAN'
p4283
S"<class 'gluon.html.SPAN'>"
p4284
sS'IS_SLUG'
p4285
S"<class 'gluon.validators.IS_SLUG'>"
p4286
sS'CLEANUP'
p4287
S"<class 'gluon.validators.CLEANUP'>"
p4288
sS'IS_DATE'
p4289
S"<class 'gluon.validators.IS_DATE'>"
p4290
sS'IS_EMAIL'
p4291
S"<class 'gluon.validators.IS_EMAIL'>"
p4292
sS'IS_NOT_EMPTY'
p4293
S"<class 'gluon.validators.IS_NOT_EMPTY'>"
p4294
sS'IS_FLOAT_IN_RANGE'
p4295
S"<class 'gluon.validators.IS_FLOAT_IN_RANGE'>"
p4296
sS'BEAUTIFY'
p4297
S"<class 'gluon.html.BEAUTIFY'>"
p4298
sS'TBODY'
p4299
S"<class 'gluon.html.TBODY'>"
p4300
sS'CAT'
p4301
S"<class 'gluon.html.CAT'>"
p4302
sS'Field'
p4303
S"<class 'gluon.dal.Field'>"
p4304
sS'DIV'
p4305
S"<class 'gluon.html.DIV'>"
p4306
sS'LEGEND'
p4307
S"<class 'gluon.html.LEGEND'>"
p4308
sS'COLGROUP'
p4309
S"<class 'gluon.html.COLGROUP'>"
p4310
sS'DAL'
p4311
S"<class 'gluon.dal.DAL'>"
p4312
sS'TT'
p4313
S"<class 'gluon.html.TT'>"
p4314
sS'TR'
p4315
S"<class 'gluon.html.TR'>"
p4316
sS'__package__'
p4317
S'None'
p4318
sS'TH'
p4319
S"<class 'gluon.html.TH'>"
p4320
sS'TD'
p4321
S"<class 'gluon.html.TD'>"
p4322
sS'PluginManager'
p4323
S"<class 'gluon.tools.PluginManager'>"
p4324
sS'IS_URL'
p4325
S"<class 'gluon.validators.IS_URL'>"
p4326
sS'A'
S"<class 'gluon.html.A'>"
p4327
sS'HEAD'
p4328
S"<class 'gluon.html.HEAD'>"
p4329
sS'IS_DATETIME_IN_RANGE'
p4330
S"<class 'gluon.validators.IS_DATETIME_IN_RANGE'>"
p4331
sS'IS_IMAGE'
p4332
S"<class 'gluon.validators.IS_IMAGE'>"
p4333
sS'I'
S"<class 'gluon.html.I'>"
p4334
sS'crud'
p4335
S'<gluon.tools.Crud object>'
p4336
sS'signature'
p4337
S"<Table {'ALL': <gluon.dal.SQLALL object at 0x102..., 'id': <gluon.dal.Field object at 0x102fa3710>}>"
p4338
sS'IS_NOT_IN_DB'
p4339
S"<class 'gluon.validators.IS_NOT_IN_DB'>"
p4340
sg2960
S"<Storage {'body': <cStringIO.StringO object at 0...> at 0x102430500>, 'view': 'default/index.html'}>"
p4341
sS'THEAD'
p4342
S"<class 'gluon.html.THEAD'>"
p4343
sS'IS_NULL_OR'
p4344
S"<class 'gluon.validators.IS_EMPTY_OR'>"
p4345
sg56
S"<Storage {'body': <cStringIO.StringO object at 0..._vars': <Storage {}>, 'post_vars': <Storage {}>}>"
p4346
sS'IS_EXPR'
p4347
S"<class 'gluon.validators.IS_EXPR'>"
p4348
sS'IS_IN_SET'
p4349
S"<class 'gluon.validators.IS_IN_SET'>"
p4350
sS'IS_UPLOAD_FILENAME'
p4351
S"<class 'gluon.validators.IS_UPLOAD_FILENAME'>"
p4352
sS'IS_DECIMAL_IN_RANGE'
p4353
S"<class 'gluon.validators.IS_DECIMAL_IN_RANGE'>"
p4354
sS'T'
S'<gluon.languages.translator object>'
p4355
sssS'traceback'
p4356
S'Traceback (most recent call last):\n  File "/Users/kaiquesilva/Projects/WebApps/big-votes/web2py/gluon/restricted.py", line 205, in restricted\n    exec ccode in environment\n  File "/Users/kaiquesilva/Projects/WebApps/big-votes/web2py/applications/bigvotes/controllers/default.py", line 35, in <module>\n    @bigvotes.hello\nTypeError: hello() takes no arguments (1 given)\n'
p4357
s.