(dp1
S'output'
p2
S"<type 'exceptions.SyntaxError'> invalid syntax (db.py, line 109)"
p3
sS'layer'
p4
S'/home/kaique/Projects/web/big-votes/web2py/applications/bigvotes/models/db.py'
p5
sS'code'
p6
S"# -*- coding: utf-8 -*-\n\n#########################################################################\n## This scaffolding model makes your app work on Google App Engine too\n## File is released under public domain and you can use without limitations\n#########################################################################\n\n## if SSL/HTTPS is properly configured and you want all HTTP requests to\n## be redirected to HTTPS, uncomment the line below:\n# request.requires_https()\n\nif not request.env.web2py_runtime_gae:\n    ## if NOT running on Google App Engine use SQLite or other DB\n    db = DAL('sqlite://storage.sqlite')\nelse:\n    ## connect to Google BigTable (optional 'google:datastore://namespace')\n    db = DAL('google:datastore')\n    ## store sessions and tickets there\n    session.connect(request, response, db = db)\n    ## or store session in Memcache, Redis, etc.\n    ## from gluon.contrib.memdb import MEMDB\n    ## from google.appengine.api.memcache import Client\n    ## session.connect(request, response, db = MEMDB(Client()))\n\n## by default give a view/generic.extension to all actions from localhost\n## none otherwise. a pattern can be 'controller/function.extension'\nresponse.generic_patterns = ['*'] if request.is_local else []\n## (optional) optimize handling of static files\n# response.optimize_css = 'concat,minify,inline'\n# response.optimize_js = 'concat,minify,inline'\n\n#########################################################################\n## Here is sample code if you need for\n## - email capabilities\n## - authentication (registration, login, logout, ... )\n## - authorization (role based authorization)\n## - services (xml, csv, json, xmlrpc, jsonrpc, amf, rss)\n## - old style crud actions\n## (more options discussed in gluon/tools.py)\n#########################################################################\n\nfrom gluon.tools import Auth, Crud, Service, PluginManager, prettydate\nauth = Auth(db, hmac_key=Auth.get_or_create_key())\ncrud, service, plugins = Crud(db), Service(), PluginManager()\n\n## create all tables needed by auth if not custom tables\nauth.define_tables()\n\n## configure email\nmail=auth.settings.mailer\nmail.settings.server = 'logging' or 'smtp.gmail.com:587'\nmail.settings.sender = 'you@gmail.com'\nmail.settings.login = 'username:password'\n\n## configure auth policy\nauth.settings.registration_requires_verification = False\nauth.settings.registration_requires_approval = False\nauth.settings.reset_password_requires_verification = True\n\n## if you need to use OpenID, Facebook, MySpace, Twitter, Linkedin, etc.\n## register with janrain.com, write your domain:api_key in private/janrain.key\nfrom gluon.contrib.login_methods.rpx_account import use_janrain\nuse_janrain(auth,filename='private/janrain.key')\n\n#########################################################################\n## Define your tables below (or better in another model file) for example\n##\n## >>> db.define_table('mytable',Field('myfield','string'))\n##\n## Fields can be 'string','text','password','integer','double','boolean'\n##       'date','time','datetime','blob','upload', 'reference TABLENAME'\n## There is an implicit 'id integer autoincrement' field\n## Consult manual for more options, validators, etc.\n##\n## More API examples for controllers:\n##\n## >>> db.mytable.insert(myfield='value')\n## >>> rows=db(db.mytable.myfield=='value').select(db.mytable.ALL)\n## >>> for row in rows: print row.id, row.myfield\n#########################################################################\n\nsignature = db.Table(\n    db,\n    'signature',\n    Field( 'created_on', 'datetime', default = request.now ),\n    Field( 'created_by', db.auth_user, default = auth.user_id, format = '%(name)s' ),\n    Field( 'updated_on', 'datetime', default = auth.user_id ),\n    Field( 'updated_by', db.auth_user, default = auth.user_id, format = '%(name)s' ),\n)\n\n# Mebers for vote\ndb.define_table(\n    'member',\n    Field( 'name', 'string', requires = [IS_NOT_EMPTY()] ),\n    Field( 'age', 'integer', requires = [IS_NOT_EMPTY()] ),\n    Field( 'description', 'text' ),\n    Field( 'status', 'string', requires = [IS_NOT_EMPTY()] ),\n    Field( 'avatar', 'upload', requires = [IS_NOT_EMPTY()] ),\n    signature\n)\n\n# Votes\ndb.define_table(\n    'vote',\n    Field( 'members', 'string' ),\n    Field( 'start_at', 'datetime' ),\n    Field( 'end_at', 'datetime' ),\n    Field( 'active', 'boolean', default = False )\n    signature\n)"
p7
sS'snapshot'
p8
(dp9
S'exception'
p10
(dp11
S'__getslice__'
p12
S"<method-wrapper '__getslice__' of exceptions.SyntaxError object>"
p13
sS'text'
p14
S"'    signature\\n'"
p15
sS'__str__'
p16
S"<method-wrapper '__str__' of exceptions.SyntaxError object>"
p17
sS'__reduce__'
p18
S'<built-in method __reduce__ of exceptions.SyntaxError object>'
p19
sS'__dict__'
p20
S'{}'
p21
sS'__sizeof__'
p22
S'<built-in method __sizeof__ of exceptions.SyntaxError object>'
p23
sS'__init__'
p24
S"<method-wrapper '__init__' of exceptions.SyntaxError object>"
p25
sS'__setattr__'
p26
S"<method-wrapper '__setattr__' of exceptions.SyntaxError object>"
p27
sS'__reduce_ex__'
p28
S'<built-in method __reduce_ex__ of exceptions.SyntaxError object>'
p29
sS'__new__'
p30
S'<built-in method __new__ of type object>'
p31
sS'__format__'
p32
S'<built-in method __format__ of exceptions.SyntaxError object>'
p33
sS'__class__'
p34
S"<type 'exceptions.SyntaxError'>"
p35
sS'filename'
p36
S"'/home/kaique/Projects/web/big-votes/web2py/applications/bigvotes/models/db.py'"
p37
sS'lineno'
p38
S'109'
p39
sS'msg'
p40
S"'invalid syntax'"
p41
sS'__doc__'
p42
S"'Invalid syntax.'"
p43
sS'__getitem__'
p44
S"<method-wrapper '__getitem__' of exceptions.SyntaxError object>"
p45
sS'__setstate__'
p46
S'<built-in method __setstate__ of exceptions.SyntaxError object>'
p47
sS'__getattribute__'
p48
S"<method-wrapper '__getattribute__' of exceptions.SyntaxError object>"
p49
sS'print_file_and_line'
p50
S'None'
p51
sS'args'
p52
S"('invalid syntax', ('/home/kaique/Projects/web/big-votes/web2py/applications/bigvotes/models/db.py', 109, 13, '    signature\\n'))"
p53
sS'__subclasshook__'
p54
S'<built-in method __subclasshook__ of type object>'
p55
sS'offset'
p56
S'13'
p57
sS'__unicode__'
p58
S'<built-in method __unicode__ of exceptions.SyntaxError object>'
p59
sS'__delattr__'
p60
S"<method-wrapper '__delattr__' of exceptions.SyntaxError object>"
p61
sS'__repr__'
p62
S"<method-wrapper '__repr__' of exceptions.SyntaxError object>"
p63
sS'__hash__'
p64
S"<method-wrapper '__hash__' of exceptions.SyntaxError object>"
p65
ssS'evalue'
p66
S'invalid syntax (db.py, line 109)'
p67
sS'request'
p68
ccopy_reg
_reconstructor
p69
(cgluon.html
BEAUTIFY
p70
c__builtin__
object
p71
NtRp72
(dp73
S'attributes'
p74
(dp75
sS'components'
p76
(lp77
g69
(cgluon.html
TABLE
p78
g71
NtRp79
(dp80
g74
(dp81
S'level'
p82
I5
ssS'parent'
p83
Nsg76
(lp84
g69
(cgluon.html
TR
p85
g71
NtRp86
(dp87
g74
(dp88
sg83
g79
sg76
(lp89
g69
(cgluon.html
TD
p90
g71
NtRp91
(dp92
g74
(dp93
S'_style'
p94
S'font-weight:bold;vertical-align:top'
p95
ssg83
g86
sg76
(lp96
S'ajax'
p97
asbag69
(g90
g71
NtRp98
(dp99
g74
(dp100
S'_valign'
p101
S'top'
p102
ssg83
g86
sg76
(lp103
S':'
asbag69
(g90
g71
NtRp104
(dp105
g74
(dp106
sg83
g86
sg76
(lp107
g69
(g70
g71
NtRp108
(dp109
g74
(dp110
g82
I5
ssg83
g104
sg76
(lp111
S'False'
p112
asbasbasbag69
(g85
g71
NtRp113
(dp114
g74
(dp115
sg83
g79
sg76
(lp116
g69
(g90
g71
NtRp117
(dp118
g74
(dp119
g94
g95
ssg83
g113
sg76
(lp120
S'application'
p121
asbag69
(g90
g71
NtRp122
(dp123
g74
(dp124
g101
g102
ssg83
g113
sg76
(lp125
S':'
asbag69
(g90
g71
NtRp126
(dp127
g74
(dp128
sg83
g113
sg76
(lp129
g69
(g70
g71
NtRp130
(dp131
g74
(dp132
g82
I5
ssg83
g126
sg76
(lp133
S'bigvotes'
p134
asbasbasbag69
(g85
g71
NtRp135
(dp136
g74
(dp137
sg83
g79
sg76
(lp138
g69
(g90
g71
NtRp139
(dp140
g74
(dp141
g94
g95
ssg83
g135
sg76
(lp142
g52
asbag69
(g90
g71
NtRp143
(dp144
g74
(dp145
g101
g102
ssg83
g135
sg76
(lp146
S':'
asbag69
(g90
g71
NtRp147
(dp148
g74
(dp149
sg83
g135
sg76
(lp150
g69
(g70
g71
NtRp151
(dp152
g74
(dp153
g82
I5
ssg83
g147
sg76
(lp154
g69
(g78
g71
NtRp155
(dp156
g74
(dp157
g82
I4
ssg83
Nsg76
(lp158
sbasbasbasbag69
(g85
g71
NtRp159
(dp160
g74
(dp161
sg83
g79
sg76
(lp162
g69
(g90
g71
NtRp163
(dp164
g74
(dp165
g94
g95
ssg83
g159
sg76
(lp166
S'body'
p167
asbag69
(g90
g71
NtRp168
(dp169
g74
(dp170
g101
g102
ssg83
g159
sg76
(lp171
S':'
asbag69
(g90
g71
NtRp172
(dp173
g74
(dp174
sg83
g159
sg76
(lp175
g69
(g70
g71
NtRp176
(dp177
g74
(dp178
g82
I5
ssg83
g172
sg76
(lp179
S'<cStringIO.StringO object at 0xb0626d40>'
p180
asbasbasbag69
(g85
g71
NtRp181
(dp182
g74
(dp183
sg83
g79
sg76
(lp184
g69
(g90
g71
NtRp185
(dp186
g74
(dp187
g94
g95
ssg83
g181
sg76
(lp188
S'client'
p189
asbag69
(g90
g71
NtRp190
(dp191
g74
(dp192
g101
g102
ssg83
g181
sg76
(lp193
S':'
asbag69
(g90
g71
NtRp194
(dp195
g74
(dp196
sg83
g181
sg76
(lp197
g69
(g70
g71
NtRp198
(dp199
g74
(dp200
g82
I5
ssg83
g194
sg76
(lp201
S'127.0.0.1'
p202
asbasbasbag69
(g85
g71
NtRp203
(dp204
g74
(dp205
sg83
g79
sg76
(lp206
g69
(g90
g71
NtRp207
(dp208
g74
(dp209
g94
g95
ssg83
g203
sg76
(lp210
S'controller'
p211
asbag69
(g90
g71
NtRp212
(dp213
g74
(dp214
g101
g102
ssg83
g203
sg76
(lp215
S':'
asbag69
(g90
g71
NtRp216
(dp217
g74
(dp218
sg83
g203
sg76
(lp219
g69
(g70
g71
NtRp220
(dp221
g74
(dp222
g82
I5
ssg83
g216
sg76
(lp223
S'default'
p224
asbasbasbag69
(g85
g71
NtRp225
(dp226
g74
(dp227
sg83
g79
sg76
(lp228
g69
(g90
g71
NtRp229
(dp230
g74
(dp231
g94
g95
ssg83
g225
sg76
(lp232
S'cookies'
p233
asbag69
(g90
g71
NtRp234
(dp235
g74
(dp236
g101
g102
ssg83
g225
sg76
(lp237
S':'
asbag69
(g90
g71
NtRp238
(dp239
g74
(dp240
sg83
g225
sg76
(lp241
g69
(g70
g71
NtRp242
(dp243
g74
(dp244
g82
I5
ssg83
g238
sg76
(lp245
g69
(g78
g71
NtRp246
(dp247
g74
(dp248
g82
I4
ssg83
Nsg76
(lp249
sbasbasbasbag69
(g85
g71
NtRp250
(dp251
g74
(dp252
sg83
g79
sg76
(lp253
g69
(g90
g71
NtRp254
(dp255
g74
(dp256
g94
g95
ssg83
g250
sg76
(lp257
S'env'
p258
asbag69
(g90
g71
NtRp259
(dp260
g74
(dp261
g101
g102
ssg83
g250
sg76
(lp262
S':'
asbag69
(g90
g71
NtRp263
(dp264
g74
(dp265
sg83
g250
sg76
(lp266
g69
(g70
g71
NtRp267
(dp268
g74
(dp269
g82
I5
ssg83
g263
sg76
(lp270
g69
(g78
g71
NtRp271
(dp272
g74
(dp273
g82
I4
ssg83
Nsg76
(lp274
g69
(g85
g71
NtRp275
(dp276
g74
(dp277
sg83
g271
sg76
(lp278
g69
(g90
g71
NtRp279
(dp280
g74
(dp281
g94
g95
ssg83
g275
sg76
(lp282
S'app_folders'
p283
asbag69
(g90
g71
NtRp284
(dp285
g74
(dp286
g101
g102
ssg83
g275
sg76
(lp287
S':'
asbag69
(g90
g71
NtRp288
(dp289
g74
(dp290
sg83
g275
sg76
(lp291
g69
(g70
g71
NtRp292
(dp293
g74
(dp294
g82
I4
ssg83
g288
sg76
(lp295
S"set(['/home/kaique/Projects/web/big-votes/web2py/applications/welcome/', '/home/kaique/Projects/web/big-votes/web2py/applications/bigvotes/'])"
p296
asbasbasbag69
(g85
g71
NtRp297
(dp298
g74
(dp299
sg83
g271
sg76
(lp300
g69
(g90
g71
NtRp301
(dp302
g74
(dp303
g94
g95
ssg83
g297
sg76
(lp304
S'applications_parent'
p305
asbag69
(g90
g71
NtRp306
(dp307
g74
(dp308
g101
g102
ssg83
g297
sg76
(lp309
S':'
asbag69
(g90
g71
NtRp310
(dp311
g74
(dp312
sg83
g297
sg76
(lp313
g69
(g70
g71
NtRp314
(dp315
g74
(dp316
g82
I4
ssg83
g310
sg76
(lp317
S'/home/kaique/Projects/web/big-votes/web2py'
p318
asbasbasbag69
(g85
g71
NtRp319
(dp320
g74
(dp321
sg83
g271
sg76
(lp322
g69
(g90
g71
NtRp323
(dp324
g74
(dp325
g94
g95
ssg83
g319
sg76
(lp326
S'cmd_args'
p327
asbag69
(g90
g71
NtRp328
(dp329
g74
(dp330
g101
g102
ssg83
g319
sg76
(lp331
S':'
asbag69
(g90
g71
NtRp332
(dp333
g74
(dp334
sg83
g319
sg76
(lp335
g69
(g70
g71
NtRp336
(dp337
g74
(dp338
g82
I4
ssg83
g332
sg76
(lp339
g69
(g78
g71
NtRp340
(dp341
g74
(dp342
g82
I3
ssg83
Nsg76
(lp343
sbasbasbasbag69
(g85
g71
NtRp344
(dp345
g74
(dp346
sg83
g271
sg76
(lp347
g69
(g90
g71
NtRp348
(dp349
g74
(dp350
g94
g95
ssg83
g344
sg76
(lp351
S'cmd_options'
p352
asbag69
(g90
g71
NtRp353
(dp354
g74
(dp355
g101
g102
ssg83
g344
sg76
(lp356
S':'
asbag69
(g90
g71
NtRp357
(dp358
g74
(dp359
sg83
g344
sg76
(lp360
g69
(g70
g71
NtRp361
(dp362
g74
(dp363
g82
I4
ssg83
g357
sg76
(lp364
S"<Values at 0xa5a280c: {'verbose': False, 'ip': '127.0.0.1', 'shutdown_timeout': 5, 'taskbar': False, 'nocron': False, 'pid_filename': 'httpserver.pid', 'maxthreads': None, 'softcron': False, 'server_name': 'main', 'bpython': False, 'nogui': False, 'port': 8000, 'extcron': False, 'debuglevel': 30, 'test': None, 'folder': '/home/kaique/Projects/web/big-votes/web2py', 'config': '', 'import_models': False, 'winservice': '', 'shell': None, 'run': '', 'log_filename': 'httpserver.log', 'args': [''], 'socket_timeout': 5, 'ssl_ca_certificate': None, 'scheduler': None, 'profiler_filename': None, 'ssl_private_key': '', 'password': 'dev', 'request_queue_size': 5, 'ssl_certificate': '', 'cronjob': False, 'numthreads': None, 'quiet': False, 'interfaces': None, 'minthreads': None, 'timeout': 10, 'plain': False, 'nobanner': False}>"
p365
asbasbasbag69
(g85
g71
NtRp366
(dp367
g74
(dp368
sg83
g271
sg76
(lp369
g69
(g90
g71
NtRp370
(dp371
g74
(dp372
g94
g95
ssg83
g366
sg76
(lp373
S'db_sessions'
p374
asbag69
(g90
g71
NtRp375
(dp376
g74
(dp377
g101
g102
ssg83
g366
sg76
(lp378
S':'
asbag69
(g90
g71
NtRp379
(dp380
g74
(dp381
sg83
g366
sg76
(lp382
g69
(g70
g71
NtRp383
(dp384
g74
(dp385
g82
I4
ssg83
g379
sg76
(lp386
S'set([])'
p387
asbasbasbag69
(g85
g71
NtRp388
(dp389
g74
(dp390
sg83
g271
sg76
(lp391
g69
(g90
g71
NtRp392
(dp393
g74
(dp394
g94
g95
ssg83
g388
sg76
(lp395
S'debugging'
p396
asbag69
(g90
g71
NtRp397
(dp398
g74
(dp399
g101
g102
ssg83
g388
sg76
(lp400
S':'
asbag69
(g90
g71
NtRp401
(dp402
g74
(dp403
sg83
g388
sg76
(lp404
g69
(g70
g71
NtRp405
(dp406
g74
(dp407
g82
I4
ssg83
g401
sg76
(lp408
g112
asbasbasbag69
(g85
g71
NtRp409
(dp410
g74
(dp411
sg83
g271
sg76
(lp412
g69
(g90
g71
NtRp413
(dp414
g74
(dp415
g94
g95
ssg83
g409
sg76
(lp416
S'gluon_parent'
p417
asbag69
(g90
g71
NtRp418
(dp419
g74
(dp420
g101
g102
ssg83
g409
sg76
(lp421
S':'
asbag69
(g90
g71
NtRp422
(dp423
g74
(dp424
sg83
g409
sg76
(lp425
g69
(g70
g71
NtRp426
(dp427
g74
(dp428
g82
I4
ssg83
g422
sg76
(lp429
S'/home/kaique/Projects/web/big-votes/web2py'
p430
asbasbasbag69
(g85
g71
NtRp431
(dp432
g74
(dp433
sg83
g271
sg76
(lp434
g69
(g90
g71
NtRp435
(dp436
g74
(dp437
g94
g95
ssg83
g431
sg76
(lp438
S'http_accept'
p439
asbag69
(g90
g71
NtRp440
(dp441
g74
(dp442
g101
g102
ssg83
g431
sg76
(lp443
S':'
asbag69
(g90
g71
NtRp444
(dp445
g74
(dp446
sg83
g431
sg76
(lp447
g69
(g70
g71
NtRp448
(dp449
g74
(dp450
g82
I4
ssg83
g444
sg76
(lp451
S'text/html,application/xhtml+xml,application/xml;q=0.9,*/*;q=0.8'
p452
asbasbasbag69
(g85
g71
NtRp453
(dp454
g74
(dp455
sg83
g271
sg76
(lp456
g69
(g90
g71
NtRp457
(dp458
g74
(dp459
g94
g95
ssg83
g453
sg76
(lp460
S'http_accept_encoding'
p461
asbag69
(g90
g71
NtRp462
(dp463
g74
(dp464
g101
g102
ssg83
g453
sg76
(lp465
S':'
asbag69
(g90
g71
NtRp466
(dp467
g74
(dp468
sg83
g453
sg76
(lp469
g69
(g70
g71
NtRp470
(dp471
g74
(dp472
g82
I4
ssg83
g466
sg76
(lp473
S'gzip, deflate'
p474
asbasbasbag69
(g85
g71
NtRp475
(dp476
g74
(dp477
sg83
g271
sg76
(lp478
g69
(g90
g71
NtRp479
(dp480
g74
(dp481
g94
g95
ssg83
g475
sg76
(lp482
S'http_accept_language'
p483
asbag69
(g90
g71
NtRp484
(dp485
g74
(dp486
g101
g102
ssg83
g475
sg76
(lp487
S':'
asbag69
(g90
g71
NtRp488
(dp489
g74
(dp490
sg83
g475
sg76
(lp491
g69
(g70
g71
NtRp492
(dp493
g74
(dp494
g82
I4
ssg83
g488
sg76
(lp495
S'en-us,en;q=0.5'
p496
asbasbasbag69
(g85
g71
NtRp497
(dp498
g74
(dp499
sg83
g271
sg76
(lp500
g69
(g90
g71
NtRp501
(dp502
g74
(dp503
g94
g95
ssg83
g497
sg76
(lp504
S'http_connection'
p505
asbag69
(g90
g71
NtRp506
(dp507
g74
(dp508
g101
g102
ssg83
g497
sg76
(lp509
S':'
asbag69
(g90
g71
NtRp510
(dp511
g74
(dp512
sg83
g497
sg76
(lp513
g69
(g70
g71
NtRp514
(dp515
g74
(dp516
g82
I4
ssg83
g510
sg76
(lp517
S'keep-alive'
p518
asbasbasbag69
(g85
g71
NtRp519
(dp520
g74
(dp521
sg83
g271
sg76
(lp522
g69
(g90
g71
NtRp523
(dp524
g74
(dp525
g94
g95
ssg83
g519
sg76
(lp526
S'http_cookie'
p527
asbag69
(g90
g71
NtRp528
(dp529
g74
(dp530
g101
g102
ssg83
g519
sg76
(lp531
S':'
asbag69
(g90
g71
NtRp532
(dp533
g74
(dp534
sg83
g519
sg76
(lp535
g69
(g70
g71
NtRp536
(dp537
g74
(dp538
g82
I4
ssg83
g532
sg76
(lp539
S'ti:mid=60D8FB60-8607-4D03-8657-F8565D64F519; session_id_welcome=127.0.0.1-8c75de5d-c4c5-42dc-b23a-38516f393cbb; session_id_admin=127.0.0.1-e6755616-325e-47cc-882f-e0a0d2e82ccc; session_id_bigvotes=127.0.0.1-718d5415-ab93-423f-93e7-2fb7e9f92ae6'
p540
asbasbasbag69
(g85
g71
NtRp541
(dp542
g74
(dp543
sg83
g271
sg76
(lp544
g69
(g90
g71
NtRp545
(dp546
g74
(dp547
g94
g95
ssg83
g541
sg76
(lp548
S'http_host'
p549
asbag69
(g90
g71
NtRp550
(dp551
g74
(dp552
g101
g102
ssg83
g541
sg76
(lp553
S':'
asbag69
(g90
g71
NtRp554
(dp555
g74
(dp556
sg83
g541
sg76
(lp557
g69
(g70
g71
NtRp558
(dp559
g74
(dp560
g82
I4
ssg83
g554
sg76
(lp561
S'127.0.0.1:8000'
p562
asbasbasbag69
(g85
g71
NtRp563
(dp564
g74
(dp565
sg83
g271
sg76
(lp566
g69
(g90
g71
NtRp567
(dp568
g74
(dp569
g94
g95
ssg83
g563
sg76
(lp570
S'http_referer'
p571
asbag69
(g90
g71
NtRp572
(dp573
g74
(dp574
g101
g102
ssg83
g563
sg76
(lp575
S':'
asbag69
(g90
g71
NtRp576
(dp577
g74
(dp578
sg83
g563
sg76
(lp579
g69
(g70
g71
NtRp580
(dp581
g74
(dp582
g82
I4
ssg83
g576
sg76
(lp583
S'http://127.0.0.1:8000/bigvotes/default/members'
p584
asbasbasbag69
(g85
g71
NtRp585
(dp586
g74
(dp587
sg83
g271
sg76
(lp588
g69
(g90
g71
NtRp589
(dp590
g74
(dp591
g94
g95
ssg83
g585
sg76
(lp592
S'http_user_agent'
p593
asbag69
(g90
g71
NtRp594
(dp595
g74
(dp596
g101
g102
ssg83
g585
sg76
(lp597
S':'
asbag69
(g90
g71
NtRp598
(dp599
g74
(dp600
sg83
g585
sg76
(lp601
g69
(g70
g71
NtRp602
(dp603
g74
(dp604
g82
I4
ssg83
g598
sg76
(lp605
S'Mozilla/5.0 (X11; Linux i686; rv:12.0) Gecko/20100101 Firefox/12.0'
p606
asbasbasbag69
(g85
g71
NtRp607
(dp608
g74
(dp609
sg83
g271
sg76
(lp610
g69
(g90
g71
NtRp611
(dp612
g74
(dp613
g94
g95
ssg83
g607
sg76
(lp614
S'is_jython'
p615
asbag69
(g90
g71
NtRp616
(dp617
g74
(dp618
g101
g102
ssg83
g607
sg76
(lp619
S':'
asbag69
(g90
g71
NtRp620
(dp621
g74
(dp622
sg83
g607
sg76
(lp623
g69
(g70
g71
NtRp624
(dp625
g74
(dp626
g82
I4
ssg83
g620
sg76
(lp627
g112
asbasbasbag69
(g85
g71
NtRp628
(dp629
g74
(dp630
sg83
g271
sg76
(lp631
g69
(g90
g71
NtRp632
(dp633
g74
(dp634
g94
g95
ssg83
g628
sg76
(lp635
S'is_pypy'
p636
asbag69
(g90
g71
NtRp637
(dp638
g74
(dp639
g101
g102
ssg83
g628
sg76
(lp640
S':'
asbag69
(g90
g71
NtRp641
(dp642
g74
(dp643
sg83
g628
sg76
(lp644
g69
(g70
g71
NtRp645
(dp646
g74
(dp647
g82
I4
ssg83
g641
sg76
(lp648
g112
asbasbasbag69
(g85
g71
NtRp649
(dp650
g74
(dp651
sg83
g271
sg76
(lp652
g69
(g90
g71
NtRp653
(dp654
g74
(dp655
g94
g95
ssg83
g649
sg76
(lp656
S'path_info'
p657
asbag69
(g90
g71
NtRp658
(dp659
g74
(dp660
g101
g102
ssg83
g649
sg76
(lp661
S':'
asbag69
(g90
g71
NtRp662
(dp663
g74
(dp664
sg83
g649
sg76
(lp665
g69
(g70
g71
NtRp666
(dp667
g74
(dp668
g82
I4
ssg83
g662
sg76
(lp669
S'/bigvotes/default/index'
p670
asbasbasbag69
(g85
g71
NtRp671
(dp672
g74
(dp673
sg83
g271
sg76
(lp674
g69
(g90
g71
NtRp675
(dp676
g74
(dp677
g94
g95
ssg83
g671
sg76
(lp678
S'query_string'
p679
asbag69
(g90
g71
NtRp680
(dp681
g74
(dp682
g101
g102
ssg83
g671
sg76
(lp683
S':'
asbag69
(g90
g71
NtRp684
(dp685
g74
(dp686
sg83
g671
sg76
(lp687
g69
(g70
g71
NtRp688
(dp689
g74
(dp690
g82
I4
ssg83
g684
sg76
(lp691
S''
asbasbasbag69
(g85
g71
NtRp692
(dp693
g74
(dp694
sg83
g271
sg76
(lp695
g69
(g90
g71
NtRp696
(dp697
g74
(dp698
g94
g95
ssg83
g692
sg76
(lp699
S'remote_addr'
p700
asbag69
(g90
g71
NtRp701
(dp702
g74
(dp703
g101
g102
ssg83
g692
sg76
(lp704
S':'
asbag69
(g90
g71
NtRp705
(dp706
g74
(dp707
sg83
g692
sg76
(lp708
g69
(g70
g71
NtRp709
(dp710
g74
(dp711
g82
I4
ssg83
g705
sg76
(lp712
g202
asbasbasbag69
(g85
g71
NtRp713
(dp714
g74
(dp715
sg83
g271
sg76
(lp716
g69
(g90
g71
NtRp717
(dp718
g74
(dp719
g94
g95
ssg83
g713
sg76
(lp720
S'remote_port'
p721
asbag69
(g90
g71
NtRp722
(dp723
g74
(dp724
g101
g102
ssg83
g713
sg76
(lp725
S':'
asbag69
(g90
g71
NtRp726
(dp727
g74
(dp728
sg83
g713
sg76
(lp729
g69
(g70
g71
NtRp730
(dp731
g74
(dp732
g82
I4
ssg83
g726
sg76
(lp733
S'37863'
p734
asbasbasbag69
(g85
g71
NtRp735
(dp736
g74
(dp737
sg83
g271
sg76
(lp738
g69
(g90
g71
NtRp739
(dp740
g74
(dp741
g94
g95
ssg83
g735
sg76
(lp742
S'request_method'
p743
asbag69
(g90
g71
NtRp744
(dp745
g74
(dp746
g101
g102
ssg83
g735
sg76
(lp747
S':'
asbag69
(g90
g71
NtRp748
(dp749
g74
(dp750
sg83
g735
sg76
(lp751
g69
(g70
g71
NtRp752
(dp753
g74
(dp754
g82
I4
ssg83
g748
sg76
(lp755
S'GET'
p756
asbasbasbag69
(g85
g71
NtRp757
(dp758
g74
(dp759
sg83
g271
sg76
(lp760
g69
(g90
g71
NtRp761
(dp762
g74
(dp763
g94
g95
ssg83
g757
sg76
(lp764
S'script_name'
p765
asbag69
(g90
g71
NtRp766
(dp767
g74
(dp768
g101
g102
ssg83
g757
sg76
(lp769
S':'
asbag69
(g90
g71
NtRp770
(dp771
g74
(dp772
sg83
g757
sg76
(lp773
g69
(g70
g71
NtRp774
(dp775
g74
(dp776
g82
I4
ssg83
g770
sg76
(lp777
S''
asbasbasbag69
(g85
g71
NtRp778
(dp779
g74
(dp780
sg83
g271
sg76
(lp781
g69
(g90
g71
NtRp782
(dp783
g74
(dp784
g94
g95
ssg83
g778
sg76
(lp785
S'server_name'
p786
asbag69
(g90
g71
NtRp787
(dp788
g74
(dp789
g101
g102
ssg83
g778
sg76
(lp790
S':'
asbag69
(g90
g71
NtRp791
(dp792
g74
(dp793
sg83
g778
sg76
(lp794
g69
(g70
g71
NtRp795
(dp796
g74
(dp797
g82
I4
ssg83
g791
sg76
(lp798
S'main'
p799
asbasbasbag69
(g85
g71
NtRp800
(dp801
g74
(dp802
sg83
g271
sg76
(lp803
g69
(g90
g71
NtRp804
(dp805
g74
(dp806
g94
g95
ssg83
g800
sg76
(lp807
S'server_port'
p808
asbag69
(g90
g71
NtRp809
(dp810
g74
(dp811
g101
g102
ssg83
g800
sg76
(lp812
S':'
asbag69
(g90
g71
NtRp813
(dp814
g74
(dp815
sg83
g800
sg76
(lp816
g69
(g70
g71
NtRp817
(dp818
g74
(dp819
g82
I4
ssg83
g813
sg76
(lp820
S'8000'
p821
asbasbasbag69
(g85
g71
NtRp822
(dp823
g74
(dp824
sg83
g271
sg76
(lp825
g69
(g90
g71
NtRp826
(dp827
g74
(dp828
g94
g95
ssg83
g822
sg76
(lp829
S'server_protocol'
p830
asbag69
(g90
g71
NtRp831
(dp832
g74
(dp833
g101
g102
ssg83
g822
sg76
(lp834
S':'
asbag69
(g90
g71
NtRp835
(dp836
g74
(dp837
sg83
g822
sg76
(lp838
g69
(g70
g71
NtRp839
(dp840
g74
(dp841
g82
I4
ssg83
g835
sg76
(lp842
S'HTTP/1.1'
p843
asbasbasbag69
(g85
g71
NtRp844
(dp845
g74
(dp846
sg83
g271
sg76
(lp847
g69
(g90
g71
NtRp848
(dp849
g74
(dp850
g94
g95
ssg83
g844
sg76
(lp851
S'server_software'
p852
asbag69
(g90
g71
NtRp853
(dp854
g74
(dp855
g101
g102
ssg83
g844
sg76
(lp856
S':'
asbag69
(g90
g71
NtRp857
(dp858
g74
(dp859
sg83
g844
sg76
(lp860
g69
(g70
g71
NtRp861
(dp862
g74
(dp863
g82
I4
ssg83
g857
sg76
(lp864
S'Rocket 1.2.4'
p865
asbasbasbag69
(g85
g71
NtRp866
(dp867
g74
(dp868
sg83
g271
sg76
(lp869
g69
(g90
g71
NtRp870
(dp871
g74
(dp872
g94
g95
ssg83
g866
sg76
(lp873
S'web2py_crontype'
p874
asbag69
(g90
g71
NtRp875
(dp876
g74
(dp877
g101
g102
ssg83
g866
sg76
(lp878
S':'
asbag69
(g90
g71
NtRp879
(dp880
g74
(dp881
sg83
g866
sg76
(lp882
g69
(g70
g71
NtRp883
(dp884
g74
(dp885
g82
I4
ssg83
g879
sg76
(lp886
S'hard'
p887
asbasbasbag69
(g85
g71
NtRp888
(dp889
g74
(dp890
sg83
g271
sg76
(lp891
g69
(g90
g71
NtRp892
(dp893
g74
(dp894
g94
g95
ssg83
g888
sg76
(lp895
S'web2py_path'
p896
asbag69
(g90
g71
NtRp897
(dp898
g74
(dp899
g101
g102
ssg83
g888
sg76
(lp900
S':'
asbag69
(g90
g71
NtRp901
(dp902
g74
(dp903
sg83
g888
sg76
(lp904
g69
(g70
g71
NtRp905
(dp906
g74
(dp907
g82
I4
ssg83
g901
sg76
(lp908
g318
asbasbasbag69
(g85
g71
NtRp909
(dp910
g74
(dp911
sg83
g271
sg76
(lp912
g69
(g90
g71
NtRp913
(dp914
g74
(dp915
g94
g95
ssg83
g909
sg76
(lp916
S'web2py_version'
p917
asbag69
(g90
g71
NtRp918
(dp919
g74
(dp920
g101
g102
ssg83
g909
sg76
(lp921
S':'
asbag69
(g90
g71
NtRp922
(dp923
g74
(dp924
sg83
g909
sg76
(lp925
g69
(g70
g71
NtRp926
(dp927
g74
(dp928
g82
I4
ssg83
g922
sg76
(lp929
g69
(g78
g71
NtRp930
(dp931
g74
(dp932
g82
I3
ssg83
Nsg76
(lp933
g69
(g85
g71
NtRp934
(dp935
g74
(dp936
sg83
g930
sg76
(lp937
g69
(g90
g71
NtRp938
(dp939
g74
(dp940
sg83
g934
sg76
(lp941
g69
(g70
g71
NtRp942
(dp943
g74
(dp944
g82
I3
ssg83
g938
sg76
(lp945
S'1'
asbasbasbag69
(g85
g71
NtRp946
(dp947
g74
(dp948
sg83
g930
sg76
(lp949
g69
(g90
g71
NtRp950
(dp951
g74
(dp952
sg83
g946
sg76
(lp953
g69
(g70
g71
NtRp954
(dp955
g74
(dp956
g82
I3
ssg83
g950
sg76
(lp957
S'99'
p958
asbasbasbag69
(g85
g71
NtRp959
(dp960
g74
(dp961
sg83
g930
sg76
(lp962
g69
(g90
g71
NtRp963
(dp964
g74
(dp965
sg83
g959
sg76
(lp966
g69
(g70
g71
NtRp967
(dp968
g74
(dp969
g82
I3
ssg83
g963
sg76
(lp970
S'7'
asbasbasbag69
(g85
g71
NtRp971
(dp972
g74
(dp973
sg83
g930
sg76
(lp974
g69
(g90
g71
NtRp975
(dp976
g74
(dp977
sg83
g971
sg76
(lp978
g69
(g70
g71
NtRp979
(dp980
g74
(dp981
g82
I3
ssg83
g975
sg76
(lp982
S'datetime.datetime(2012, 3, 4, 22, 12, 8)'
p983
asbasbasbag69
(g85
g71
NtRp984
(dp985
g74
(dp986
sg83
g930
sg76
(lp987
g69
(g90
g71
NtRp988
(dp989
g74
(dp990
sg83
g984
sg76
(lp991
g69
(g70
g71
NtRp992
(dp993
g74
(dp994
g82
I3
ssg83
g988
sg76
(lp995
S'stable'
p996
asbasbasbasbasbasbasbag69
(g85
g71
NtRp997
(dp998
g74
(dp999
sg83
g271
sg76
(lp1000
g69
(g90
g71
NtRp1001
(dp1002
g74
(dp1003
g94
g95
ssg83
g997
sg76
(lp1004
S'wsgi_errors'
p1005
asbag69
(g90
g71
NtRp1006
(dp1007
g74
(dp1008
g101
g102
ssg83
g997
sg76
(lp1009
S':'
asbag69
(g90
g71
NtRp1010
(dp1011
g74
(dp1012
sg83
g997
sg76
(lp1013
g69
(g70
g71
NtRp1014
(dp1015
g74
(dp1016
g82
I4
ssg83
g1010
sg76
(lp1017
S"<open file '<stderr>', mode 'w' at 0xb78940d0>"
p1018
asbasbasbag69
(g85
g71
NtRp1019
(dp1020
g74
(dp1021
sg83
g271
sg76
(lp1022
g69
(g90
g71
NtRp1023
(dp1024
g74
(dp1025
g94
g95
ssg83
g1019
sg76
(lp1026
S'wsgi_file_wrapper'
p1027
asbag69
(g90
g71
NtRp1028
(dp1029
g74
(dp1030
g101
g102
ssg83
g1019
sg76
(lp1031
S':'
asbag69
(g90
g71
NtRp1032
(dp1033
g74
(dp1034
sg83
g1019
sg76
(lp1035
g69
(g70
g71
NtRp1036
(dp1037
g74
(dp1038
g82
I4
ssg83
g1032
sg76
(lp1039
S'<class wsgiref.util.FileWrapper at 0xa579e3c>'
p1040
asbasbasbag69
(g85
g71
NtRp1041
(dp1042
g74
(dp1043
sg83
g271
sg76
(lp1044
g69
(g90
g71
NtRp1045
(dp1046
g74
(dp1047
g94
g95
ssg83
g1041
sg76
(lp1048
S'wsgi_input'
p1049
asbag69
(g90
g71
NtRp1050
(dp1051
g74
(dp1052
g101
g102
ssg83
g1041
sg76
(lp1053
S':'
asbag69
(g90
g71
NtRp1054
(dp1055
g74
(dp1056
sg83
g1041
sg76
(lp1057
g69
(g70
g71
NtRp1058
(dp1059
g74
(dp1060
g82
I4
ssg83
g1054
sg76
(lp1061
S'<socket._fileobject object at 0xa59946c>'
p1062
asbasbasbag69
(g85
g71
NtRp1063
(dp1064
g74
(dp1065
sg83
g271
sg76
(lp1066
g69
(g90
g71
NtRp1067
(dp1068
g74
(dp1069
g94
g95
ssg83
g1063
sg76
(lp1070
S'wsgi_multiprocess'
p1071
asbag69
(g90
g71
NtRp1072
(dp1073
g74
(dp1074
g101
g102
ssg83
g1063
sg76
(lp1075
S':'
asbag69
(g90
g71
NtRp1076
(dp1077
g74
(dp1078
sg83
g1063
sg76
(lp1079
g69
(g70
g71
NtRp1080
(dp1081
g74
(dp1082
g82
I4
ssg83
g1076
sg76
(lp1083
g112
asbasbasbag69
(g85
g71
NtRp1084
(dp1085
g74
(dp1086
sg83
g271
sg76
(lp1087
g69
(g90
g71
NtRp1088
(dp1089
g74
(dp1090
g94
g95
ssg83
g1084
sg76
(lp1091
S'wsgi_multithread'
p1092
asbag69
(g90
g71
NtRp1093
(dp1094
g74
(dp1095
g101
g102
ssg83
g1084
sg76
(lp1096
S':'
asbag69
(g90
g71
NtRp1097
(dp1098
g74
(dp1099
sg83
g1084
sg76
(lp1100
g69
(g70
g71
NtRp1101
(dp1102
g74
(dp1103
g82
I4
ssg83
g1097
sg76
(lp1104
S'True'
p1105
asbasbasbag69
(g85
g71
NtRp1106
(dp1107
g74
(dp1108
sg83
g271
sg76
(lp1109
g69
(g90
g71
NtRp1110
(dp1111
g74
(dp1112
g94
g95
ssg83
g1106
sg76
(lp1113
S'wsgi_run_once'
p1114
asbag69
(g90
g71
NtRp1115
(dp1116
g74
(dp1117
g101
g102
ssg83
g1106
sg76
(lp1118
S':'
asbag69
(g90
g71
NtRp1119
(dp1120
g74
(dp1121
sg83
g1106
sg76
(lp1122
g69
(g70
g71
NtRp1123
(dp1124
g74
(dp1125
g82
I4
ssg83
g1119
sg76
(lp1126
g112
asbasbasbag69
(g85
g71
NtRp1127
(dp1128
g74
(dp1129
sg83
g271
sg76
(lp1130
g69
(g90
g71
NtRp1131
(dp1132
g74
(dp1133
g94
g95
ssg83
g1127
sg76
(lp1134
S'wsgi_url_scheme'
p1135
asbag69
(g90
g71
NtRp1136
(dp1137
g74
(dp1138
g101
g102
ssg83
g1127
sg76
(lp1139
S':'
asbag69
(g90
g71
NtRp1140
(dp1141
g74
(dp1142
sg83
g1127
sg76
(lp1143
g69
(g70
g71
NtRp1144
(dp1145
g74
(dp1146
g82
I4
ssg83
g1140
sg76
(lp1147
S'http'
p1148
asbasbasbag69
(g85
g71
NtRp1149
(dp1150
g74
(dp1151
sg83
g271
sg76
(lp1152
g69
(g90
g71
NtRp1153
(dp1154
g74
(dp1155
g94
g95
ssg83
g1149
sg76
(lp1156
S'wsgi_version'
p1157
asbag69
(g90
g71
NtRp1158
(dp1159
g74
(dp1160
g101
g102
ssg83
g1149
sg76
(lp1161
S':'
asbag69
(g90
g71
NtRp1162
(dp1163
g74
(dp1164
sg83
g1149
sg76
(lp1165
g69
(g70
g71
NtRp1166
(dp1167
g74
(dp1168
g82
I4
ssg83
g1162
sg76
(lp1169
g69
(g78
g71
NtRp1170
(dp1171
g74
(dp1172
g82
I3
ssg83
Nsg76
(lp1173
g69
(g85
g71
NtRp1174
(dp1175
g74
(dp1176
sg83
g1170
sg76
(lp1177
g69
(g90
g71
NtRp1178
(dp1179
g74
(dp1180
sg83
g1174
sg76
(lp1181
g69
(g70
g71
NtRp1182
(dp1183
g74
(dp1184
g82
I3
ssg83
g1178
sg76
(lp1185
S'1'
asbasbasbag69
(g85
g71
NtRp1186
(dp1187
g74
(dp1188
sg83
g1170
sg76
(lp1189
g69
(g90
g71
NtRp1190
(dp1191
g74
(dp1192
sg83
g1186
sg76
(lp1193
g69
(g70
g71
NtRp1194
(dp1195
g74
(dp1196
g82
I3
ssg83
g1190
sg76
(lp1197
S'0'
asbasbasbasbasbasbasbasbasbasbasbag69
(g85
g71
NtRp1198
(dp1199
g74
(dp1200
sg83
g79
sg76
(lp1201
g69
(g90
g71
NtRp1202
(dp1203
g74
(dp1204
g94
g95
ssg83
g1198
sg76
(lp1205
S'extension'
p1206
asbag69
(g90
g71
NtRp1207
(dp1208
g74
(dp1209
g101
g102
ssg83
g1198
sg76
(lp1210
S':'
asbag69
(g90
g71
NtRp1211
(dp1212
g74
(dp1213
sg83
g1198
sg76
(lp1214
g69
(g70
g71
NtRp1215
(dp1216
g74
(dp1217
g82
I5
ssg83
g1211
sg76
(lp1218
S'html'
p1219
asbasbasbag69
(g85
g71
NtRp1220
(dp1221
g74
(dp1222
sg83
g79
sg76
(lp1223
g69
(g90
g71
NtRp1224
(dp1225
g74
(dp1226
g94
g95
ssg83
g1220
sg76
(lp1227
S'folder'
p1228
asbag69
(g90
g71
NtRp1229
(dp1230
g74
(dp1231
g101
g102
ssg83
g1220
sg76
(lp1232
S':'
asbag69
(g90
g71
NtRp1233
(dp1234
g74
(dp1235
sg83
g1220
sg76
(lp1236
g69
(g70
g71
NtRp1237
(dp1238
g74
(dp1239
g82
I5
ssg83
g1233
sg76
(lp1240
S'/home/kaique/Projects/web/big-votes/web2py/applications/bigvotes/'
p1241
asbasbasbag69
(g85
g71
NtRp1242
(dp1243
g74
(dp1244
sg83
g79
sg76
(lp1245
g69
(g90
g71
NtRp1246
(dp1247
g74
(dp1248
g94
g95
ssg83
g1242
sg76
(lp1249
S'function'
p1250
asbag69
(g90
g71
NtRp1251
(dp1252
g74
(dp1253
g101
g102
ssg83
g1242
sg76
(lp1254
S':'
asbag69
(g90
g71
NtRp1255
(dp1256
g74
(dp1257
sg83
g1242
sg76
(lp1258
g69
(g70
g71
NtRp1259
(dp1260
g74
(dp1261
g82
I5
ssg83
g1255
sg76
(lp1262
S'index'
p1263
asbasbasbag69
(g85
g71
NtRp1264
(dp1265
g74
(dp1266
sg83
g79
sg76
(lp1267
g69
(g90
g71
NtRp1268
(dp1269
g74
(dp1270
g94
g95
ssg83
g1264
sg76
(lp1271
S'get_vars'
p1272
asbag69
(g90
g71
NtRp1273
(dp1274
g74
(dp1275
g101
g102
ssg83
g1264
sg76
(lp1276
S':'
asbag69
(g90
g71
NtRp1277
(dp1278
g74
(dp1279
sg83
g1264
sg76
(lp1280
g69
(g70
g71
NtRp1281
(dp1282
g74
(dp1283
g82
I5
ssg83
g1277
sg76
(lp1284
g69
(g78
g71
NtRp1285
(dp1286
g74
(dp1287
g82
I4
ssg83
Nsg76
(lp1288
sbasbasbasbag69
(g85
g71
NtRp1289
(dp1290
g74
(dp1291
sg83
g79
sg76
(lp1292
g69
(g90
g71
NtRp1293
(dp1294
g74
(dp1295
g94
g95
ssg83
g1289
sg76
(lp1296
S'global_settings'
p1297
asbag69
(g90
g71
NtRp1298
(dp1299
g74
(dp1300
g101
g102
ssg83
g1289
sg76
(lp1301
S':'
asbag69
(g90
g71
NtRp1302
(dp1303
g74
(dp1304
sg83
g1289
sg76
(lp1305
g69
(g70
g71
NtRp1306
(dp1307
g74
(dp1308
g82
I5
ssg83
g1302
sg76
(lp1309
g69
(g78
g71
NtRp1310
(dp1311
g74
(dp1312
g82
I4
ssg83
Nsg76
(lp1313
g69
(g85
g71
NtRp1314
(dp1315
g74
(dp1316
sg83
g1310
sg76
(lp1317
g69
(g90
g71
NtRp1318
(dp1319
g74
(dp1320
g94
g95
ssg83
g1314
sg76
(lp1321
g283
asbag69
(g90
g71
NtRp1322
(dp1323
g74
(dp1324
g101
g102
ssg83
g1314
sg76
(lp1325
S':'
asbag69
(g90
g71
NtRp1326
(dp1327
g74
(dp1328
sg83
g1314
sg76
(lp1329
g69
(g70
g71
NtRp1330
(dp1331
g74
(dp1332
g82
I4
ssg83
g1326
sg76
(lp1333
S"set(['/home/kaique/Projects/web/big-votes/web2py/applications/welcome/', '/home/kaique/Projects/web/big-votes/web2py/applications/bigvotes/'])"
p1334
asbasbasbag69
(g85
g71
NtRp1335
(dp1336
g74
(dp1337
sg83
g1310
sg76
(lp1338
g69
(g90
g71
NtRp1339
(dp1340
g74
(dp1341
g94
g95
ssg83
g1335
sg76
(lp1342
g305
asbag69
(g90
g71
NtRp1343
(dp1344
g74
(dp1345
g101
g102
ssg83
g1335
sg76
(lp1346
S':'
asbag69
(g90
g71
NtRp1347
(dp1348
g74
(dp1349
sg83
g1335
sg76
(lp1350
g69
(g70
g71
NtRp1351
(dp1352
g74
(dp1353
g82
I4
ssg83
g1347
sg76
(lp1354
g318
asbasbasbag69
(g85
g71
NtRp1355
(dp1356
g74
(dp1357
sg83
g1310
sg76
(lp1358
g69
(g90
g71
NtRp1359
(dp1360
g74
(dp1361
g94
g95
ssg83
g1355
sg76
(lp1362
g327
asbag69
(g90
g71
NtRp1363
(dp1364
g74
(dp1365
g101
g102
ssg83
g1355
sg76
(lp1366
S':'
asbag69
(g90
g71
NtRp1367
(dp1368
g74
(dp1369
sg83
g1355
sg76
(lp1370
g69
(g70
g71
NtRp1371
(dp1372
g74
(dp1373
g82
I4
ssg83
g1367
sg76
(lp1374
g69
(g78
g71
NtRp1375
(dp1376
g74
(dp1377
g82
I3
ssg83
Nsg76
(lp1378
sbasbasbasbag69
(g85
g71
NtRp1379
(dp1380
g74
(dp1381
sg83
g1310
sg76
(lp1382
g69
(g90
g71
NtRp1383
(dp1384
g74
(dp1385
g94
g95
ssg83
g1379
sg76
(lp1386
g352
asbag69
(g90
g71
NtRp1387
(dp1388
g74
(dp1389
g101
g102
ssg83
g1379
sg76
(lp1390
S':'
asbag69
(g90
g71
NtRp1391
(dp1392
g74
(dp1393
sg83
g1379
sg76
(lp1394
g69
(g70
g71
NtRp1395
(dp1396
g74
(dp1397
g82
I4
ssg83
g1391
sg76
(lp1398
S"<Values at 0xa5a280c: {'verbose': False, 'ip': '127.0.0.1', 'shutdown_timeout': 5, 'taskbar': False, 'nocron': False, 'pid_filename': 'httpserver.pid', 'maxthreads': None, 'softcron': False, 'server_name': 'main', 'bpython': False, 'nogui': False, 'port': 8000, 'extcron': False, 'debuglevel': 30, 'test': None, 'folder': '/home/kaique/Projects/web/big-votes/web2py', 'config': '', 'import_models': False, 'winservice': '', 'shell': None, 'run': '', 'log_filename': 'httpserver.log', 'args': [''], 'socket_timeout': 5, 'ssl_ca_certificate': None, 'scheduler': None, 'profiler_filename': None, 'ssl_private_key': '', 'password': 'dev', 'request_queue_size': 5, 'ssl_certificate': '', 'cronjob': False, 'numthreads': None, 'quiet': False, 'interfaces': None, 'minthreads': None, 'timeout': 10, 'plain': False, 'nobanner': False}>"
p1399
asbasbasbag69
(g85
g71
NtRp1400
(dp1401
g74
(dp1402
sg83
g1310
sg76
(lp1403
g69
(g90
g71
NtRp1404
(dp1405
g74
(dp1406
g94
g95
ssg83
g1400
sg76
(lp1407
g374
asbag69
(g90
g71
NtRp1408
(dp1409
g74
(dp1410
g101
g102
ssg83
g1400
sg76
(lp1411
S':'
asbag69
(g90
g71
NtRp1412
(dp1413
g74
(dp1414
sg83
g1400
sg76
(lp1415
g69
(g70
g71
NtRp1416
(dp1417
g74
(dp1418
g82
I4
ssg83
g1412
sg76
(lp1419
S'set([])'
p1420
asbasbasbag69
(g85
g71
NtRp1421
(dp1422
g74
(dp1423
sg83
g1310
sg76
(lp1424
g69
(g90
g71
NtRp1425
(dp1426
g74
(dp1427
g94
g95
ssg83
g1421
sg76
(lp1428
g396
asbag69
(g90
g71
NtRp1429
(dp1430
g74
(dp1431
g101
g102
ssg83
g1421
sg76
(lp1432
S':'
asbag69
(g90
g71
NtRp1433
(dp1434
g74
(dp1435
sg83
g1421
sg76
(lp1436
g69
(g70
g71
NtRp1437
(dp1438
g74
(dp1439
g82
I4
ssg83
g1433
sg76
(lp1440
g112
asbasbasbag69
(g85
g71
NtRp1441
(dp1442
g74
(dp1443
sg83
g1310
sg76
(lp1444
g69
(g90
g71
NtRp1445
(dp1446
g74
(dp1447
g94
g95
ssg83
g1441
sg76
(lp1448
g417
asbag69
(g90
g71
NtRp1449
(dp1450
g74
(dp1451
g101
g102
ssg83
g1441
sg76
(lp1452
S':'
asbag69
(g90
g71
NtRp1453
(dp1454
g74
(dp1455
sg83
g1441
sg76
(lp1456
g69
(g70
g71
NtRp1457
(dp1458
g74
(dp1459
g82
I4
ssg83
g1453
sg76
(lp1460
g430
asbasbasbag69
(g85
g71
NtRp1461
(dp1462
g74
(dp1463
sg83
g1310
sg76
(lp1464
g69
(g90
g71
NtRp1465
(dp1466
g74
(dp1467
g94
g95
ssg83
g1461
sg76
(lp1468
g615
asbag69
(g90
g71
NtRp1469
(dp1470
g74
(dp1471
g101
g102
ssg83
g1461
sg76
(lp1472
S':'
asbag69
(g90
g71
NtRp1473
(dp1474
g74
(dp1475
sg83
g1461
sg76
(lp1476
g69
(g70
g71
NtRp1477
(dp1478
g74
(dp1479
g82
I4
ssg83
g1473
sg76
(lp1480
g112
asbasbasbag69
(g85
g71
NtRp1481
(dp1482
g74
(dp1483
sg83
g1310
sg76
(lp1484
g69
(g90
g71
NtRp1485
(dp1486
g74
(dp1487
g94
g95
ssg83
g1481
sg76
(lp1488
g636
asbag69
(g90
g71
NtRp1489
(dp1490
g74
(dp1491
g101
g102
ssg83
g1481
sg76
(lp1492
S':'
asbag69
(g90
g71
NtRp1493
(dp1494
g74
(dp1495
sg83
g1481
sg76
(lp1496
g69
(g70
g71
NtRp1497
(dp1498
g74
(dp1499
g82
I4
ssg83
g1493
sg76
(lp1500
g112
asbasbasbag69
(g85
g71
NtRp1501
(dp1502
g74
(dp1503
sg83
g1310
sg76
(lp1504
g69
(g90
g71
NtRp1505
(dp1506
g74
(dp1507
g94
g95
ssg83
g1501
sg76
(lp1508
g874
asbag69
(g90
g71
NtRp1509
(dp1510
g74
(dp1511
g101
g102
ssg83
g1501
sg76
(lp1512
S':'
asbag69
(g90
g71
NtRp1513
(dp1514
g74
(dp1515
sg83
g1501
sg76
(lp1516
g69
(g70
g71
NtRp1517
(dp1518
g74
(dp1519
g82
I4
ssg83
g1513
sg76
(lp1520
g887
asbasbasbag69
(g85
g71
NtRp1521
(dp1522
g74
(dp1523
sg83
g1310
sg76
(lp1524
g69
(g90
g71
NtRp1525
(dp1526
g74
(dp1527
g94
g95
ssg83
g1521
sg76
(lp1528
g917
asbag69
(g90
g71
NtRp1529
(dp1530
g74
(dp1531
g101
g102
ssg83
g1521
sg76
(lp1532
S':'
asbag69
(g90
g71
NtRp1533
(dp1534
g74
(dp1535
sg83
g1521
sg76
(lp1536
g69
(g70
g71
NtRp1537
(dp1538
g74
(dp1539
g82
I4
ssg83
g1533
sg76
(lp1540
g69
(g78
g71
NtRp1541
(dp1542
g74
(dp1543
g82
I3
ssg83
Nsg76
(lp1544
g69
(g85
g71
NtRp1545
(dp1546
g74
(dp1547
sg83
g1541
sg76
(lp1548
g69
(g90
g71
NtRp1549
(dp1550
g74
(dp1551
sg83
g1545
sg76
(lp1552
g69
(g70
g71
NtRp1553
(dp1554
g74
(dp1555
g82
I3
ssg83
g1549
sg76
(lp1556
S'1'
asbasbasbag69
(g85
g71
NtRp1557
(dp1558
g74
(dp1559
sg83
g1541
sg76
(lp1560
g69
(g90
g71
NtRp1561
(dp1562
g74
(dp1563
sg83
g1557
sg76
(lp1564
g69
(g70
g71
NtRp1565
(dp1566
g74
(dp1567
g82
I3
ssg83
g1561
sg76
(lp1568
S'99'
p1569
asbasbasbag69
(g85
g71
NtRp1570
(dp1571
g74
(dp1572
sg83
g1541
sg76
(lp1573
g69
(g90
g71
NtRp1574
(dp1575
g74
(dp1576
sg83
g1570
sg76
(lp1577
g69
(g70
g71
NtRp1578
(dp1579
g74
(dp1580
g82
I3
ssg83
g1574
sg76
(lp1581
S'7'
asbasbasbag69
(g85
g71
NtRp1582
(dp1583
g74
(dp1584
sg83
g1541
sg76
(lp1585
g69
(g90
g71
NtRp1586
(dp1587
g74
(dp1588
sg83
g1582
sg76
(lp1589
g69
(g70
g71
NtRp1590
(dp1591
g74
(dp1592
g82
I3
ssg83
g1586
sg76
(lp1593
S'datetime.datetime(2012, 3, 4, 22, 12, 8)'
p1594
asbasbasbag69
(g85
g71
NtRp1595
(dp1596
g74
(dp1597
sg83
g1541
sg76
(lp1598
g69
(g90
g71
NtRp1599
(dp1600
g74
(dp1601
sg83
g1595
sg76
(lp1602
g69
(g70
g71
NtRp1603
(dp1604
g74
(dp1605
g82
I3
ssg83
g1599
sg76
(lp1606
g996
asbasbasbasbasbasbasbasbasbasbasbag69
(g85
g71
NtRp1607
(dp1608
g74
(dp1609
sg83
g79
sg76
(lp1610
g69
(g90
g71
NtRp1611
(dp1612
g74
(dp1613
g94
g95
ssg83
g1607
sg76
(lp1614
S'is_https'
p1615
asbag69
(g90
g71
NtRp1616
(dp1617
g74
(dp1618
g101
g102
ssg83
g1607
sg76
(lp1619
S':'
asbag69
(g90
g71
NtRp1620
(dp1621
g74
(dp1622
sg83
g1607
sg76
(lp1623
g69
(g70
g71
NtRp1624
(dp1625
g74
(dp1626
g82
I5
ssg83
g1620
sg76
(lp1627
g112
asbasbasbag69
(g85
g71
NtRp1628
(dp1629
g74
(dp1630
sg83
g79
sg76
(lp1631
g69
(g90
g71
NtRp1632
(dp1633
g74
(dp1634
g94
g95
ssg83
g1628
sg76
(lp1635
S'is_local'
p1636
asbag69
(g90
g71
NtRp1637
(dp1638
g74
(dp1639
g101
g102
ssg83
g1628
sg76
(lp1640
S':'
asbag69
(g90
g71
NtRp1641
(dp1642
g74
(dp1643
sg83
g1628
sg76
(lp1644
g69
(g70
g71
NtRp1645
(dp1646
g74
(dp1647
g82
I5
ssg83
g1641
sg76
(lp1648
g1105
asbasbasbag69
(g85
g71
NtRp1649
(dp1650
g74
(dp1651
sg83
g79
sg76
(lp1652
g69
(g90
g71
NtRp1653
(dp1654
g74
(dp1655
g94
g95
ssg83
g1649
sg76
(lp1656
S'is_restful'
p1657
asbag69
(g90
g71
NtRp1658
(dp1659
g74
(dp1660
g101
g102
ssg83
g1649
sg76
(lp1661
S':'
asbag69
(g90
g71
NtRp1662
(dp1663
g74
(dp1664
sg83
g1649
sg76
(lp1665
g69
(g70
g71
NtRp1666
(dp1667
g74
(dp1668
g82
I5
ssg83
g1662
sg76
(lp1669
g112
asbasbasbag69
(g85
g71
NtRp1670
(dp1671
g74
(dp1672
sg83
g79
sg76
(lp1673
g69
(g90
g71
NtRp1674
(dp1675
g74
(dp1676
g94
g95
ssg83
g1670
sg76
(lp1677
S'now'
p1678
asbag69
(g90
g71
NtRp1679
(dp1680
g74
(dp1681
g101
g102
ssg83
g1670
sg76
(lp1682
S':'
asbag69
(g90
g71
NtRp1683
(dp1684
g74
(dp1685
sg83
g1670
sg76
(lp1686
g69
(g70
g71
NtRp1687
(dp1688
g74
(dp1689
g82
I5
ssg83
g1683
sg76
(lp1690
S'datetime.datetime(2012, 5, 18, 14, 0, 52, 799096)'
p1691
asbasbasbag69
(g85
g71
NtRp1692
(dp1693
g74
(dp1694
sg83
g79
sg76
(lp1695
g69
(g90
g71
NtRp1696
(dp1697
g74
(dp1698
g94
g95
ssg83
g1692
sg76
(lp1699
S'post_vars'
p1700
asbag69
(g90
g71
NtRp1701
(dp1702
g74
(dp1703
g101
g102
ssg83
g1692
sg76
(lp1704
S':'
asbag69
(g90
g71
NtRp1705
(dp1706
g74
(dp1707
sg83
g1692
sg76
(lp1708
g69
(g70
g71
NtRp1709
(dp1710
g74
(dp1711
g82
I5
ssg83
g1705
sg76
(lp1712
g69
(g78
g71
NtRp1713
(dp1714
g74
(dp1715
g82
I4
ssg83
Nsg76
(lp1716
sbasbasbasbag69
(g85
g71
NtRp1717
(dp1718
g74
(dp1719
sg83
g79
sg76
(lp1720
g69
(g90
g71
NtRp1721
(dp1722
g74
(dp1723
g94
g95
ssg83
g1717
sg76
(lp1724
S'url'
p1725
asbag69
(g90
g71
NtRp1726
(dp1727
g74
(dp1728
g101
g102
ssg83
g1717
sg76
(lp1729
S':'
asbag69
(g90
g71
NtRp1730
(dp1731
g74
(dp1732
sg83
g1717
sg76
(lp1733
g69
(g70
g71
NtRp1734
(dp1735
g74
(dp1736
g82
I5
ssg83
g1730
sg76
(lp1737
S'/bigvotes/default/index'
p1738
asbasbasbag69
(g85
g71
NtRp1739
(dp1740
g74
(dp1741
sg83
g79
sg76
(lp1742
g69
(g90
g71
NtRp1743
(dp1744
g74
(dp1745
g94
g95
ssg83
g1739
sg76
(lp1746
S'utcnow'
p1747
asbag69
(g90
g71
NtRp1748
(dp1749
g74
(dp1750
g101
g102
ssg83
g1739
sg76
(lp1751
S':'
asbag69
(g90
g71
NtRp1752
(dp1753
g74
(dp1754
sg83
g1739
sg76
(lp1755
g69
(g70
g71
NtRp1756
(dp1757
g74
(dp1758
g82
I5
ssg83
g1752
sg76
(lp1759
S'datetime.datetime(2012, 5, 18, 17, 0, 52, 799131)'
p1760
asbasbasbag69
(g85
g71
NtRp1761
(dp1762
g74
(dp1763
sg83
g79
sg76
(lp1764
g69
(g90
g71
NtRp1765
(dp1766
g74
(dp1767
g94
g95
ssg83
g1761
sg76
(lp1768
S'uuid'
p1769
asbag69
(g90
g71
NtRp1770
(dp1771
g74
(dp1772
g101
g102
ssg83
g1761
sg76
(lp1773
S':'
asbag69
(g90
g71
NtRp1774
(dp1775
g74
(dp1776
sg83
g1761
sg76
(lp1777
g69
(g70
g71
NtRp1778
(dp1779
g74
(dp1780
g82
I5
ssg83
g1774
sg76
(lp1781
S'bigvotes/127.0.0.1.2012-05-18.14-00-52.29f37f63-1e8d-4a18-9723-8631e57e57b8'
p1782
asbasbasbag69
(g85
g71
NtRp1783
(dp1784
g74
(dp1785
sg83
g79
sg76
(lp1786
g69
(g90
g71
NtRp1787
(dp1788
g74
(dp1789
g94
g95
ssg83
g1783
sg76
(lp1790
S'vars'
p1791
asbag69
(g90
g71
NtRp1792
(dp1793
g74
(dp1794
g101
g102
ssg83
g1783
sg76
(lp1795
S':'
asbag69
(g90
g71
NtRp1796
(dp1797
g74
(dp1798
sg83
g1783
sg76
(lp1799
g69
(g70
g71
NtRp1800
(dp1801
g74
(dp1802
g82
I5
ssg83
g1796
sg76
(lp1803
g69
(g78
g71
NtRp1804
(dp1805
g74
(dp1806
g82
I4
ssg83
Nsg76
(lp1807
sbasbasbasbag69
(g85
g71
NtRp1808
(dp1809
g74
(dp1810
sg83
g79
sg76
(lp1811
g69
(g90
g71
NtRp1812
(dp1813
g74
(dp1814
g94
g95
ssg83
g1808
sg76
(lp1815
S'wsgi'
p1816
asbag69
(g90
g71
NtRp1817
(dp1818
g74
(dp1819
g101
g102
ssg83
g1808
sg76
(lp1820
S':'
asbag69
(g90
g71
NtRp1821
(dp1822
g74
(dp1823
sg83
g1808
sg76
(lp1824
g69
(g70
g71
NtRp1825
(dp1826
g74
(dp1827
g82
I5
ssg83
g1821
sg76
(lp1828
g69
(g78
g71
NtRp1829
(dp1830
g74
(dp1831
g82
I4
ssg83
Nsg76
(lp1832
g69
(g85
g71
NtRp1833
(dp1834
g74
(dp1835
sg83
g1829
sg76
(lp1836
g69
(g90
g71
NtRp1837
(dp1838
g74
(dp1839
g94
g95
ssg83
g1833
sg76
(lp1840
S'environ'
p1841
asbag69
(g90
g71
NtRp1842
(dp1843
g74
(dp1844
g101
g102
ssg83
g1833
sg76
(lp1845
S':'
asbag69
(g90
g71
NtRp1846
(dp1847
g74
(dp1848
sg83
g1833
sg76
(lp1849
g69
(g70
g71
NtRp1850
(dp1851
g74
(dp1852
g82
I4
ssg83
g1846
sg76
(lp1853
g69
(g78
g71
NtRp1854
(dp1855
g74
(dp1856
g82
I3
ssg83
Nsg76
(lp1857
g69
(g85
g71
NtRp1858
(dp1859
g74
(dp1860
sg83
g1854
sg76
(lp1861
g69
(g90
g71
NtRp1862
(dp1863
g74
(dp1864
g94
g95
ssg83
g1858
sg76
(lp1865
S'HTTP_ACCEPT'
p1866
asbag69
(g90
g71
NtRp1867
(dp1868
g74
(dp1869
g101
g102
ssg83
g1858
sg76
(lp1870
S':'
asbag69
(g90
g71
NtRp1871
(dp1872
g74
(dp1873
sg83
g1858
sg76
(lp1874
g69
(g70
g71
NtRp1875
(dp1876
g74
(dp1877
g82
I3
ssg83
g1871
sg76
(lp1878
g452
asbasbasbag69
(g85
g71
NtRp1879
(dp1880
g74
(dp1881
sg83
g1854
sg76
(lp1882
g69
(g90
g71
NtRp1883
(dp1884
g74
(dp1885
g94
g95
ssg83
g1879
sg76
(lp1886
S'HTTP_ACCEPT_ENCODING'
p1887
asbag69
(g90
g71
NtRp1888
(dp1889
g74
(dp1890
g101
g102
ssg83
g1879
sg76
(lp1891
S':'
asbag69
(g90
g71
NtRp1892
(dp1893
g74
(dp1894
sg83
g1879
sg76
(lp1895
g69
(g70
g71
NtRp1896
(dp1897
g74
(dp1898
g82
I3
ssg83
g1892
sg76
(lp1899
g474
asbasbasbag69
(g85
g71
NtRp1900
(dp1901
g74
(dp1902
sg83
g1854
sg76
(lp1903
g69
(g90
g71
NtRp1904
(dp1905
g74
(dp1906
g94
g95
ssg83
g1900
sg76
(lp1907
S'HTTP_ACCEPT_LANGUAGE'
p1908
asbag69
(g90
g71
NtRp1909
(dp1910
g74
(dp1911
g101
g102
ssg83
g1900
sg76
(lp1912
S':'
asbag69
(g90
g71
NtRp1913
(dp1914
g74
(dp1915
sg83
g1900
sg76
(lp1916
g69
(g70
g71
NtRp1917
(dp1918
g74
(dp1919
g82
I3
ssg83
g1913
sg76
(lp1920
g496
asbasbasbag69
(g85
g71
NtRp1921
(dp1922
g74
(dp1923
sg83
g1854
sg76
(lp1924
g69
(g90
g71
NtRp1925
(dp1926
g74
(dp1927
g94
g95
ssg83
g1921
sg76
(lp1928
S'HTTP_CONNECTION'
p1929
asbag69
(g90
g71
NtRp1930
(dp1931
g74
(dp1932
g101
g102
ssg83
g1921
sg76
(lp1933
S':'
asbag69
(g90
g71
NtRp1934
(dp1935
g74
(dp1936
sg83
g1921
sg76
(lp1937
g69
(g70
g71
NtRp1938
(dp1939
g74
(dp1940
g82
I3
ssg83
g1934
sg76
(lp1941
g518
asbasbasbag69
(g85
g71
NtRp1942
(dp1943
g74
(dp1944
sg83
g1854
sg76
(lp1945
g69
(g90
g71
NtRp1946
(dp1947
g74
(dp1948
g94
g95
ssg83
g1942
sg76
(lp1949
S'HTTP_COOKIE'
p1950
asbag69
(g90
g71
NtRp1951
(dp1952
g74
(dp1953
g101
g102
ssg83
g1942
sg76
(lp1954
S':'
asbag69
(g90
g71
NtRp1955
(dp1956
g74
(dp1957
sg83
g1942
sg76
(lp1958
g69
(g70
g71
NtRp1959
(dp1960
g74
(dp1961
g82
I3
ssg83
g1955
sg76
(lp1962
g540
asbasbasbag69
(g85
g71
NtRp1963
(dp1964
g74
(dp1965
sg83
g1854
sg76
(lp1966
g69
(g90
g71
NtRp1967
(dp1968
g74
(dp1969
g94
g95
ssg83
g1963
sg76
(lp1970
S'HTTP_HOST'
p1971
asbag69
(g90
g71
NtRp1972
(dp1973
g74
(dp1974
g101
g102
ssg83
g1963
sg76
(lp1975
S':'
asbag69
(g90
g71
NtRp1976
(dp1977
g74
(dp1978
sg83
g1963
sg76
(lp1979
g69
(g70
g71
NtRp1980
(dp1981
g74
(dp1982
g82
I3
ssg83
g1976
sg76
(lp1983
g562
asbasbasbag69
(g85
g71
NtRp1984
(dp1985
g74
(dp1986
sg83
g1854
sg76
(lp1987
g69
(g90
g71
NtRp1988
(dp1989
g74
(dp1990
g94
g95
ssg83
g1984
sg76
(lp1991
S'HTTP_REFERER'
p1992
asbag69
(g90
g71
NtRp1993
(dp1994
g74
(dp1995
g101
g102
ssg83
g1984
sg76
(lp1996
S':'
asbag69
(g90
g71
NtRp1997
(dp1998
g74
(dp1999
sg83
g1984
sg76
(lp2000
g69
(g70
g71
NtRp2001
(dp2002
g74
(dp2003
g82
I3
ssg83
g1997
sg76
(lp2004
g584
asbasbasbag69
(g85
g71
NtRp2005
(dp2006
g74
(dp2007
sg83
g1854
sg76
(lp2008
g69
(g90
g71
NtRp2009
(dp2010
g74
(dp2011
g94
g95
ssg83
g2005
sg76
(lp2012
S'HTTP_USER_AGENT'
p2013
asbag69
(g90
g71
NtRp2014
(dp2015
g74
(dp2016
g101
g102
ssg83
g2005
sg76
(lp2017
S':'
asbag69
(g90
g71
NtRp2018
(dp2019
g74
(dp2020
sg83
g2005
sg76
(lp2021
g69
(g70
g71
NtRp2022
(dp2023
g74
(dp2024
g82
I3
ssg83
g2018
sg76
(lp2025
g606
asbasbasbag69
(g85
g71
NtRp2026
(dp2027
g74
(dp2028
sg83
g1854
sg76
(lp2029
g69
(g90
g71
NtRp2030
(dp2031
g74
(dp2032
g94
g95
ssg83
g2026
sg76
(lp2033
S'PATH_INFO'
p2034
asbag69
(g90
g71
NtRp2035
(dp2036
g74
(dp2037
g101
g102
ssg83
g2026
sg76
(lp2038
S':'
asbag69
(g90
g71
NtRp2039
(dp2040
g74
(dp2041
sg83
g2026
sg76
(lp2042
g69
(g70
g71
NtRp2043
(dp2044
g74
(dp2045
g82
I3
ssg83
g2039
sg76
(lp2046
g670
asbasbasbag69
(g85
g71
NtRp2047
(dp2048
g74
(dp2049
sg83
g1854
sg76
(lp2050
g69
(g90
g71
NtRp2051
(dp2052
g74
(dp2053
g94
g95
ssg83
g2047
sg76
(lp2054
S'QUERY_STRING'
p2055
asbag69
(g90
g71
NtRp2056
(dp2057
g74
(dp2058
g101
g102
ssg83
g2047
sg76
(lp2059
S':'
asbag69
(g90
g71
NtRp2060
(dp2061
g74
(dp2062
sg83
g2047
sg76
(lp2063
g69
(g70
g71
NtRp2064
(dp2065
g74
(dp2066
g82
I3
ssg83
g2060
sg76
(lp2067
S''
asbasbasbag69
(g85
g71
NtRp2068
(dp2069
g74
(dp2070
sg83
g1854
sg76
(lp2071
g69
(g90
g71
NtRp2072
(dp2073
g74
(dp2074
g94
g95
ssg83
g2068
sg76
(lp2075
S'REMOTE_ADDR'
p2076
asbag69
(g90
g71
NtRp2077
(dp2078
g74
(dp2079
g101
g102
ssg83
g2068
sg76
(lp2080
S':'
asbag69
(g90
g71
NtRp2081
(dp2082
g74
(dp2083
sg83
g2068
sg76
(lp2084
g69
(g70
g71
NtRp2085
(dp2086
g74
(dp2087
g82
I3
ssg83
g2081
sg76
(lp2088
g202
asbasbasbag69
(g85
g71
NtRp2089
(dp2090
g74
(dp2091
sg83
g1854
sg76
(lp2092
g69
(g90
g71
NtRp2093
(dp2094
g74
(dp2095
g94
g95
ssg83
g2089
sg76
(lp2096
S'REMOTE_PORT'
p2097
asbag69
(g90
g71
NtRp2098
(dp2099
g74
(dp2100
g101
g102
ssg83
g2089
sg76
(lp2101
S':'
asbag69
(g90
g71
NtRp2102
(dp2103
g74
(dp2104
sg83
g2089
sg76
(lp2105
g69
(g70
g71
NtRp2106
(dp2107
g74
(dp2108
g82
I3
ssg83
g2102
sg76
(lp2109
g734
asbasbasbag69
(g85
g71
NtRp2110
(dp2111
g74
(dp2112
sg83
g1854
sg76
(lp2113
g69
(g90
g71
NtRp2114
(dp2115
g74
(dp2116
g94
g95
ssg83
g2110
sg76
(lp2117
S'REQUEST_METHOD'
p2118
asbag69
(g90
g71
NtRp2119
(dp2120
g74
(dp2121
g101
g102
ssg83
g2110
sg76
(lp2122
S':'
asbag69
(g90
g71
NtRp2123
(dp2124
g74
(dp2125
sg83
g2110
sg76
(lp2126
g69
(g70
g71
NtRp2127
(dp2128
g74
(dp2129
g82
I3
ssg83
g2123
sg76
(lp2130
g756
asbasbasbag69
(g85
g71
NtRp2131
(dp2132
g74
(dp2133
sg83
g1854
sg76
(lp2134
g69
(g90
g71
NtRp2135
(dp2136
g74
(dp2137
g94
g95
ssg83
g2131
sg76
(lp2138
S'SCRIPT_NAME'
p2139
asbag69
(g90
g71
NtRp2140
(dp2141
g74
(dp2142
g101
g102
ssg83
g2131
sg76
(lp2143
S':'
asbag69
(g90
g71
NtRp2144
(dp2145
g74
(dp2146
sg83
g2131
sg76
(lp2147
g69
(g70
g71
NtRp2148
(dp2149
g74
(dp2150
g82
I3
ssg83
g2144
sg76
(lp2151
S''
asbasbasbag69
(g85
g71
NtRp2152
(dp2153
g74
(dp2154
sg83
g1854
sg76
(lp2155
g69
(g90
g71
NtRp2156
(dp2157
g74
(dp2158
g94
g95
ssg83
g2152
sg76
(lp2159
S'SERVER_NAME'
p2160
asbag69
(g90
g71
NtRp2161
(dp2162
g74
(dp2163
g101
g102
ssg83
g2152
sg76
(lp2164
S':'
asbag69
(g90
g71
NtRp2165
(dp2166
g74
(dp2167
sg83
g2152
sg76
(lp2168
g69
(g70
g71
NtRp2169
(dp2170
g74
(dp2171
g82
I3
ssg83
g2165
sg76
(lp2172
g799
asbasbasbag69
(g85
g71
NtRp2173
(dp2174
g74
(dp2175
sg83
g1854
sg76
(lp2176
g69
(g90
g71
NtRp2177
(dp2178
g74
(dp2179
g94
g95
ssg83
g2173
sg76
(lp2180
S'SERVER_PORT'
p2181
asbag69
(g90
g71
NtRp2182
(dp2183
g74
(dp2184
g101
g102
ssg83
g2173
sg76
(lp2185
S':'
asbag69
(g90
g71
NtRp2186
(dp2187
g74
(dp2188
sg83
g2173
sg76
(lp2189
g69
(g70
g71
NtRp2190
(dp2191
g74
(dp2192
g82
I3
ssg83
g2186
sg76
(lp2193
g821
asbasbasbag69
(g85
g71
NtRp2194
(dp2195
g74
(dp2196
sg83
g1854
sg76
(lp2197
g69
(g90
g71
NtRp2198
(dp2199
g74
(dp2200
g94
g95
ssg83
g2194
sg76
(lp2201
S'SERVER_PROTOCOL'
p2202
asbag69
(g90
g71
NtRp2203
(dp2204
g74
(dp2205
g101
g102
ssg83
g2194
sg76
(lp2206
S':'
asbag69
(g90
g71
NtRp2207
(dp2208
g74
(dp2209
sg83
g2194
sg76
(lp2210
g69
(g70
g71
NtRp2211
(dp2212
g74
(dp2213
g82
I3
ssg83
g2207
sg76
(lp2214
g843
asbasbasbag69
(g85
g71
NtRp2215
(dp2216
g74
(dp2217
sg83
g1854
sg76
(lp2218
g69
(g90
g71
NtRp2219
(dp2220
g74
(dp2221
g94
g95
ssg83
g2215
sg76
(lp2222
S'SERVER_SOFTWARE'
p2223
asbag69
(g90
g71
NtRp2224
(dp2225
g74
(dp2226
g101
g102
ssg83
g2215
sg76
(lp2227
S':'
asbag69
(g90
g71
NtRp2228
(dp2229
g74
(dp2230
sg83
g2215
sg76
(lp2231
g69
(g70
g71
NtRp2232
(dp2233
g74
(dp2234
g82
I3
ssg83
g2228
sg76
(lp2235
g865
asbasbasbag69
(g85
g71
NtRp2236
(dp2237
g74
(dp2238
sg83
g1854
sg76
(lp2239
g69
(g90
g71
NtRp2240
(dp2241
g74
(dp2242
g94
g95
ssg83
g2236
sg76
(lp2243
S'wsgi.errors'
p2244
asbag69
(g90
g71
NtRp2245
(dp2246
g74
(dp2247
g101
g102
ssg83
g2236
sg76
(lp2248
S':'
asbag69
(g90
g71
NtRp2249
(dp2250
g74
(dp2251
sg83
g2236
sg76
(lp2252
g69
(g70
g71
NtRp2253
(dp2254
g74
(dp2255
g82
I3
ssg83
g2249
sg76
(lp2256
S"<open file '<stderr>', mode 'w' at 0xb78940d0>"
p2257
asbasbasbag69
(g85
g71
NtRp2258
(dp2259
g74
(dp2260
sg83
g1854
sg76
(lp2261
g69
(g90
g71
NtRp2262
(dp2263
g74
(dp2264
g94
g95
ssg83
g2258
sg76
(lp2265
S'wsgi.file_wrapper'
p2266
asbag69
(g90
g71
NtRp2267
(dp2268
g74
(dp2269
g101
g102
ssg83
g2258
sg76
(lp2270
S':'
asbag69
(g90
g71
NtRp2271
(dp2272
g74
(dp2273
sg83
g2258
sg76
(lp2274
g69
(g70
g71
NtRp2275
(dp2276
g74
(dp2277
g82
I3
ssg83
g2271
sg76
(lp2278
S'<class wsgiref.util.FileWrapper at 0xa579e3c>'
p2279
asbasbasbag69
(g85
g71
NtRp2280
(dp2281
g74
(dp2282
sg83
g1854
sg76
(lp2283
g69
(g90
g71
NtRp2284
(dp2285
g74
(dp2286
g94
g95
ssg83
g2280
sg76
(lp2287
S'wsgi.input'
p2288
asbag69
(g90
g71
NtRp2289
(dp2290
g74
(dp2291
g101
g102
ssg83
g2280
sg76
(lp2292
S':'
asbag69
(g90
g71
NtRp2293
(dp2294
g74
(dp2295
sg83
g2280
sg76
(lp2296
g69
(g70
g71
NtRp2297
(dp2298
g74
(dp2299
g82
I3
ssg83
g2293
sg76
(lp2300
S'<cStringIO.StringO object at 0xb0626d40>'
p2301
asbasbasbag69
(g85
g71
NtRp2302
(dp2303
g74
(dp2304
sg83
g1854
sg76
(lp2305
g69
(g90
g71
NtRp2306
(dp2307
g74
(dp2308
g94
g95
ssg83
g2302
sg76
(lp2309
S'wsgi.multiprocess'
p2310
asbag69
(g90
g71
NtRp2311
(dp2312
g74
(dp2313
g101
g102
ssg83
g2302
sg76
(lp2314
S':'
asbag69
(g90
g71
NtRp2315
(dp2316
g74
(dp2317
sg83
g2302
sg76
(lp2318
g69
(g70
g71
NtRp2319
(dp2320
g74
(dp2321
g82
I3
ssg83
g2315
sg76
(lp2322
g112
asbasbasbag69
(g85
g71
NtRp2323
(dp2324
g74
(dp2325
sg83
g1854
sg76
(lp2326
g69
(g90
g71
NtRp2327
(dp2328
g74
(dp2329
g94
g95
ssg83
g2323
sg76
(lp2330
S'wsgi.multithread'
p2331
asbag69
(g90
g71
NtRp2332
(dp2333
g74
(dp2334
g101
g102
ssg83
g2323
sg76
(lp2335
S':'
asbag69
(g90
g71
NtRp2336
(dp2337
g74
(dp2338
sg83
g2323
sg76
(lp2339
g69
(g70
g71
NtRp2340
(dp2341
g74
(dp2342
g82
I3
ssg83
g2336
sg76
(lp2343
g1105
asbasbasbag69
(g85
g71
NtRp2344
(dp2345
g74
(dp2346
sg83
g1854
sg76
(lp2347
g69
(g90
g71
NtRp2348
(dp2349
g74
(dp2350
g94
g95
ssg83
g2344
sg76
(lp2351
S'wsgi.run_once'
p2352
asbag69
(g90
g71
NtRp2353
(dp2354
g74
(dp2355
g101
g102
ssg83
g2344
sg76
(lp2356
S':'
asbag69
(g90
g71
NtRp2357
(dp2358
g74
(dp2359
sg83
g2344
sg76
(lp2360
g69
(g70
g71
NtRp2361
(dp2362
g74
(dp2363
g82
I3
ssg83
g2357
sg76
(lp2364
g112
asbasbasbag69
(g85
g71
NtRp2365
(dp2366
g74
(dp2367
sg83
g1854
sg76
(lp2368
g69
(g90
g71
NtRp2369
(dp2370
g74
(dp2371
g94
g95
ssg83
g2365
sg76
(lp2372
S'wsgi.url_scheme'
p2373
asbag69
(g90
g71
NtRp2374
(dp2375
g74
(dp2376
g101
g102
ssg83
g2365
sg76
(lp2377
S':'
asbag69
(g90
g71
NtRp2378
(dp2379
g74
(dp2380
sg83
g2365
sg76
(lp2381
g69
(g70
g71
NtRp2382
(dp2383
g74
(dp2384
g82
I3
ssg83
g2378
sg76
(lp2385
g1148
asbasbasbag69
(g85
g71
NtRp2386
(dp2387
g74
(dp2388
sg83
g1854
sg76
(lp2389
g69
(g90
g71
NtRp2390
(dp2391
g74
(dp2392
g94
g95
ssg83
g2386
sg76
(lp2393
S'wsgi.version'
p2394
asbag69
(g90
g71
NtRp2395
(dp2396
g74
(dp2397
g101
g102
ssg83
g2386
sg76
(lp2398
S':'
asbag69
(g90
g71
NtRp2399
(dp2400
g74
(dp2401
sg83
g2386
sg76
(lp2402
g69
(g70
g71
NtRp2403
(dp2404
g74
(dp2405
g82
I3
ssg83
g2399
sg76
(lp2406
S'1'
asbasbasbasbasbasbasbasbasbasbasbasbasbsS'frames'
p2407
(lp2408
(dp2409
S'file'
p2410
S'/home/kaique/Projects/web/big-votes/web2py/gluon/restricted.py'
p2411
sS'dump'
p2412
(dp2413
S'code'
p2414
S'"# -*- coding: utf-8 -*-\\n\\n#######################...ve\', \'boolean\', default = False )\\n    signature\\n)"'
p2415
sS'layer'
p2416
S"'/home/kaique/Projects/web/big-votes/web2py/applications/bigvotes/models/db.py'"
p2417
sS'global compile2'
p2418
S'<function compile2>'
p2419
sS'ccode'
p2420
S'undefined'
p2421
ssS'lnum'
p2422
I204
sS'lines'
p2423
(dp2424
I199
S"    environment['__name__'] = '__restricted__'"
p2425
sI200
S'    try:'
p2426
sI201
S'        if type(code) == types.CodeType:'
p2427
sI202
S'            ccode = code'
p2428
sI203
S'        else:'
p2429
sI204
S'            ccode = compile2(code,layer)'
p2430
sI205
S'        exec ccode in environment'
p2431
sI206
S'    except HTTP:'
p2432
sI207
S'        raise'
p2433
sI208
S'    except RestrictedError:'
p2434
ssS'call'
p2435
S'(code="# -*- coding: utf-8 -*-\\n\\n#######################...ve\', \'boolean\', default = False )\\n    signature\\n)", environment={\'A\': <class \'gluon.html.A\'>, \'B\': <class \'gluon.html.B\'>, \'BEAUTIFY\': <class \'gluon.html.BEAUTIFY\'>, \'BODY\': <class \'gluon.html.BODY\'>, \'BR\': <class \'gluon.html.BR\'>, \'BUTTON\': <class \'gluon.html.BUTTON\'>, \'CAT\': <class \'gluon.html.CAT\'>, \'CENTER\': <class \'gluon.html.CENTER\'>, \'CLEANUP\': <class \'gluon.validators.CLEANUP\'>, \'CODE\': <class \'gluon.html.CODE\'>, ...}, layer=\'/home/kaique/Projects/web/big-votes/web2py/applications/bigvotes/models/db.py\')'
p2436
sS'func'
p2437
S'restricted'
p2438
sa(dp2439
g2410
S'/home/kaique/Projects/web/big-votes/web2py/gluon/restricted.py'
p2440
sg2412
(dp2441
S'builtincompile'
p2442
S'<built-in function compile>'
p2443
sS'code'
p2444
S'"# -*- coding: utf-8 -*-\\n\\n#######################...ve\', \'boolean\', default = False )\\n    signature\\n)"'
p2445
sS'code.rstrip'
p2446
S'<built-in method rstrip of str object>'
p2447
sS').replace'
p2448
g2421
sS'layer'
p2449
S"'/home/kaique/Projects/web/big-votes/web2py/applications/bigvotes/models/db.py'"
p2450
ssg2422
I189
sg2423
(dp2451
I192
S'    """'
p2452
sI193
S'    runs code in environment and returns the output. if an exception occurs'
p2453
sI184
S''
sI185
S'def compile2(code,layer):'
p2454
sI186
S'    """'
p2455
sI187
S"    The +'\\n' is necessary else compile fails when code ends in a comment."
p2456
sI188
S'    """'
p2457
sI189
S"    return compile(code.rstrip().replace('\\r\\n','\\n')+'\\n', layer, 'exec')"
p2458
sI190
S''
sI191
S"def restricted(code, environment=None, layer='Unknown'):"
p2459
ssg2435
S'(code="# -*- coding: utf-8 -*-\\n\\n#######################...ve\', \'boolean\', default = False )\\n    signature\\n)", layer=\'/home/kaique/Projects/web/big-votes/web2py/applications/bigvotes/models/db.py\')'
p2460
sg2437
S'compile2'
p2461
sasS'pyver'
p2462
S'Python 2.7.3: /usr/bin/python'
p2463
sS'session'
p2464
g69
(g70
g71
NtRp2465
(dp2466
g74
(dp2467
sg76
(lp2468
g69
(g78
g71
NtRp2469
(dp2470
g74
(dp2471
g82
I5
ssg83
Nsg76
(lp2472
sbasbsS'etype'
p2473
S"<type 'exceptions.SyntaxError'>"
p2474
sS'date'
p2475
S'Fri May 18 14:00:52 2012'
p2476
sS'response'
p2477
g69
(g70
g71
NtRp2478
(dp2479
g74
(dp2480
sg76
(lp2481
g69
(g78
g71
NtRp2482
(dp2483
g74
(dp2484
g82
I5
ssg83
Nsg76
(lp2485
g69
(g85
g71
NtRp2486
(dp2487
g74
(dp2488
sg83
g2482
sg76
(lp2489
g69
(g90
g71
NtRp2490
(dp2491
g74
(dp2492
g94
g95
ssg83
g2486
sg76
(lp2493
g167
asbag69
(g90
g71
NtRp2494
(dp2495
g74
(dp2496
g101
g102
ssg83
g2486
sg76
(lp2497
S':'
asbag69
(g90
g71
NtRp2498
(dp2499
g74
(dp2500
sg83
g2486
sg76
(lp2501
g69
(g70
g71
NtRp2502
(dp2503
g74
(dp2504
g82
I5
ssg83
g2498
sg76
(lp2505
S'<cStringIO.StringO object at 0xa5d15a0>'
p2506
asbasbasbag69
(g85
g71
NtRp2507
(dp2508
g74
(dp2509
sg83
g2482
sg76
(lp2510
g69
(g90
g71
NtRp2511
(dp2512
g74
(dp2513
g94
g95
ssg83
g2507
sg76
(lp2514
g233
asbag69
(g90
g71
NtRp2515
(dp2516
g74
(dp2517
g101
g102
ssg83
g2507
sg76
(lp2518
S':'
asbag69
(g90
g71
NtRp2519
(dp2520
g74
(dp2521
sg83
g2507
sg76
(lp2522
g69
(g70
g71
NtRp2523
(dp2524
g74
(dp2525
g82
I5
ssg83
g2519
sg76
(lp2526
g69
(g78
g71
NtRp2527
(dp2528
g74
(dp2529
g82
I4
ssg83
Nsg76
(lp2530
g69
(g85
g71
NtRp2531
(dp2532
g74
(dp2533
sg83
g2527
sg76
(lp2534
g69
(g90
g71
NtRp2535
(dp2536
g74
(dp2537
g94
g95
ssg83
g2531
sg76
(lp2538
S'session_id_bigvotes'
p2539
asbag69
(g90
g71
NtRp2540
(dp2541
g74
(dp2542
g101
g102
ssg83
g2531
sg76
(lp2543
S':'
asbag69
(g90
g71
NtRp2544
(dp2545
g74
(dp2546
sg83
g2531
sg76
(lp2547
g69
(g70
g71
NtRp2548
(dp2549
g74
(dp2550
g82
I4
ssg83
g2544
sg76
(lp2551
g69
(g78
g71
NtRp2552
(dp2553
g74
(dp2554
g82
I3
ssg83
Nsg76
(lp2555
g69
(g85
g71
NtRp2556
(dp2557
g74
(dp2558
sg83
g2552
sg76
(lp2559
g69
(g90
g71
NtRp2560
(dp2561
g74
(dp2562
g94
g95
ssg83
g2556
sg76
(lp2563
S'comment'
p2564
asbag69
(g90
g71
NtRp2565
(dp2566
g74
(dp2567
g101
g102
ssg83
g2556
sg76
(lp2568
S':'
asbag69
(g90
g71
NtRp2569
(dp2570
g74
(dp2571
sg83
g2556
sg76
(lp2572
g69
(g70
g71
NtRp2573
(dp2574
g74
(dp2575
g82
I3
ssg83
g2569
sg76
(lp2576
S''
asbasbasbag69
(g85
g71
NtRp2577
(dp2578
g74
(dp2579
sg83
g2552
sg76
(lp2580
g69
(g90
g71
NtRp2581
(dp2582
g74
(dp2583
g94
g95
ssg83
g2577
sg76
(lp2584
S'domain'
p2585
asbag69
(g90
g71
NtRp2586
(dp2587
g74
(dp2588
g101
g102
ssg83
g2577
sg76
(lp2589
S':'
asbag69
(g90
g71
NtRp2590
(dp2591
g74
(dp2592
sg83
g2577
sg76
(lp2593
g69
(g70
g71
NtRp2594
(dp2595
g74
(dp2596
g82
I3
ssg83
g2590
sg76
(lp2597
S''
asbasbasbag69
(g85
g71
NtRp2598
(dp2599
g74
(dp2600
sg83
g2552
sg76
(lp2601
g69
(g90
g71
NtRp2602
(dp2603
g74
(dp2604
g94
g95
ssg83
g2598
sg76
(lp2605
S'expires'
p2606
asbag69
(g90
g71
NtRp2607
(dp2608
g74
(dp2609
g101
g102
ssg83
g2598
sg76
(lp2610
S':'
asbag69
(g90
g71
NtRp2611
(dp2612
g74
(dp2613
sg83
g2598
sg76
(lp2614
g69
(g70
g71
NtRp2615
(dp2616
g74
(dp2617
g82
I3
ssg83
g2611
sg76
(lp2618
S''
asbasbasbag69
(g85
g71
NtRp2619
(dp2620
g74
(dp2621
sg83
g2552
sg76
(lp2622
g69
(g90
g71
NtRp2623
(dp2624
g74
(dp2625
g94
g95
ssg83
g2619
sg76
(lp2626
S'httponly'
p2627
asbag69
(g90
g71
NtRp2628
(dp2629
g74
(dp2630
g101
g102
ssg83
g2619
sg76
(lp2631
S':'
asbag69
(g90
g71
NtRp2632
(dp2633
g74
(dp2634
sg83
g2619
sg76
(lp2635
g69
(g70
g71
NtRp2636
(dp2637
g74
(dp2638
g82
I3
ssg83
g2632
sg76
(lp2639
S''
asbasbasbag69
(g85
g71
NtRp2640
(dp2641
g74
(dp2642
sg83
g2552
sg76
(lp2643
g69
(g90
g71
NtRp2644
(dp2645
g74
(dp2646
g94
g95
ssg83
g2640
sg76
(lp2647
S'max-age'
p2648
asbag69
(g90
g71
NtRp2649
(dp2650
g74
(dp2651
g101
g102
ssg83
g2640
sg76
(lp2652
S':'
asbag69
(g90
g71
NtRp2653
(dp2654
g74
(dp2655
sg83
g2640
sg76
(lp2656
g69
(g70
g71
NtRp2657
(dp2658
g74
(dp2659
g82
I3
ssg83
g2653
sg76
(lp2660
S''
asbasbasbag69
(g85
g71
NtRp2661
(dp2662
g74
(dp2663
sg83
g2552
sg76
(lp2664
g69
(g90
g71
NtRp2665
(dp2666
g74
(dp2667
g94
g95
ssg83
g2661
sg76
(lp2668
S'path'
p2669
asbag69
(g90
g71
NtRp2670
(dp2671
g74
(dp2672
g101
g102
ssg83
g2661
sg76
(lp2673
S':'
asbag69
(g90
g71
NtRp2674
(dp2675
g74
(dp2676
sg83
g2661
sg76
(lp2677
g69
(g70
g71
NtRp2678
(dp2679
g74
(dp2680
g82
I3
ssg83
g2674
sg76
(lp2681
S'/'
asbasbasbag69
(g85
g71
NtRp2682
(dp2683
g74
(dp2684
sg83
g2552
sg76
(lp2685
g69
(g90
g71
NtRp2686
(dp2687
g74
(dp2688
g94
g95
ssg83
g2682
sg76
(lp2689
S'secure'
p2690
asbag69
(g90
g71
NtRp2691
(dp2692
g74
(dp2693
g101
g102
ssg83
g2682
sg76
(lp2694
S':'
asbag69
(g90
g71
NtRp2695
(dp2696
g74
(dp2697
sg83
g2682
sg76
(lp2698
g69
(g70
g71
NtRp2699
(dp2700
g74
(dp2701
g82
I3
ssg83
g2695
sg76
(lp2702
S''
asbasbasbag69
(g85
g71
NtRp2703
(dp2704
g74
(dp2705
sg83
g2552
sg76
(lp2706
g69
(g90
g71
NtRp2707
(dp2708
g74
(dp2709
g94
g95
ssg83
g2703
sg76
(lp2710
S'version'
p2711
asbag69
(g90
g71
NtRp2712
(dp2713
g74
(dp2714
g101
g102
ssg83
g2703
sg76
(lp2715
S':'
asbag69
(g90
g71
NtRp2716
(dp2717
g74
(dp2718
sg83
g2703
sg76
(lp2719
g69
(g70
g71
NtRp2720
(dp2721
g74
(dp2722
g82
I3
ssg83
g2716
sg76
(lp2723
S''
asbasbasbasbasbasbasbasbasbasbasbag69
(g85
g71
NtRp2724
(dp2725
g74
(dp2726
sg83
g2482
sg76
(lp2727
g69
(g90
g71
NtRp2728
(dp2729
g74
(dp2730
g94
g95
ssg83
g2724
sg76
(lp2731
S'delimiters'
p2732
asbag69
(g90
g71
NtRp2733
(dp2734
g74
(dp2735
g101
g102
ssg83
g2724
sg76
(lp2736
S':'
asbag69
(g90
g71
NtRp2737
(dp2738
g74
(dp2739
sg83
g2724
sg76
(lp2740
g69
(g70
g71
NtRp2741
(dp2742
g74
(dp2743
g82
I5
ssg83
g2737
sg76
(lp2744
g69
(g78
g71
NtRp2745
(dp2746
g74
(dp2747
g82
I4
ssg83
Nsg76
(lp2748
g69
(g85
g71
NtRp2749
(dp2750
g74
(dp2751
sg83
g2745
sg76
(lp2752
g69
(g90
g71
NtRp2753
(dp2754
g74
(dp2755
sg83
g2749
sg76
(lp2756
g69
(g70
g71
NtRp2757
(dp2758
g74
(dp2759
g82
I4
ssg83
g2753
sg76
(lp2760
S'{{'
p2761
asbasbasbag69
(g85
g71
NtRp2762
(dp2763
g74
(dp2764
sg83
g2745
sg76
(lp2765
g69
(g90
g71
NtRp2766
(dp2767
g74
(dp2768
sg83
g2762
sg76
(lp2769
g69
(g70
g71
NtRp2770
(dp2771
g74
(dp2772
g82
I4
ssg83
g2766
sg76
(lp2773
S'}}'
p2774
asbasbasbasbasbasbasbag69
(g85
g71
NtRp2775
(dp2776
g74
(dp2777
sg83
g2482
sg76
(lp2778
g69
(g90
g71
NtRp2779
(dp2780
g74
(dp2781
g94
g95
ssg83
g2775
sg76
(lp2782
S'files'
p2783
asbag69
(g90
g71
NtRp2784
(dp2785
g74
(dp2786
g101
g102
ssg83
g2775
sg76
(lp2787
S':'
asbag69
(g90
g71
NtRp2788
(dp2789
g74
(dp2790
sg83
g2775
sg76
(lp2791
g69
(g70
g71
NtRp2792
(dp2793
g74
(dp2794
g82
I5
ssg83
g2788
sg76
(lp2795
g69
(g78
g71
NtRp2796
(dp2797
g74
(dp2798
g82
I4
ssg83
Nsg76
(lp2799
sbasbasbasbag69
(g85
g71
NtRp2800
(dp2801
g74
(dp2802
sg83
g2482
sg76
(lp2803
g69
(g90
g71
NtRp2804
(dp2805
g74
(dp2806
g94
g95
ssg83
g2800
sg76
(lp2807
S'flash'
p2808
asbag69
(g90
g71
NtRp2809
(dp2810
g74
(dp2811
g101
g102
ssg83
g2800
sg76
(lp2812
S':'
asbag69
(g90
g71
NtRp2813
(dp2814
g74
(dp2815
sg83
g2800
sg76
(lp2816
g69
(g70
g71
NtRp2817
(dp2818
g74
(dp2819
g82
I5
ssg83
g2813
sg76
(lp2820
S''
asbasbasbag69
(g85
g71
NtRp2821
(dp2822
g74
(dp2823
sg83
g2482
sg76
(lp2824
g69
(g90
g71
NtRp2825
(dp2826
g74
(dp2827
g94
g95
ssg83
g2821
sg76
(lp2828
S'generic_patterns'
p2829
asbag69
(g90
g71
NtRp2830
(dp2831
g74
(dp2832
g101
g102
ssg83
g2821
sg76
(lp2833
S':'
asbag69
(g90
g71
NtRp2834
(dp2835
g74
(dp2836
sg83
g2821
sg76
(lp2837
g69
(g70
g71
NtRp2838
(dp2839
g74
(dp2840
g82
I5
ssg83
g2834
sg76
(lp2841
g69
(g78
g71
NtRp2842
(dp2843
g74
(dp2844
g82
I4
ssg83
Nsg76
(lp2845
sbasbasbasbag69
(g85
g71
NtRp2846
(dp2847
g74
(dp2848
sg83
g2482
sg76
(lp2849
g69
(g90
g71
NtRp2850
(dp2851
g74
(dp2852
g94
g95
ssg83
g2846
sg76
(lp2853
S'headers'
p2854
asbag69
(g90
g71
NtRp2855
(dp2856
g74
(dp2857
g101
g102
ssg83
g2846
sg76
(lp2858
S':'
asbag69
(g90
g71
NtRp2859
(dp2860
g74
(dp2861
sg83
g2846
sg76
(lp2862
g69
(g70
g71
NtRp2863
(dp2864
g74
(dp2865
g82
I5
ssg83
g2859
sg76
(lp2866
g69
(g78
g71
NtRp2867
(dp2868
g74
(dp2869
g82
I4
ssg83
Nsg76
(lp2870
g69
(g85
g71
NtRp2871
(dp2872
g74
(dp2873
sg83
g2867
sg76
(lp2874
g69
(g90
g71
NtRp2875
(dp2876
g74
(dp2877
g94
g95
ssg83
g2871
sg76
(lp2878
S'Cache-Control'
p2879
asbag69
(g90
g71
NtRp2880
(dp2881
g74
(dp2882
g101
g102
ssg83
g2871
sg76
(lp2883
S':'
asbag69
(g90
g71
NtRp2884
(dp2885
g74
(dp2886
sg83
g2871
sg76
(lp2887
g69
(g70
g71
NtRp2888
(dp2889
g74
(dp2890
g82
I4
ssg83
g2884
sg76
(lp2891
S'no-store, no-cache, must-revalidate, post-check=0, pre-check=0'
p2892
asbasbasbag69
(g85
g71
NtRp2893
(dp2894
g74
(dp2895
sg83
g2867
sg76
(lp2896
g69
(g90
g71
NtRp2897
(dp2898
g74
(dp2899
g94
g95
ssg83
g2893
sg76
(lp2900
S'Content-Type'
p2901
asbag69
(g90
g71
NtRp2902
(dp2903
g74
(dp2904
g101
g102
ssg83
g2893
sg76
(lp2905
S':'
asbag69
(g90
g71
NtRp2906
(dp2907
g74
(dp2908
sg83
g2893
sg76
(lp2909
g69
(g70
g71
NtRp2910
(dp2911
g74
(dp2912
g82
I4
ssg83
g2906
sg76
(lp2913
S'text/html; charset=utf-8'
p2914
asbasbasbag69
(g85
g71
NtRp2915
(dp2916
g74
(dp2917
sg83
g2867
sg76
(lp2918
g69
(g90
g71
NtRp2919
(dp2920
g74
(dp2921
g94
g95
ssg83
g2915
sg76
(lp2922
S'Expires'
p2923
asbag69
(g90
g71
NtRp2924
(dp2925
g74
(dp2926
g101
g102
ssg83
g2915
sg76
(lp2927
S':'
asbag69
(g90
g71
NtRp2928
(dp2929
g74
(dp2930
sg83
g2915
sg76
(lp2931
g69
(g70
g71
NtRp2932
(dp2933
g74
(dp2934
g82
I4
ssg83
g2928
sg76
(lp2935
S'Fri, 18 May 2012 17:00:52 GMT'
p2936
asbasbasbag69
(g85
g71
NtRp2937
(dp2938
g74
(dp2939
sg83
g2867
sg76
(lp2940
g69
(g90
g71
NtRp2941
(dp2942
g74
(dp2943
g94
g95
ssg83
g2937
sg76
(lp2944
S'Pragma'
p2945
asbag69
(g90
g71
NtRp2946
(dp2947
g74
(dp2948
g101
g102
ssg83
g2937
sg76
(lp2949
S':'
asbag69
(g90
g71
NtRp2950
(dp2951
g74
(dp2952
sg83
g2937
sg76
(lp2953
g69
(g70
g71
NtRp2954
(dp2955
g74
(dp2956
g82
I4
ssg83
g2950
sg76
(lp2957
S'no-cache'
p2958
asbasbasbag69
(g85
g71
NtRp2959
(dp2960
g74
(dp2961
sg83
g2867
sg76
(lp2962
g69
(g90
g71
NtRp2963
(dp2964
g74
(dp2965
g94
g95
ssg83
g2959
sg76
(lp2966
S'X-Powered-By'
p2967
asbag69
(g90
g71
NtRp2968
(dp2969
g74
(dp2970
g101
g102
ssg83
g2959
sg76
(lp2971
S':'
asbag69
(g90
g71
NtRp2972
(dp2973
g74
(dp2974
sg83
g2959
sg76
(lp2975
g69
(g70
g71
NtRp2976
(dp2977
g74
(dp2978
g82
I4
ssg83
g2972
sg76
(lp2979
S'web2py'
p2980
asbasbasbasbasbasbasbag69
(g85
g71
NtRp2981
(dp2982
g74
(dp2983
sg83
g2482
sg76
(lp2984
g69
(g90
g71
NtRp2985
(dp2986
g74
(dp2987
g94
g95
ssg83
g2981
sg76
(lp2988
S'menu'
p2989
asbag69
(g90
g71
NtRp2990
(dp2991
g74
(dp2992
g101
g102
ssg83
g2981
sg76
(lp2993
S':'
asbag69
(g90
g71
NtRp2994
(dp2995
g74
(dp2996
sg83
g2981
sg76
(lp2997
g69
(g70
g71
NtRp2998
(dp2999
g74
(dp3000
g82
I5
ssg83
g2994
sg76
(lp3001
g69
(g78
g71
NtRp3002
(dp3003
g74
(dp3004
g82
I4
ssg83
Nsg76
(lp3005
sbasbasbasbag69
(g85
g71
NtRp3006
(dp3007
g74
(dp3008
sg83
g2482
sg76
(lp3009
g69
(g90
g71
NtRp3010
(dp3011
g74
(dp3012
g94
g95
ssg83
g3006
sg76
(lp3013
S'meta'
p3014
asbag69
(g90
g71
NtRp3015
(dp3016
g74
(dp3017
g101
g102
ssg83
g3006
sg76
(lp3018
S':'
asbag69
(g90
g71
NtRp3019
(dp3020
g74
(dp3021
sg83
g3006
sg76
(lp3022
g69
(g70
g71
NtRp3023
(dp3024
g74
(dp3025
g82
I5
ssg83
g3019
sg76
(lp3026
g69
(g78
g71
NtRp3027
(dp3028
g74
(dp3029
g82
I4
ssg83
Nsg76
(lp3030
sbasbasbasbag69
(g85
g71
NtRp3031
(dp3032
g74
(dp3033
sg83
g2482
sg76
(lp3034
g69
(g90
g71
NtRp3035
(dp3036
g74
(dp3037
g94
g95
ssg83
g3031
sg76
(lp3038
S'postprocessing'
p3039
asbag69
(g90
g71
NtRp3040
(dp3041
g74
(dp3042
g101
g102
ssg83
g3031
sg76
(lp3043
S':'
asbag69
(g90
g71
NtRp3044
(dp3045
g74
(dp3046
sg83
g3031
sg76
(lp3047
g69
(g70
g71
NtRp3048
(dp3049
g74
(dp3050
g82
I5
ssg83
g3044
sg76
(lp3051
g69
(g78
g71
NtRp3052
(dp3053
g74
(dp3054
g82
I4
ssg83
Nsg76
(lp3055
sbasbasbasbag69
(g85
g71
NtRp3056
(dp3057
g74
(dp3058
sg83
g2482
sg76
(lp3059
g69
(g90
g71
NtRp3060
(dp3061
g74
(dp3062
g94
g95
ssg83
g3056
sg76
(lp3063
S'session_filename'
p3064
asbag69
(g90
g71
NtRp3065
(dp3066
g74
(dp3067
g101
g102
ssg83
g3056
sg76
(lp3068
S':'
asbag69
(g90
g71
NtRp3069
(dp3070
g74
(dp3071
sg83
g3056
sg76
(lp3072
g69
(g70
g71
NtRp3073
(dp3074
g74
(dp3075
g82
I5
ssg83
g3069
sg76
(lp3076
S'/home/kaique/Projects/web/big-votes/web2py/applications/bigvotes/sessions/127.0.0.1-54432988-c7e8-41aa-8714-625445ea39e0'
p3077
asbasbasbag69
(g85
g71
NtRp3078
(dp3079
g74
(dp3080
sg83
g2482
sg76
(lp3081
g69
(g90
g71
NtRp3082
(dp3083
g74
(dp3084
g94
g95
ssg83
g3078
sg76
(lp3085
S'session_id'
p3086
asbag69
(g90
g71
NtRp3087
(dp3088
g74
(dp3089
g101
g102
ssg83
g3078
sg76
(lp3090
S':'
asbag69
(g90
g71
NtRp3091
(dp3092
g74
(dp3093
sg83
g3078
sg76
(lp3094
g69
(g70
g71
NtRp3095
(dp3096
g74
(dp3097
g82
I5
ssg83
g3091
sg76
(lp3098
S'127.0.0.1-54432988-c7e8-41aa-8714-625445ea39e0'
p3099
asbasbasbag69
(g85
g71
NtRp3100
(dp3101
g74
(dp3102
sg83
g2482
sg76
(lp3103
g69
(g90
g71
NtRp3104
(dp3105
g74
(dp3106
g94
g95
ssg83
g3100
sg76
(lp3107
S'session_id_name'
p3108
asbag69
(g90
g71
NtRp3109
(dp3110
g74
(dp3111
g101
g102
ssg83
g3100
sg76
(lp3112
S':'
asbag69
(g90
g71
NtRp3113
(dp3114
g74
(dp3115
sg83
g3100
sg76
(lp3116
g69
(g70
g71
NtRp3117
(dp3118
g74
(dp3119
g82
I5
ssg83
g3113
sg76
(lp3120
g2539
asbasbasbag69
(g85
g71
NtRp3121
(dp3122
g74
(dp3123
sg83
g2482
sg76
(lp3124
g69
(g90
g71
NtRp3125
(dp3126
g74
(dp3127
g94
g95
ssg83
g3121
sg76
(lp3128
S'session_new'
p3129
asbag69
(g90
g71
NtRp3130
(dp3131
g74
(dp3132
g101
g102
ssg83
g3121
sg76
(lp3133
S':'
asbag69
(g90
g71
NtRp3134
(dp3135
g74
(dp3136
sg83
g3121
sg76
(lp3137
g69
(g70
g71
NtRp3138
(dp3139
g74
(dp3140
g82
I5
ssg83
g3134
sg76
(lp3141
g1105
asbasbasbag69
(g85
g71
NtRp3142
(dp3143
g74
(dp3144
sg83
g2482
sg76
(lp3145
g69
(g90
g71
NtRp3146
(dp3147
g74
(dp3148
g94
g95
ssg83
g3142
sg76
(lp3149
S'status'
p3150
asbag69
(g90
g71
NtRp3151
(dp3152
g74
(dp3153
g101
g102
ssg83
g3142
sg76
(lp3154
S':'
asbag69
(g90
g71
NtRp3155
(dp3156
g74
(dp3157
sg83
g3142
sg76
(lp3158
g69
(g70
g71
NtRp3159
(dp3160
g74
(dp3161
g82
I5
ssg83
g3155
sg76
(lp3162
S'200'
p3163
asbasbasbag69
(g85
g71
NtRp3164
(dp3165
g74
(dp3166
sg83
g2482
sg76
(lp3167
g69
(g90
g71
NtRp3168
(dp3169
g74
(dp3170
g94
g95
ssg83
g3164
sg76
(lp3171
g1769
asbag69
(g90
g71
NtRp3172
(dp3173
g74
(dp3174
g101
g102
ssg83
g3164
sg76
(lp3175
S':'
asbag69
(g90
g71
NtRp3176
(dp3177
g74
(dp3178
sg83
g3164
sg76
(lp3179
g69
(g70
g71
NtRp3180
(dp3181
g74
(dp3182
g82
I5
ssg83
g3176
sg76
(lp3183
g1782
asbasbasbag69
(g85
g71
NtRp3184
(dp3185
g74
(dp3186
sg83
g2482
sg76
(lp3187
g69
(g90
g71
NtRp3188
(dp3189
g74
(dp3190
g94
g95
ssg83
g3184
sg76
(lp3191
S'view'
p3192
asbag69
(g90
g71
NtRp3193
(dp3194
g74
(dp3195
g101
g102
ssg83
g3184
sg76
(lp3196
S':'
asbag69
(g90
g71
NtRp3197
(dp3198
g74
(dp3199
sg83
g3184
sg76
(lp3200
g69
(g70
g71
NtRp3201
(dp3202
g74
(dp3203
g82
I5
ssg83
g3197
sg76
(lp3204
S'default/index.html'
p3205
asbasbasbasbasbsS'locals'
p3206
(dp3207
g4
S"'/home/kaique/Projects/web/big-votes/web2py/applications/bigvotes/models/db.py'"
p3208
sg6
S'"# -*- coding: utf-8 -*-\\n\\n#######################...ve\', \'boolean\', default = False )\\n    signature\\n)"'
p3209
sssS'traceback'
p3210
S'Traceback (most recent call last):\n  File "/home/kaique/Projects/web/big-votes/web2py/gluon/restricted.py", line 204, in restricted\n    ccode = compile2(code,layer)\n  File "/home/kaique/Projects/web/big-votes/web2py/gluon/restricted.py", line 189, in compile2\n    return compile(code.rstrip().replace(\'\\r\\n\',\'\\n\')+\'\\n\', layer, \'exec\')\n  File "/home/kaique/Projects/web/big-votes/web2py/applications/bigvotes/models/db.py", line 109\n    signature\n            ^\nSyntaxError: invalid syntax\n'
p3211
s.