(dp1
S'output'
p2
S"<type 'exceptions.TypeError'> format requires a mapping"
p3
sS'layer'
p4
S'/home/kaique/Projects/web/big-votes/web2py/applications/bigvotes/controllers/vote.py'
p5
sS'code'
p6
S"# -*- coding: utf-8 -*-\nfrom bigvotes import Votes\nimport datetime\n\ndef index():\n\targs = request.args\n\tclient_ip = request.client\n\tnow = datetime.datetime.now\n\telapsed_time = datetime.timedelta( seconds = 60*5 )\n\toutput = False\n\n\tif args and len( args ) > 0 and client_ip:\n\t\tvoting = Votes(db).getActives( int( args[0] ) ).first()\n\t\t\n\t\tconsult = Votes(db).consult({\n\t\t\t'vote_id': args[0],\n\t\t\t'vote_ip': client_ip,\n\t\t})\n\n\t\tif not now() <= ( consult.vote_register + elapsed_time ):\n\t\t\tmembers = {}\n\t\t\t# Profile of members in the score\n\t\t\tmembers['profile'] = Votes(db).getScore( args[0] )\n\t\t\t# Score of members\n\t\t\tmembers['scores'] = [ members['profile'][member]['score'] for member in members['profile'] ]\n\t\t\t# Max score to eliminate\n\t\t\tmembers['max_score'] = max( members['scores'] )\n\t\t\t# Min score\n\t\t\tmembers['min_score'] = min( members['scores'] )\n\t\t\t# Members is tied\n\t\t\tmembers['tied'] = ( members['max_score'] == members['min_score'] )\n\t\t\t# Id of members in the profile score\n\t\t\tmembers['ids'] = [ int( member ) for member in members['profile'] ]\n\t\t\t# Names of members\n\t\t\tmembers['names'] = [ member['name'] for member in members['profile'] ]\n\t\t\t# Id of eliminated member\n\t\t\tmembers['eliminated'] = {\n\t\t\t\t'id': members['ids'][ members['scores'].index( members['max_score'] ) ],\n\t\t\t\t'name': members['names'][ members['scores'].index( members['max_score'] ) ],\n\t\t\t\t'percentage': members['max_score'] * 100 / ( members['max_score'] + members['min_score'] ),\n\t\t\t} \n\n\t\t\tif members:\n\t\t\t\tif now() > voting['start_at'] and now() < voting['end_at']:\n\t\t\t\t\toutput = Votes(db).newVote( { 'vote': args[0], 'member': args[1] } )\n\t\t\t\t\t\n\t\t\t\t\tif output:\n\t\t\t\t\t\tsession.vote_message = T('Voted in %(name)s' % ( members['profile'].get( int( args[1] ) ) ) )\n\t\t\tif now() > voting['start_at'] and now() > voting['end_at']:\n\t\t\t\t\tsession.vote_message = T('Voting complete, %(name)s was eliminated with %(percentage)s!' % ( members['eliminated'], members['eliminated'] ) )\n\n\treturn redirect( URL('default', 'index', args=['result']) )\t\n\ndef result():\n\tpass\nresponse._vars=response._caller(index)\n"
p7
sS'snapshot'
p8
(dp9
S'exception'
p10
(dp11
S'__hash__'
p12
S"<method-wrapper '__hash__' of exceptions.TypeError object>"
p13
sS'__setattr__'
p14
S"<method-wrapper '__setattr__' of exceptions.TypeError object>"
p15
sS'__reduce_ex__'
p16
S'<built-in method __reduce_ex__ of exceptions.TypeError object>'
p17
sS'__getslice__'
p18
S"<method-wrapper '__getslice__' of exceptions.TypeError object>"
p19
sS'__getitem__'
p20
S"<method-wrapper '__getitem__' of exceptions.TypeError object>"
p21
sS'__setstate__'
p22
S'<built-in method __setstate__ of exceptions.TypeError object>'
p23
sS'__reduce__'
p24
S'<built-in method __reduce__ of exceptions.TypeError object>'
p25
sS'__str__'
p26
S"<method-wrapper '__str__' of exceptions.TypeError object>"
p27
sS'__format__'
p28
S'<built-in method __format__ of exceptions.TypeError object>'
p29
sS'__getattribute__'
p30
S"<method-wrapper '__getattribute__' of exceptions.TypeError object>"
p31
sS'__class__'
p32
S"<type 'exceptions.TypeError'>"
p33
sS'__unicode__'
p34
S'<built-in method __unicode__ of exceptions.TypeError object>'
p35
sS'__delattr__'
p36
S"<method-wrapper '__delattr__' of exceptions.TypeError object>"
p37
sS'__subclasshook__'
p38
S'<built-in method __subclasshook__ of type object>'
p39
sS'__repr__'
p40
S"<method-wrapper '__repr__' of exceptions.TypeError object>"
p41
sS'args'
p42
S"('format requires a mapping',)"
p43
sS'__dict__'
p44
S'{}'
p45
sS'__sizeof__'
p46
S'<built-in method __sizeof__ of exceptions.TypeError object>'
p47
sS'__doc__'
p48
S"'Inappropriate argument type.'"
p49
sS'__init__'
p50
S"<method-wrapper '__init__' of exceptions.TypeError object>"
p51
sS'__new__'
p52
S'<built-in method __new__ of type object>'
p53
ssS'evalue'
p54
S'format requires a mapping'
p55
sS'request'
p56
ccopy_reg
_reconstructor
p57
(cgluon.html
BEAUTIFY
p58
c__builtin__
object
p59
NtRp60
(dp61
S'attributes'
p62
(dp63
sS'components'
p64
(lp65
g57
(cgluon.html
TABLE
p66
g59
NtRp67
(dp68
g62
(dp69
S'level'
p70
I5
ssS'parent'
p71
Nsg64
(lp72
g57
(cgluon.html
TR
p73
g59
NtRp74
(dp75
g62
(dp76
sg71
g67
sg64
(lp77
g57
(cgluon.html
TD
p78
g59
NtRp79
(dp80
g62
(dp81
S'_style'
p82
S'font-weight:bold;vertical-align:top'
p83
ssg71
g74
sg64
(lp84
S'ajax'
p85
asbag57
(g78
g59
NtRp86
(dp87
g62
(dp88
S'_valign'
p89
S'top'
p90
ssg71
g74
sg64
(lp91
S':'
asbag57
(g78
g59
NtRp92
(dp93
g62
(dp94
sg71
g74
sg64
(lp95
g57
(g58
g59
NtRp96
(dp97
g62
(dp98
g70
I5
ssg71
g92
sg64
(lp99
S'False'
p100
asbasbasbag57
(g73
g59
NtRp101
(dp102
g62
(dp103
sg71
g67
sg64
(lp104
g57
(g78
g59
NtRp105
(dp106
g62
(dp107
g82
g83
ssg71
g101
sg64
(lp108
S'application'
p109
asbag57
(g78
g59
NtRp110
(dp111
g62
(dp112
g89
g90
ssg71
g101
sg64
(lp113
S':'
asbag57
(g78
g59
NtRp114
(dp115
g62
(dp116
sg71
g101
sg64
(lp117
g57
(g58
g59
NtRp118
(dp119
g62
(dp120
g70
I5
ssg71
g114
sg64
(lp121
S'bigvotes'
p122
asbasbasbag57
(g73
g59
NtRp123
(dp124
g62
(dp125
sg71
g67
sg64
(lp126
g57
(g78
g59
NtRp127
(dp128
g62
(dp129
g82
g83
ssg71
g123
sg64
(lp130
g42
asbag57
(g78
g59
NtRp131
(dp132
g62
(dp133
g89
g90
ssg71
g123
sg64
(lp134
S':'
asbag57
(g78
g59
NtRp135
(dp136
g62
(dp137
sg71
g123
sg64
(lp138
g57
(g58
g59
NtRp139
(dp140
g62
(dp141
g70
I5
ssg71
g135
sg64
(lp142
g57
(g66
g59
NtRp143
(dp144
g62
(dp145
g70
I4
ssg71
Nsg64
(lp146
g57
(g73
g59
NtRp147
(dp148
g62
(dp149
sg71
g143
sg64
(lp150
g57
(g78
g59
NtRp151
(dp152
g62
(dp153
sg71
g147
sg64
(lp154
g57
(g58
g59
NtRp155
(dp156
g62
(dp157
g70
I4
ssg71
g151
sg64
(lp158
S'1'
asbasbasbag57
(g73
g59
NtRp159
(dp160
g62
(dp161
sg71
g143
sg64
(lp162
g57
(g78
g59
NtRp163
(dp164
g62
(dp165
sg71
g159
sg64
(lp166
g57
(g58
g59
NtRp167
(dp168
g62
(dp169
g70
I4
ssg71
g163
sg64
(lp170
S'1'
asbasbasbasbasbasbasbag57
(g73
g59
NtRp171
(dp172
g62
(dp173
sg71
g67
sg64
(lp174
g57
(g78
g59
NtRp175
(dp176
g62
(dp177
g82
g83
ssg71
g171
sg64
(lp178
S'body'
p179
asbag57
(g78
g59
NtRp180
(dp181
g62
(dp182
g89
g90
ssg71
g171
sg64
(lp183
S':'
asbag57
(g78
g59
NtRp184
(dp185
g62
(dp186
sg71
g171
sg64
(lp187
g57
(g58
g59
NtRp188
(dp189
g62
(dp190
g70
I5
ssg71
g184
sg64
(lp191
S'<cStringIO.StringO object at 0xb0459ca0>'
p192
asbasbasbag57
(g73
g59
NtRp193
(dp194
g62
(dp195
sg71
g67
sg64
(lp196
g57
(g78
g59
NtRp197
(dp198
g62
(dp199
g82
g83
ssg71
g193
sg64
(lp200
S'client'
p201
asbag57
(g78
g59
NtRp202
(dp203
g62
(dp204
g89
g90
ssg71
g193
sg64
(lp205
S':'
asbag57
(g78
g59
NtRp206
(dp207
g62
(dp208
sg71
g193
sg64
(lp209
g57
(g58
g59
NtRp210
(dp211
g62
(dp212
g70
I5
ssg71
g206
sg64
(lp213
S'127.0.0.1'
p214
asbasbasbag57
(g73
g59
NtRp215
(dp216
g62
(dp217
sg71
g67
sg64
(lp218
g57
(g78
g59
NtRp219
(dp220
g62
(dp221
g82
g83
ssg71
g215
sg64
(lp222
S'controller'
p223
asbag57
(g78
g59
NtRp224
(dp225
g62
(dp226
g89
g90
ssg71
g215
sg64
(lp227
S':'
asbag57
(g78
g59
NtRp228
(dp229
g62
(dp230
sg71
g215
sg64
(lp231
g57
(g58
g59
NtRp232
(dp233
g62
(dp234
g70
I5
ssg71
g228
sg64
(lp235
S'vote'
p236
asbasbasbag57
(g73
g59
NtRp237
(dp238
g62
(dp239
sg71
g67
sg64
(lp240
g57
(g78
g59
NtRp241
(dp242
g62
(dp243
g82
g83
ssg71
g237
sg64
(lp244
S'cookies'
p245
asbag57
(g78
g59
NtRp246
(dp247
g62
(dp248
g89
g90
ssg71
g237
sg64
(lp249
S':'
asbag57
(g78
g59
NtRp250
(dp251
g62
(dp252
sg71
g237
sg64
(lp253
g57
(g58
g59
NtRp254
(dp255
g62
(dp256
g70
I5
ssg71
g250
sg64
(lp257
g57
(g66
g59
NtRp258
(dp259
g62
(dp260
g70
I4
ssg71
Nsg64
(lp261
g57
(g73
g59
NtRp262
(dp263
g62
(dp264
sg71
g258
sg64
(lp265
g57
(g78
g59
NtRp266
(dp267
g62
(dp268
g82
g83
ssg71
g262
sg64
(lp269
S'session_id_admin'
p270
asbag57
(g78
g59
NtRp271
(dp272
g62
(dp273
g89
g90
ssg71
g262
sg64
(lp274
S':'
asbag57
(g78
g59
NtRp275
(dp276
g62
(dp277
sg71
g262
sg64
(lp278
g57
(g58
g59
NtRp279
(dp280
g62
(dp281
g70
I4
ssg71
g275
sg64
(lp282
g57
(g66
g59
NtRp283
(dp284
g62
(dp285
g70
I3
ssg71
Nsg64
(lp286
g57
(g73
g59
NtRp287
(dp288
g62
(dp289
sg71
g283
sg64
(lp290
g57
(g78
g59
NtRp291
(dp292
g62
(dp293
g82
g83
ssg71
g287
sg64
(lp294
S'comment'
p295
asbag57
(g78
g59
NtRp296
(dp297
g62
(dp298
g89
g90
ssg71
g287
sg64
(lp299
S':'
asbag57
(g78
g59
NtRp300
(dp301
g62
(dp302
sg71
g287
sg64
(lp303
g57
(g58
g59
NtRp304
(dp305
g62
(dp306
g70
I3
ssg71
g300
sg64
(lp307
S''
asbasbasbag57
(g73
g59
NtRp308
(dp309
g62
(dp310
sg71
g283
sg64
(lp311
g57
(g78
g59
NtRp312
(dp313
g62
(dp314
g82
g83
ssg71
g308
sg64
(lp315
S'domain'
p316
asbag57
(g78
g59
NtRp317
(dp318
g62
(dp319
g89
g90
ssg71
g308
sg64
(lp320
S':'
asbag57
(g78
g59
NtRp321
(dp322
g62
(dp323
sg71
g308
sg64
(lp324
g57
(g58
g59
NtRp325
(dp326
g62
(dp327
g70
I3
ssg71
g321
sg64
(lp328
S''
asbasbasbag57
(g73
g59
NtRp329
(dp330
g62
(dp331
sg71
g283
sg64
(lp332
g57
(g78
g59
NtRp333
(dp334
g62
(dp335
g82
g83
ssg71
g329
sg64
(lp336
S'expires'
p337
asbag57
(g78
g59
NtRp338
(dp339
g62
(dp340
g89
g90
ssg71
g329
sg64
(lp341
S':'
asbag57
(g78
g59
NtRp342
(dp343
g62
(dp344
sg71
g329
sg64
(lp345
g57
(g58
g59
NtRp346
(dp347
g62
(dp348
g70
I3
ssg71
g342
sg64
(lp349
S''
asbasbasbag57
(g73
g59
NtRp350
(dp351
g62
(dp352
sg71
g283
sg64
(lp353
g57
(g78
g59
NtRp354
(dp355
g62
(dp356
g82
g83
ssg71
g350
sg64
(lp357
S'httponly'
p358
asbag57
(g78
g59
NtRp359
(dp360
g62
(dp361
g89
g90
ssg71
g350
sg64
(lp362
S':'
asbag57
(g78
g59
NtRp363
(dp364
g62
(dp365
sg71
g350
sg64
(lp366
g57
(g58
g59
NtRp367
(dp368
g62
(dp369
g70
I3
ssg71
g363
sg64
(lp370
S''
asbasbasbag57
(g73
g59
NtRp371
(dp372
g62
(dp373
sg71
g283
sg64
(lp374
g57
(g78
g59
NtRp375
(dp376
g62
(dp377
g82
g83
ssg71
g371
sg64
(lp378
S'max-age'
p379
asbag57
(g78
g59
NtRp380
(dp381
g62
(dp382
g89
g90
ssg71
g371
sg64
(lp383
S':'
asbag57
(g78
g59
NtRp384
(dp385
g62
(dp386
sg71
g371
sg64
(lp387
g57
(g58
g59
NtRp388
(dp389
g62
(dp390
g70
I3
ssg71
g384
sg64
(lp391
S''
asbasbasbag57
(g73
g59
NtRp392
(dp393
g62
(dp394
sg71
g283
sg64
(lp395
g57
(g78
g59
NtRp396
(dp397
g62
(dp398
g82
g83
ssg71
g392
sg64
(lp399
S'path'
p400
asbag57
(g78
g59
NtRp401
(dp402
g62
(dp403
g89
g90
ssg71
g392
sg64
(lp404
S':'
asbag57
(g78
g59
NtRp405
(dp406
g62
(dp407
sg71
g392
sg64
(lp408
g57
(g58
g59
NtRp409
(dp410
g62
(dp411
g70
I3
ssg71
g405
sg64
(lp412
S''
asbasbasbag57
(g73
g59
NtRp413
(dp414
g62
(dp415
sg71
g283
sg64
(lp416
g57
(g78
g59
NtRp417
(dp418
g62
(dp419
g82
g83
ssg71
g413
sg64
(lp420
S'secure'
p421
asbag57
(g78
g59
NtRp422
(dp423
g62
(dp424
g89
g90
ssg71
g413
sg64
(lp425
S':'
asbag57
(g78
g59
NtRp426
(dp427
g62
(dp428
sg71
g413
sg64
(lp429
g57
(g58
g59
NtRp430
(dp431
g62
(dp432
g70
I3
ssg71
g426
sg64
(lp433
S''
asbasbasbag57
(g73
g59
NtRp434
(dp435
g62
(dp436
sg71
g283
sg64
(lp437
g57
(g78
g59
NtRp438
(dp439
g62
(dp440
g82
g83
ssg71
g434
sg64
(lp441
S'version'
p442
asbag57
(g78
g59
NtRp443
(dp444
g62
(dp445
g89
g90
ssg71
g434
sg64
(lp446
S':'
asbag57
(g78
g59
NtRp447
(dp448
g62
(dp449
sg71
g434
sg64
(lp450
g57
(g58
g59
NtRp451
(dp452
g62
(dp453
g70
I3
ssg71
g447
sg64
(lp454
S''
asbasbasbasbasbasbasbag57
(g73
g59
NtRp455
(dp456
g62
(dp457
sg71
g258
sg64
(lp458
g57
(g78
g59
NtRp459
(dp460
g62
(dp461
g82
g83
ssg71
g455
sg64
(lp462
S'session_id_bigvotes'
p463
asbag57
(g78
g59
NtRp464
(dp465
g62
(dp466
g89
g90
ssg71
g455
sg64
(lp467
S':'
asbag57
(g78
g59
NtRp468
(dp469
g62
(dp470
sg71
g455
sg64
(lp471
g57
(g58
g59
NtRp472
(dp473
g62
(dp474
g70
I4
ssg71
g468
sg64
(lp475
g57
(g66
g59
NtRp476
(dp477
g62
(dp478
g70
I3
ssg71
Nsg64
(lp479
g57
(g73
g59
NtRp480
(dp481
g62
(dp482
sg71
g476
sg64
(lp483
g57
(g78
g59
NtRp484
(dp485
g62
(dp486
g82
g83
ssg71
g480
sg64
(lp487
g295
asbag57
(g78
g59
NtRp488
(dp489
g62
(dp490
g89
g90
ssg71
g480
sg64
(lp491
S':'
asbag57
(g78
g59
NtRp492
(dp493
g62
(dp494
sg71
g480
sg64
(lp495
g57
(g58
g59
NtRp496
(dp497
g62
(dp498
g70
I3
ssg71
g492
sg64
(lp499
S''
asbasbasbag57
(g73
g59
NtRp500
(dp501
g62
(dp502
sg71
g476
sg64
(lp503
g57
(g78
g59
NtRp504
(dp505
g62
(dp506
g82
g83
ssg71
g500
sg64
(lp507
g316
asbag57
(g78
g59
NtRp508
(dp509
g62
(dp510
g89
g90
ssg71
g500
sg64
(lp511
S':'
asbag57
(g78
g59
NtRp512
(dp513
g62
(dp514
sg71
g500
sg64
(lp515
g57
(g58
g59
NtRp516
(dp517
g62
(dp518
g70
I3
ssg71
g512
sg64
(lp519
S''
asbasbasbag57
(g73
g59
NtRp520
(dp521
g62
(dp522
sg71
g476
sg64
(lp523
g57
(g78
g59
NtRp524
(dp525
g62
(dp526
g82
g83
ssg71
g520
sg64
(lp527
g337
asbag57
(g78
g59
NtRp528
(dp529
g62
(dp530
g89
g90
ssg71
g520
sg64
(lp531
S':'
asbag57
(g78
g59
NtRp532
(dp533
g62
(dp534
sg71
g520
sg64
(lp535
g57
(g58
g59
NtRp536
(dp537
g62
(dp538
g70
I3
ssg71
g532
sg64
(lp539
S''
asbasbasbag57
(g73
g59
NtRp540
(dp541
g62
(dp542
sg71
g476
sg64
(lp543
g57
(g78
g59
NtRp544
(dp545
g62
(dp546
g82
g83
ssg71
g540
sg64
(lp547
g358
asbag57
(g78
g59
NtRp548
(dp549
g62
(dp550
g89
g90
ssg71
g540
sg64
(lp551
S':'
asbag57
(g78
g59
NtRp552
(dp553
g62
(dp554
sg71
g540
sg64
(lp555
g57
(g58
g59
NtRp556
(dp557
g62
(dp558
g70
I3
ssg71
g552
sg64
(lp559
S''
asbasbasbag57
(g73
g59
NtRp560
(dp561
g62
(dp562
sg71
g476
sg64
(lp563
g57
(g78
g59
NtRp564
(dp565
g62
(dp566
g82
g83
ssg71
g560
sg64
(lp567
g379
asbag57
(g78
g59
NtRp568
(dp569
g62
(dp570
g89
g90
ssg71
g560
sg64
(lp571
S':'
asbag57
(g78
g59
NtRp572
(dp573
g62
(dp574
sg71
g560
sg64
(lp575
g57
(g58
g59
NtRp576
(dp577
g62
(dp578
g70
I3
ssg71
g572
sg64
(lp579
S''
asbasbasbag57
(g73
g59
NtRp580
(dp581
g62
(dp582
sg71
g476
sg64
(lp583
g57
(g78
g59
NtRp584
(dp585
g62
(dp586
g82
g83
ssg71
g580
sg64
(lp587
g400
asbag57
(g78
g59
NtRp588
(dp589
g62
(dp590
g89
g90
ssg71
g580
sg64
(lp591
S':'
asbag57
(g78
g59
NtRp592
(dp593
g62
(dp594
sg71
g580
sg64
(lp595
g57
(g58
g59
NtRp596
(dp597
g62
(dp598
g70
I3
ssg71
g592
sg64
(lp599
S''
asbasbasbag57
(g73
g59
NtRp600
(dp601
g62
(dp602
sg71
g476
sg64
(lp603
g57
(g78
g59
NtRp604
(dp605
g62
(dp606
g82
g83
ssg71
g600
sg64
(lp607
g421
asbag57
(g78
g59
NtRp608
(dp609
g62
(dp610
g89
g90
ssg71
g600
sg64
(lp611
S':'
asbag57
(g78
g59
NtRp612
(dp613
g62
(dp614
sg71
g600
sg64
(lp615
g57
(g58
g59
NtRp616
(dp617
g62
(dp618
g70
I3
ssg71
g612
sg64
(lp619
S''
asbasbasbag57
(g73
g59
NtRp620
(dp621
g62
(dp622
sg71
g476
sg64
(lp623
g57
(g78
g59
NtRp624
(dp625
g62
(dp626
g82
g83
ssg71
g620
sg64
(lp627
g442
asbag57
(g78
g59
NtRp628
(dp629
g62
(dp630
g89
g90
ssg71
g620
sg64
(lp631
S':'
asbag57
(g78
g59
NtRp632
(dp633
g62
(dp634
sg71
g620
sg64
(lp635
g57
(g58
g59
NtRp636
(dp637
g62
(dp638
g70
I3
ssg71
g632
sg64
(lp639
S''
asbasbasbasbasbasbasbag57
(g73
g59
NtRp640
(dp641
g62
(dp642
sg71
g258
sg64
(lp643
g57
(g78
g59
NtRp644
(dp645
g62
(dp646
g82
g83
ssg71
g640
sg64
(lp647
S'session_id_welcome'
p648
asbag57
(g78
g59
NtRp649
(dp650
g62
(dp651
g89
g90
ssg71
g640
sg64
(lp652
S':'
asbag57
(g78
g59
NtRp653
(dp654
g62
(dp655
sg71
g640
sg64
(lp656
g57
(g58
g59
NtRp657
(dp658
g62
(dp659
g70
I4
ssg71
g653
sg64
(lp660
g57
(g66
g59
NtRp661
(dp662
g62
(dp663
g70
I3
ssg71
Nsg64
(lp664
g57
(g73
g59
NtRp665
(dp666
g62
(dp667
sg71
g661
sg64
(lp668
g57
(g78
g59
NtRp669
(dp670
g62
(dp671
g82
g83
ssg71
g665
sg64
(lp672
g295
asbag57
(g78
g59
NtRp673
(dp674
g62
(dp675
g89
g90
ssg71
g665
sg64
(lp676
S':'
asbag57
(g78
g59
NtRp677
(dp678
g62
(dp679
sg71
g665
sg64
(lp680
g57
(g58
g59
NtRp681
(dp682
g62
(dp683
g70
I3
ssg71
g677
sg64
(lp684
S''
asbasbasbag57
(g73
g59
NtRp685
(dp686
g62
(dp687
sg71
g661
sg64
(lp688
g57
(g78
g59
NtRp689
(dp690
g62
(dp691
g82
g83
ssg71
g685
sg64
(lp692
g316
asbag57
(g78
g59
NtRp693
(dp694
g62
(dp695
g89
g90
ssg71
g685
sg64
(lp696
S':'
asbag57
(g78
g59
NtRp697
(dp698
g62
(dp699
sg71
g685
sg64
(lp700
g57
(g58
g59
NtRp701
(dp702
g62
(dp703
g70
I3
ssg71
g697
sg64
(lp704
S''
asbasbasbag57
(g73
g59
NtRp705
(dp706
g62
(dp707
sg71
g661
sg64
(lp708
g57
(g78
g59
NtRp709
(dp710
g62
(dp711
g82
g83
ssg71
g705
sg64
(lp712
g337
asbag57
(g78
g59
NtRp713
(dp714
g62
(dp715
g89
g90
ssg71
g705
sg64
(lp716
S':'
asbag57
(g78
g59
NtRp717
(dp718
g62
(dp719
sg71
g705
sg64
(lp720
g57
(g58
g59
NtRp721
(dp722
g62
(dp723
g70
I3
ssg71
g717
sg64
(lp724
S''
asbasbasbag57
(g73
g59
NtRp725
(dp726
g62
(dp727
sg71
g661
sg64
(lp728
g57
(g78
g59
NtRp729
(dp730
g62
(dp731
g82
g83
ssg71
g725
sg64
(lp732
g358
asbag57
(g78
g59
NtRp733
(dp734
g62
(dp735
g89
g90
ssg71
g725
sg64
(lp736
S':'
asbag57
(g78
g59
NtRp737
(dp738
g62
(dp739
sg71
g725
sg64
(lp740
g57
(g58
g59
NtRp741
(dp742
g62
(dp743
g70
I3
ssg71
g737
sg64
(lp744
S''
asbasbasbag57
(g73
g59
NtRp745
(dp746
g62
(dp747
sg71
g661
sg64
(lp748
g57
(g78
g59
NtRp749
(dp750
g62
(dp751
g82
g83
ssg71
g745
sg64
(lp752
g379
asbag57
(g78
g59
NtRp753
(dp754
g62
(dp755
g89
g90
ssg71
g745
sg64
(lp756
S':'
asbag57
(g78
g59
NtRp757
(dp758
g62
(dp759
sg71
g745
sg64
(lp760
g57
(g58
g59
NtRp761
(dp762
g62
(dp763
g70
I3
ssg71
g757
sg64
(lp764
S''
asbasbasbag57
(g73
g59
NtRp765
(dp766
g62
(dp767
sg71
g661
sg64
(lp768
g57
(g78
g59
NtRp769
(dp770
g62
(dp771
g82
g83
ssg71
g765
sg64
(lp772
g400
asbag57
(g78
g59
NtRp773
(dp774
g62
(dp775
g89
g90
ssg71
g765
sg64
(lp776
S':'
asbag57
(g78
g59
NtRp777
(dp778
g62
(dp779
sg71
g765
sg64
(lp780
g57
(g58
g59
NtRp781
(dp782
g62
(dp783
g70
I3
ssg71
g777
sg64
(lp784
S''
asbasbasbag57
(g73
g59
NtRp785
(dp786
g62
(dp787
sg71
g661
sg64
(lp788
g57
(g78
g59
NtRp789
(dp790
g62
(dp791
g82
g83
ssg71
g785
sg64
(lp792
g421
asbag57
(g78
g59
NtRp793
(dp794
g62
(dp795
g89
g90
ssg71
g785
sg64
(lp796
S':'
asbag57
(g78
g59
NtRp797
(dp798
g62
(dp799
sg71
g785
sg64
(lp800
g57
(g58
g59
NtRp801
(dp802
g62
(dp803
g70
I3
ssg71
g797
sg64
(lp804
S''
asbasbasbag57
(g73
g59
NtRp805
(dp806
g62
(dp807
sg71
g661
sg64
(lp808
g57
(g78
g59
NtRp809
(dp810
g62
(dp811
g82
g83
ssg71
g805
sg64
(lp812
g442
asbag57
(g78
g59
NtRp813
(dp814
g62
(dp815
g89
g90
ssg71
g805
sg64
(lp816
S':'
asbag57
(g78
g59
NtRp817
(dp818
g62
(dp819
sg71
g805
sg64
(lp820
g57
(g58
g59
NtRp821
(dp822
g62
(dp823
g70
I3
ssg71
g817
sg64
(lp824
S''
asbasbasbasbasbasbasbasbasbasbasbag57
(g73
g59
NtRp825
(dp826
g62
(dp827
sg71
g67
sg64
(lp828
g57
(g78
g59
NtRp829
(dp830
g62
(dp831
g82
g83
ssg71
g825
sg64
(lp832
S'env'
p833
asbag57
(g78
g59
NtRp834
(dp835
g62
(dp836
g89
g90
ssg71
g825
sg64
(lp837
S':'
asbag57
(g78
g59
NtRp838
(dp839
g62
(dp840
sg71
g825
sg64
(lp841
g57
(g58
g59
NtRp842
(dp843
g62
(dp844
g70
I5
ssg71
g838
sg64
(lp845
g57
(g66
g59
NtRp846
(dp847
g62
(dp848
g70
I4
ssg71
Nsg64
(lp849
g57
(g73
g59
NtRp850
(dp851
g62
(dp852
sg71
g846
sg64
(lp853
g57
(g78
g59
NtRp854
(dp855
g62
(dp856
g82
g83
ssg71
g850
sg64
(lp857
S'app_folders'
p858
asbag57
(g78
g59
NtRp859
(dp860
g62
(dp861
g89
g90
ssg71
g850
sg64
(lp862
S':'
asbag57
(g78
g59
NtRp863
(dp864
g62
(dp865
sg71
g850
sg64
(lp866
g57
(g58
g59
NtRp867
(dp868
g62
(dp869
g70
I4
ssg71
g863
sg64
(lp870
S"set(['/home/kaique/Projects/web/big-votes/web2py/applications/bigvotes/', '/home/kaique/Projects/web/big-votes/web2py/applications/admin/'])"
p871
asbasbasbag57
(g73
g59
NtRp872
(dp873
g62
(dp874
sg71
g846
sg64
(lp875
g57
(g78
g59
NtRp876
(dp877
g62
(dp878
g82
g83
ssg71
g872
sg64
(lp879
S'applications_parent'
p880
asbag57
(g78
g59
NtRp881
(dp882
g62
(dp883
g89
g90
ssg71
g872
sg64
(lp884
S':'
asbag57
(g78
g59
NtRp885
(dp886
g62
(dp887
sg71
g872
sg64
(lp888
g57
(g58
g59
NtRp889
(dp890
g62
(dp891
g70
I4
ssg71
g885
sg64
(lp892
S'/home/kaique/Projects/web/big-votes/web2py'
p893
asbasbasbag57
(g73
g59
NtRp894
(dp895
g62
(dp896
sg71
g846
sg64
(lp897
g57
(g78
g59
NtRp898
(dp899
g62
(dp900
g82
g83
ssg71
g894
sg64
(lp901
S'cmd_args'
p902
asbag57
(g78
g59
NtRp903
(dp904
g62
(dp905
g89
g90
ssg71
g894
sg64
(lp906
S':'
asbag57
(g78
g59
NtRp907
(dp908
g62
(dp909
sg71
g894
sg64
(lp910
g57
(g58
g59
NtRp911
(dp912
g62
(dp913
g70
I4
ssg71
g907
sg64
(lp914
g57
(g66
g59
NtRp915
(dp916
g62
(dp917
g70
I3
ssg71
Nsg64
(lp918
sbasbasbasbag57
(g73
g59
NtRp919
(dp920
g62
(dp921
sg71
g846
sg64
(lp922
g57
(g78
g59
NtRp923
(dp924
g62
(dp925
g82
g83
ssg71
g919
sg64
(lp926
S'cmd_options'
p927
asbag57
(g78
g59
NtRp928
(dp929
g62
(dp930
g89
g90
ssg71
g919
sg64
(lp931
S':'
asbag57
(g78
g59
NtRp932
(dp933
g62
(dp934
sg71
g919
sg64
(lp935
g57
(g58
g59
NtRp936
(dp937
g62
(dp938
g70
I4
ssg71
g932
sg64
(lp939
S"<Values at 0x86119ec: {'verbose': False, 'ip': '127.0.0.1', 'shutdown_timeout': 5, 'taskbar': False, 'nocron': False, 'pid_filename': 'httpserver.pid', 'maxthreads': None, 'softcron': False, 'server_name': 'main', 'bpython': False, 'nogui': False, 'port': 8000, 'extcron': False, 'debuglevel': 30, 'test': None, 'folder': '/home/kaique/Projects/web/big-votes/web2py', 'config': '', 'import_models': False, 'winservice': '', 'shell': None, 'run': '', 'log_filename': 'httpserver.log', 'args': [''], 'socket_timeout': 5, 'ssl_ca_certificate': None, 'scheduler': None, 'profiler_filename': None, 'ssl_private_key': '', 'password': 'dev', 'request_queue_size': 5, 'ssl_certificate': '', 'cronjob': False, 'numthreads': None, 'quiet': False, 'interfaces': None, 'minthreads': None, 'timeout': 10, 'plain': False, 'nobanner': False}>"
p940
asbasbasbag57
(g73
g59
NtRp941
(dp942
g62
(dp943
sg71
g846
sg64
(lp944
g57
(g78
g59
NtRp945
(dp946
g62
(dp947
g82
g83
ssg71
g941
sg64
(lp948
S'db_sessions'
p949
asbag57
(g78
g59
NtRp950
(dp951
g62
(dp952
g89
g90
ssg71
g941
sg64
(lp953
S':'
asbag57
(g78
g59
NtRp954
(dp955
g62
(dp956
sg71
g941
sg64
(lp957
g57
(g58
g59
NtRp958
(dp959
g62
(dp960
g70
I4
ssg71
g954
sg64
(lp961
S'set([])'
p962
asbasbasbag57
(g73
g59
NtRp963
(dp964
g62
(dp965
sg71
g846
sg64
(lp966
g57
(g78
g59
NtRp967
(dp968
g62
(dp969
g82
g83
ssg71
g963
sg64
(lp970
S'debugging'
p971
asbag57
(g78
g59
NtRp972
(dp973
g62
(dp974
g89
g90
ssg71
g963
sg64
(lp975
S':'
asbag57
(g78
g59
NtRp976
(dp977
g62
(dp978
sg71
g963
sg64
(lp979
g57
(g58
g59
NtRp980
(dp981
g62
(dp982
g70
I4
ssg71
g976
sg64
(lp983
g100
asbasbasbag57
(g73
g59
NtRp984
(dp985
g62
(dp986
sg71
g846
sg64
(lp987
g57
(g78
g59
NtRp988
(dp989
g62
(dp990
g82
g83
ssg71
g984
sg64
(lp991
S'gluon_parent'
p992
asbag57
(g78
g59
NtRp993
(dp994
g62
(dp995
g89
g90
ssg71
g984
sg64
(lp996
S':'
asbag57
(g78
g59
NtRp997
(dp998
g62
(dp999
sg71
g984
sg64
(lp1000
g57
(g58
g59
NtRp1001
(dp1002
g62
(dp1003
g70
I4
ssg71
g997
sg64
(lp1004
S'/home/kaique/Projects/web/big-votes/web2py'
p1005
asbasbasbag57
(g73
g59
NtRp1006
(dp1007
g62
(dp1008
sg71
g846
sg64
(lp1009
g57
(g78
g59
NtRp1010
(dp1011
g62
(dp1012
g82
g83
ssg71
g1006
sg64
(lp1013
S'http_accept'
p1014
asbag57
(g78
g59
NtRp1015
(dp1016
g62
(dp1017
g89
g90
ssg71
g1006
sg64
(lp1018
S':'
asbag57
(g78
g59
NtRp1019
(dp1020
g62
(dp1021
sg71
g1006
sg64
(lp1022
g57
(g58
g59
NtRp1023
(dp1024
g62
(dp1025
g70
I4
ssg71
g1019
sg64
(lp1026
S'text/html,application/xhtml+xml,application/xml;q=0.9,*/*;q=0.8'
p1027
asbasbasbag57
(g73
g59
NtRp1028
(dp1029
g62
(dp1030
sg71
g846
sg64
(lp1031
g57
(g78
g59
NtRp1032
(dp1033
g62
(dp1034
g82
g83
ssg71
g1028
sg64
(lp1035
S'http_accept_encoding'
p1036
asbag57
(g78
g59
NtRp1037
(dp1038
g62
(dp1039
g89
g90
ssg71
g1028
sg64
(lp1040
S':'
asbag57
(g78
g59
NtRp1041
(dp1042
g62
(dp1043
sg71
g1028
sg64
(lp1044
g57
(g58
g59
NtRp1045
(dp1046
g62
(dp1047
g70
I4
ssg71
g1041
sg64
(lp1048
S'gzip, deflate'
p1049
asbasbasbag57
(g73
g59
NtRp1050
(dp1051
g62
(dp1052
sg71
g846
sg64
(lp1053
g57
(g78
g59
NtRp1054
(dp1055
g62
(dp1056
g82
g83
ssg71
g1050
sg64
(lp1057
S'http_accept_language'
p1058
asbag57
(g78
g59
NtRp1059
(dp1060
g62
(dp1061
g89
g90
ssg71
g1050
sg64
(lp1062
S':'
asbag57
(g78
g59
NtRp1063
(dp1064
g62
(dp1065
sg71
g1050
sg64
(lp1066
g57
(g58
g59
NtRp1067
(dp1068
g62
(dp1069
g70
I4
ssg71
g1063
sg64
(lp1070
S'en-us,en;q=0.5'
p1071
asbasbasbag57
(g73
g59
NtRp1072
(dp1073
g62
(dp1074
sg71
g846
sg64
(lp1075
g57
(g78
g59
NtRp1076
(dp1077
g62
(dp1078
g82
g83
ssg71
g1072
sg64
(lp1079
S'http_cache_control'
p1080
asbag57
(g78
g59
NtRp1081
(dp1082
g62
(dp1083
g89
g90
ssg71
g1072
sg64
(lp1084
S':'
asbag57
(g78
g59
NtRp1085
(dp1086
g62
(dp1087
sg71
g1072
sg64
(lp1088
g57
(g58
g59
NtRp1089
(dp1090
g62
(dp1091
g70
I4
ssg71
g1085
sg64
(lp1092
S'max-age=0'
p1093
asbasbasbag57
(g73
g59
NtRp1094
(dp1095
g62
(dp1096
sg71
g846
sg64
(lp1097
g57
(g78
g59
NtRp1098
(dp1099
g62
(dp1100
g82
g83
ssg71
g1094
sg64
(lp1101
S'http_connection'
p1102
asbag57
(g78
g59
NtRp1103
(dp1104
g62
(dp1105
g89
g90
ssg71
g1094
sg64
(lp1106
S':'
asbag57
(g78
g59
NtRp1107
(dp1108
g62
(dp1109
sg71
g1094
sg64
(lp1110
g57
(g58
g59
NtRp1111
(dp1112
g62
(dp1113
g70
I4
ssg71
g1107
sg64
(lp1114
S'keep-alive'
p1115
asbasbasbag57
(g73
g59
NtRp1116
(dp1117
g62
(dp1118
sg71
g846
sg64
(lp1119
g57
(g78
g59
NtRp1120
(dp1121
g62
(dp1122
g82
g83
ssg71
g1116
sg64
(lp1123
S'http_cookie'
p1124
asbag57
(g78
g59
NtRp1125
(dp1126
g62
(dp1127
g89
g90
ssg71
g1116
sg64
(lp1128
S':'
asbag57
(g78
g59
NtRp1129
(dp1130
g62
(dp1131
sg71
g1116
sg64
(lp1132
g57
(g58
g59
NtRp1133
(dp1134
g62
(dp1135
g70
I4
ssg71
g1129
sg64
(lp1136
S'session_id_welcome=127.0.0.1-2ecfa9c2-5112-46c3-a61d-d3ed2a022cb8; session_id_admin=127.0.0.1-bbb3d6a0-08e9-48b9-b2e9-87a0603316cc; session_id_bigvotes=127.0.0.1-72286364-99c3-4aae-95dc-f33a83b4d6f1'
p1137
asbasbasbag57
(g73
g59
NtRp1138
(dp1139
g62
(dp1140
sg71
g846
sg64
(lp1141
g57
(g78
g59
NtRp1142
(dp1143
g62
(dp1144
g82
g83
ssg71
g1138
sg64
(lp1145
S'http_host'
p1146
asbag57
(g78
g59
NtRp1147
(dp1148
g62
(dp1149
g89
g90
ssg71
g1138
sg64
(lp1150
S':'
asbag57
(g78
g59
NtRp1151
(dp1152
g62
(dp1153
sg71
g1138
sg64
(lp1154
g57
(g58
g59
NtRp1155
(dp1156
g62
(dp1157
g70
I4
ssg71
g1151
sg64
(lp1158
S'localhost:8000'
p1159
asbasbasbag57
(g73
g59
NtRp1160
(dp1161
g62
(dp1162
sg71
g846
sg64
(lp1163
g57
(g78
g59
NtRp1164
(dp1165
g62
(dp1166
g82
g83
ssg71
g1160
sg64
(lp1167
S'http_referer'
p1168
asbag57
(g78
g59
NtRp1169
(dp1170
g62
(dp1171
g89
g90
ssg71
g1160
sg64
(lp1172
S':'
asbag57
(g78
g59
NtRp1173
(dp1174
g62
(dp1175
sg71
g1160
sg64
(lp1176
g57
(g58
g59
NtRp1177
(dp1178
g62
(dp1179
g70
I4
ssg71
g1173
sg64
(lp1180
S'http://localhost:8000/bigvotes/default/index/result'
p1181
asbasbasbag57
(g73
g59
NtRp1182
(dp1183
g62
(dp1184
sg71
g846
sg64
(lp1185
g57
(g78
g59
NtRp1186
(dp1187
g62
(dp1188
g82
g83
ssg71
g1182
sg64
(lp1189
S'http_user_agent'
p1190
asbag57
(g78
g59
NtRp1191
(dp1192
g62
(dp1193
g89
g90
ssg71
g1182
sg64
(lp1194
S':'
asbag57
(g78
g59
NtRp1195
(dp1196
g62
(dp1197
sg71
g1182
sg64
(lp1198
g57
(g58
g59
NtRp1199
(dp1200
g62
(dp1201
g70
I4
ssg71
g1195
sg64
(lp1202
S'Mozilla/5.0 (X11; Linux i686; rv:12.0) Gecko/20100101 Firefox/12.0'
p1203
asbasbasbag57
(g73
g59
NtRp1204
(dp1205
g62
(dp1206
sg71
g846
sg64
(lp1207
g57
(g78
g59
NtRp1208
(dp1209
g62
(dp1210
g82
g83
ssg71
g1204
sg64
(lp1211
S'is_jython'
p1212
asbag57
(g78
g59
NtRp1213
(dp1214
g62
(dp1215
g89
g90
ssg71
g1204
sg64
(lp1216
S':'
asbag57
(g78
g59
NtRp1217
(dp1218
g62
(dp1219
sg71
g1204
sg64
(lp1220
g57
(g58
g59
NtRp1221
(dp1222
g62
(dp1223
g70
I4
ssg71
g1217
sg64
(lp1224
g100
asbasbasbag57
(g73
g59
NtRp1225
(dp1226
g62
(dp1227
sg71
g846
sg64
(lp1228
g57
(g78
g59
NtRp1229
(dp1230
g62
(dp1231
g82
g83
ssg71
g1225
sg64
(lp1232
S'is_pypy'
p1233
asbag57
(g78
g59
NtRp1234
(dp1235
g62
(dp1236
g89
g90
ssg71
g1225
sg64
(lp1237
S':'
asbag57
(g78
g59
NtRp1238
(dp1239
g62
(dp1240
sg71
g1225
sg64
(lp1241
g57
(g58
g59
NtRp1242
(dp1243
g62
(dp1244
g70
I4
ssg71
g1238
sg64
(lp1245
g100
asbasbasbag57
(g73
g59
NtRp1246
(dp1247
g62
(dp1248
sg71
g846
sg64
(lp1249
g57
(g78
g59
NtRp1250
(dp1251
g62
(dp1252
g82
g83
ssg71
g1246
sg64
(lp1253
S'path_info'
p1254
asbag57
(g78
g59
NtRp1255
(dp1256
g62
(dp1257
g89
g90
ssg71
g1246
sg64
(lp1258
S':'
asbag57
(g78
g59
NtRp1259
(dp1260
g62
(dp1261
sg71
g1246
sg64
(lp1262
g57
(g58
g59
NtRp1263
(dp1264
g62
(dp1265
g70
I4
ssg71
g1259
sg64
(lp1266
S'/bigvotes/vote/index/1/1'
p1267
asbasbasbag57
(g73
g59
NtRp1268
(dp1269
g62
(dp1270
sg71
g846
sg64
(lp1271
g57
(g78
g59
NtRp1272
(dp1273
g62
(dp1274
g82
g83
ssg71
g1268
sg64
(lp1275
S'query_string'
p1276
asbag57
(g78
g59
NtRp1277
(dp1278
g62
(dp1279
g89
g90
ssg71
g1268
sg64
(lp1280
S':'
asbag57
(g78
g59
NtRp1281
(dp1282
g62
(dp1283
sg71
g1268
sg64
(lp1284
g57
(g58
g59
NtRp1285
(dp1286
g62
(dp1287
g70
I4
ssg71
g1281
sg64
(lp1288
S''
asbasbasbag57
(g73
g59
NtRp1289
(dp1290
g62
(dp1291
sg71
g846
sg64
(lp1292
g57
(g78
g59
NtRp1293
(dp1294
g62
(dp1295
g82
g83
ssg71
g1289
sg64
(lp1296
S'remote_addr'
p1297
asbag57
(g78
g59
NtRp1298
(dp1299
g62
(dp1300
g89
g90
ssg71
g1289
sg64
(lp1301
S':'
asbag57
(g78
g59
NtRp1302
(dp1303
g62
(dp1304
sg71
g1289
sg64
(lp1305
g57
(g58
g59
NtRp1306
(dp1307
g62
(dp1308
g70
I4
ssg71
g1302
sg64
(lp1309
g214
asbasbasbag57
(g73
g59
NtRp1310
(dp1311
g62
(dp1312
sg71
g846
sg64
(lp1313
g57
(g78
g59
NtRp1314
(dp1315
g62
(dp1316
g82
g83
ssg71
g1310
sg64
(lp1317
S'remote_port'
p1318
asbag57
(g78
g59
NtRp1319
(dp1320
g62
(dp1321
g89
g90
ssg71
g1310
sg64
(lp1322
S':'
asbag57
(g78
g59
NtRp1323
(dp1324
g62
(dp1325
sg71
g1310
sg64
(lp1326
g57
(g58
g59
NtRp1327
(dp1328
g62
(dp1329
g70
I4
ssg71
g1323
sg64
(lp1330
S'60027'
p1331
asbasbasbag57
(g73
g59
NtRp1332
(dp1333
g62
(dp1334
sg71
g846
sg64
(lp1335
g57
(g78
g59
NtRp1336
(dp1337
g62
(dp1338
g82
g83
ssg71
g1332
sg64
(lp1339
S'request_method'
p1340
asbag57
(g78
g59
NtRp1341
(dp1342
g62
(dp1343
g89
g90
ssg71
g1332
sg64
(lp1344
S':'
asbag57
(g78
g59
NtRp1345
(dp1346
g62
(dp1347
sg71
g1332
sg64
(lp1348
g57
(g58
g59
NtRp1349
(dp1350
g62
(dp1351
g70
I4
ssg71
g1345
sg64
(lp1352
S'GET'
p1353
asbasbasbag57
(g73
g59
NtRp1354
(dp1355
g62
(dp1356
sg71
g846
sg64
(lp1357
g57
(g78
g59
NtRp1358
(dp1359
g62
(dp1360
g82
g83
ssg71
g1354
sg64
(lp1361
S'request_uri'
p1362
asbag57
(g78
g59
NtRp1363
(dp1364
g62
(dp1365
g89
g90
ssg71
g1354
sg64
(lp1366
S':'
asbag57
(g78
g59
NtRp1367
(dp1368
g62
(dp1369
sg71
g1354
sg64
(lp1370
g57
(g58
g59
NtRp1371
(dp1372
g62
(dp1373
g70
I4
ssg71
g1367
sg64
(lp1374
g1267
asbasbasbag57
(g73
g59
NtRp1375
(dp1376
g62
(dp1377
sg71
g846
sg64
(lp1378
g57
(g78
g59
NtRp1379
(dp1380
g62
(dp1381
g82
g83
ssg71
g1375
sg64
(lp1382
S'script_name'
p1383
asbag57
(g78
g59
NtRp1384
(dp1385
g62
(dp1386
g89
g90
ssg71
g1375
sg64
(lp1387
S':'
asbag57
(g78
g59
NtRp1388
(dp1389
g62
(dp1390
sg71
g1375
sg64
(lp1391
g57
(g58
g59
NtRp1392
(dp1393
g62
(dp1394
g70
I4
ssg71
g1388
sg64
(lp1395
S''
asbasbasbag57
(g73
g59
NtRp1396
(dp1397
g62
(dp1398
sg71
g846
sg64
(lp1399
g57
(g78
g59
NtRp1400
(dp1401
g62
(dp1402
g82
g83
ssg71
g1396
sg64
(lp1403
S'server_name'
p1404
asbag57
(g78
g59
NtRp1405
(dp1406
g62
(dp1407
g89
g90
ssg71
g1396
sg64
(lp1408
S':'
asbag57
(g78
g59
NtRp1409
(dp1410
g62
(dp1411
sg71
g1396
sg64
(lp1412
g57
(g58
g59
NtRp1413
(dp1414
g62
(dp1415
g70
I4
ssg71
g1409
sg64
(lp1416
S'main'
p1417
asbasbasbag57
(g73
g59
NtRp1418
(dp1419
g62
(dp1420
sg71
g846
sg64
(lp1421
g57
(g78
g59
NtRp1422
(dp1423
g62
(dp1424
g82
g83
ssg71
g1418
sg64
(lp1425
S'server_port'
p1426
asbag57
(g78
g59
NtRp1427
(dp1428
g62
(dp1429
g89
g90
ssg71
g1418
sg64
(lp1430
S':'
asbag57
(g78
g59
NtRp1431
(dp1432
g62
(dp1433
sg71
g1418
sg64
(lp1434
g57
(g58
g59
NtRp1435
(dp1436
g62
(dp1437
g70
I4
ssg71
g1431
sg64
(lp1438
S'8000'
p1439
asbasbasbag57
(g73
g59
NtRp1440
(dp1441
g62
(dp1442
sg71
g846
sg64
(lp1443
g57
(g78
g59
NtRp1444
(dp1445
g62
(dp1446
g82
g83
ssg71
g1440
sg64
(lp1447
S'server_protocol'
p1448
asbag57
(g78
g59
NtRp1449
(dp1450
g62
(dp1451
g89
g90
ssg71
g1440
sg64
(lp1452
S':'
asbag57
(g78
g59
NtRp1453
(dp1454
g62
(dp1455
sg71
g1440
sg64
(lp1456
g57
(g58
g59
NtRp1457
(dp1458
g62
(dp1459
g70
I4
ssg71
g1453
sg64
(lp1460
S'HTTP/1.1'
p1461
asbasbasbag57
(g73
g59
NtRp1462
(dp1463
g62
(dp1464
sg71
g846
sg64
(lp1465
g57
(g78
g59
NtRp1466
(dp1467
g62
(dp1468
g82
g83
ssg71
g1462
sg64
(lp1469
S'server_software'
p1470
asbag57
(g78
g59
NtRp1471
(dp1472
g62
(dp1473
g89
g90
ssg71
g1462
sg64
(lp1474
S':'
asbag57
(g78
g59
NtRp1475
(dp1476
g62
(dp1477
sg71
g1462
sg64
(lp1478
g57
(g58
g59
NtRp1479
(dp1480
g62
(dp1481
g70
I4
ssg71
g1475
sg64
(lp1482
S'Rocket 1.2.4'
p1483
asbasbasbag57
(g73
g59
NtRp1484
(dp1485
g62
(dp1486
sg71
g846
sg64
(lp1487
g57
(g78
g59
NtRp1488
(dp1489
g62
(dp1490
g82
g83
ssg71
g1484
sg64
(lp1491
S'web2py_crontype'
p1492
asbag57
(g78
g59
NtRp1493
(dp1494
g62
(dp1495
g89
g90
ssg71
g1484
sg64
(lp1496
S':'
asbag57
(g78
g59
NtRp1497
(dp1498
g62
(dp1499
sg71
g1484
sg64
(lp1500
g57
(g58
g59
NtRp1501
(dp1502
g62
(dp1503
g70
I4
ssg71
g1497
sg64
(lp1504
S'hard'
p1505
asbasbasbag57
(g73
g59
NtRp1506
(dp1507
g62
(dp1508
sg71
g846
sg64
(lp1509
g57
(g78
g59
NtRp1510
(dp1511
g62
(dp1512
g82
g83
ssg71
g1506
sg64
(lp1513
S'web2py_original_uri'
p1514
asbag57
(g78
g59
NtRp1515
(dp1516
g62
(dp1517
g89
g90
ssg71
g1506
sg64
(lp1518
S':'
asbag57
(g78
g59
NtRp1519
(dp1520
g62
(dp1521
sg71
g1506
sg64
(lp1522
g57
(g58
g59
NtRp1523
(dp1524
g62
(dp1525
g70
I4
ssg71
g1519
sg64
(lp1526
g1267
asbasbasbag57
(g73
g59
NtRp1527
(dp1528
g62
(dp1529
sg71
g846
sg64
(lp1530
g57
(g78
g59
NtRp1531
(dp1532
g62
(dp1533
g82
g83
ssg71
g1527
sg64
(lp1534
S'web2py_path'
p1535
asbag57
(g78
g59
NtRp1536
(dp1537
g62
(dp1538
g89
g90
ssg71
g1527
sg64
(lp1539
S':'
asbag57
(g78
g59
NtRp1540
(dp1541
g62
(dp1542
sg71
g1527
sg64
(lp1543
g57
(g58
g59
NtRp1544
(dp1545
g62
(dp1546
g70
I4
ssg71
g1540
sg64
(lp1547
g893
asbasbasbag57
(g73
g59
NtRp1548
(dp1549
g62
(dp1550
sg71
g846
sg64
(lp1551
g57
(g78
g59
NtRp1552
(dp1553
g62
(dp1554
g82
g83
ssg71
g1548
sg64
(lp1555
S'web2py_version'
p1556
asbag57
(g78
g59
NtRp1557
(dp1558
g62
(dp1559
g89
g90
ssg71
g1548
sg64
(lp1560
S':'
asbag57
(g78
g59
NtRp1561
(dp1562
g62
(dp1563
sg71
g1548
sg64
(lp1564
g57
(g58
g59
NtRp1565
(dp1566
g62
(dp1567
g70
I4
ssg71
g1561
sg64
(lp1568
g57
(g66
g59
NtRp1569
(dp1570
g62
(dp1571
g70
I3
ssg71
Nsg64
(lp1572
g57
(g73
g59
NtRp1573
(dp1574
g62
(dp1575
sg71
g1569
sg64
(lp1576
g57
(g78
g59
NtRp1577
(dp1578
g62
(dp1579
sg71
g1573
sg64
(lp1580
g57
(g58
g59
NtRp1581
(dp1582
g62
(dp1583
g70
I3
ssg71
g1577
sg64
(lp1584
S'1'
asbasbasbag57
(g73
g59
NtRp1585
(dp1586
g62
(dp1587
sg71
g1569
sg64
(lp1588
g57
(g78
g59
NtRp1589
(dp1590
g62
(dp1591
sg71
g1585
sg64
(lp1592
g57
(g58
g59
NtRp1593
(dp1594
g62
(dp1595
g70
I3
ssg71
g1589
sg64
(lp1596
S'99'
p1597
asbasbasbag57
(g73
g59
NtRp1598
(dp1599
g62
(dp1600
sg71
g1569
sg64
(lp1601
g57
(g78
g59
NtRp1602
(dp1603
g62
(dp1604
sg71
g1598
sg64
(lp1605
g57
(g58
g59
NtRp1606
(dp1607
g62
(dp1608
g70
I3
ssg71
g1602
sg64
(lp1609
S'7'
asbasbasbag57
(g73
g59
NtRp1610
(dp1611
g62
(dp1612
sg71
g1569
sg64
(lp1613
g57
(g78
g59
NtRp1614
(dp1615
g62
(dp1616
sg71
g1610
sg64
(lp1617
g57
(g58
g59
NtRp1618
(dp1619
g62
(dp1620
g70
I3
ssg71
g1614
sg64
(lp1621
S'datetime.datetime(2012, 3, 4, 22, 12, 8)'
p1622
asbasbasbag57
(g73
g59
NtRp1623
(dp1624
g62
(dp1625
sg71
g1569
sg64
(lp1626
g57
(g78
g59
NtRp1627
(dp1628
g62
(dp1629
sg71
g1623
sg64
(lp1630
g57
(g58
g59
NtRp1631
(dp1632
g62
(dp1633
g70
I3
ssg71
g1627
sg64
(lp1634
S'stable'
p1635
asbasbasbasbasbasbasbag57
(g73
g59
NtRp1636
(dp1637
g62
(dp1638
sg71
g846
sg64
(lp1639
g57
(g78
g59
NtRp1640
(dp1641
g62
(dp1642
g82
g83
ssg71
g1636
sg64
(lp1643
S'wsgi_errors'
p1644
asbag57
(g78
g59
NtRp1645
(dp1646
g62
(dp1647
g89
g90
ssg71
g1636
sg64
(lp1648
S':'
asbag57
(g78
g59
NtRp1649
(dp1650
g62
(dp1651
sg71
g1636
sg64
(lp1652
g57
(g58
g59
NtRp1653
(dp1654
g62
(dp1655
g70
I4
ssg71
g1649
sg64
(lp1656
S"<open file '<stderr>', mode 'w' at 0xb785b0d0>"
p1657
asbasbasbag57
(g73
g59
NtRp1658
(dp1659
g62
(dp1660
sg71
g846
sg64
(lp1661
g57
(g78
g59
NtRp1662
(dp1663
g62
(dp1664
g82
g83
ssg71
g1658
sg64
(lp1665
S'wsgi_file_wrapper'
p1666
asbag57
(g78
g59
NtRp1667
(dp1668
g62
(dp1669
g89
g90
ssg71
g1658
sg64
(lp1670
S':'
asbag57
(g78
g59
NtRp1671
(dp1672
g62
(dp1673
sg71
g1658
sg64
(lp1674
g57
(g58
g59
NtRp1675
(dp1676
g62
(dp1677
g70
I4
ssg71
g1671
sg64
(lp1678
S'<class wsgiref.util.FileWrapper at 0x85e8e6c>'
p1679
asbasbasbag57
(g73
g59
NtRp1680
(dp1681
g62
(dp1682
sg71
g846
sg64
(lp1683
g57
(g78
g59
NtRp1684
(dp1685
g62
(dp1686
g82
g83
ssg71
g1680
sg64
(lp1687
S'wsgi_input'
p1688
asbag57
(g78
g59
NtRp1689
(dp1690
g62
(dp1691
g89
g90
ssg71
g1680
sg64
(lp1692
S':'
asbag57
(g78
g59
NtRp1693
(dp1694
g62
(dp1695
sg71
g1680
sg64
(lp1696
g57
(g58
g59
NtRp1697
(dp1698
g62
(dp1699
g70
I4
ssg71
g1693
sg64
(lp1700
S'<socket._fileobject object at 0x8808d6c>'
p1701
asbasbasbag57
(g73
g59
NtRp1702
(dp1703
g62
(dp1704
sg71
g846
sg64
(lp1705
g57
(g78
g59
NtRp1706
(dp1707
g62
(dp1708
g82
g83
ssg71
g1702
sg64
(lp1709
S'wsgi_multiprocess'
p1710
asbag57
(g78
g59
NtRp1711
(dp1712
g62
(dp1713
g89
g90
ssg71
g1702
sg64
(lp1714
S':'
asbag57
(g78
g59
NtRp1715
(dp1716
g62
(dp1717
sg71
g1702
sg64
(lp1718
g57
(g58
g59
NtRp1719
(dp1720
g62
(dp1721
g70
I4
ssg71
g1715
sg64
(lp1722
g100
asbasbasbag57
(g73
g59
NtRp1723
(dp1724
g62
(dp1725
sg71
g846
sg64
(lp1726
g57
(g78
g59
NtRp1727
(dp1728
g62
(dp1729
g82
g83
ssg71
g1723
sg64
(lp1730
S'wsgi_multithread'
p1731
asbag57
(g78
g59
NtRp1732
(dp1733
g62
(dp1734
g89
g90
ssg71
g1723
sg64
(lp1735
S':'
asbag57
(g78
g59
NtRp1736
(dp1737
g62
(dp1738
sg71
g1723
sg64
(lp1739
g57
(g58
g59
NtRp1740
(dp1741
g62
(dp1742
g70
I4
ssg71
g1736
sg64
(lp1743
S'True'
p1744
asbasbasbag57
(g73
g59
NtRp1745
(dp1746
g62
(dp1747
sg71
g846
sg64
(lp1748
g57
(g78
g59
NtRp1749
(dp1750
g62
(dp1751
g82
g83
ssg71
g1745
sg64
(lp1752
S'wsgi_run_once'
p1753
asbag57
(g78
g59
NtRp1754
(dp1755
g62
(dp1756
g89
g90
ssg71
g1745
sg64
(lp1757
S':'
asbag57
(g78
g59
NtRp1758
(dp1759
g62
(dp1760
sg71
g1745
sg64
(lp1761
g57
(g58
g59
NtRp1762
(dp1763
g62
(dp1764
g70
I4
ssg71
g1758
sg64
(lp1765
g100
asbasbasbag57
(g73
g59
NtRp1766
(dp1767
g62
(dp1768
sg71
g846
sg64
(lp1769
g57
(g78
g59
NtRp1770
(dp1771
g62
(dp1772
g82
g83
ssg71
g1766
sg64
(lp1773
S'wsgi_url_scheme'
p1774
asbag57
(g78
g59
NtRp1775
(dp1776
g62
(dp1777
g89
g90
ssg71
g1766
sg64
(lp1778
S':'
asbag57
(g78
g59
NtRp1779
(dp1780
g62
(dp1781
sg71
g1766
sg64
(lp1782
g57
(g58
g59
NtRp1783
(dp1784
g62
(dp1785
g70
I4
ssg71
g1779
sg64
(lp1786
S'http'
p1787
asbasbasbag57
(g73
g59
NtRp1788
(dp1789
g62
(dp1790
sg71
g846
sg64
(lp1791
g57
(g78
g59
NtRp1792
(dp1793
g62
(dp1794
g82
g83
ssg71
g1788
sg64
(lp1795
S'wsgi_version'
p1796
asbag57
(g78
g59
NtRp1797
(dp1798
g62
(dp1799
g89
g90
ssg71
g1788
sg64
(lp1800
S':'
asbag57
(g78
g59
NtRp1801
(dp1802
g62
(dp1803
sg71
g1788
sg64
(lp1804
g57
(g58
g59
NtRp1805
(dp1806
g62
(dp1807
g70
I4
ssg71
g1801
sg64
(lp1808
g57
(g66
g59
NtRp1809
(dp1810
g62
(dp1811
g70
I3
ssg71
Nsg64
(lp1812
g57
(g73
g59
NtRp1813
(dp1814
g62
(dp1815
sg71
g1809
sg64
(lp1816
g57
(g78
g59
NtRp1817
(dp1818
g62
(dp1819
sg71
g1813
sg64
(lp1820
g57
(g58
g59
NtRp1821
(dp1822
g62
(dp1823
g70
I3
ssg71
g1817
sg64
(lp1824
S'1'
asbasbasbag57
(g73
g59
NtRp1825
(dp1826
g62
(dp1827
sg71
g1809
sg64
(lp1828
g57
(g78
g59
NtRp1829
(dp1830
g62
(dp1831
sg71
g1825
sg64
(lp1832
g57
(g58
g59
NtRp1833
(dp1834
g62
(dp1835
g70
I3
ssg71
g1829
sg64
(lp1836
S'0'
asbasbasbasbasbasbasbasbasbasbasbag57
(g73
g59
NtRp1837
(dp1838
g62
(dp1839
sg71
g67
sg64
(lp1840
g57
(g78
g59
NtRp1841
(dp1842
g62
(dp1843
g82
g83
ssg71
g1837
sg64
(lp1844
S'extension'
p1845
asbag57
(g78
g59
NtRp1846
(dp1847
g62
(dp1848
g89
g90
ssg71
g1837
sg64
(lp1849
S':'
asbag57
(g78
g59
NtRp1850
(dp1851
g62
(dp1852
sg71
g1837
sg64
(lp1853
g57
(g58
g59
NtRp1854
(dp1855
g62
(dp1856
g70
I5
ssg71
g1850
sg64
(lp1857
S'html'
p1858
asbasbasbag57
(g73
g59
NtRp1859
(dp1860
g62
(dp1861
sg71
g67
sg64
(lp1862
g57
(g78
g59
NtRp1863
(dp1864
g62
(dp1865
g82
g83
ssg71
g1859
sg64
(lp1866
S'folder'
p1867
asbag57
(g78
g59
NtRp1868
(dp1869
g62
(dp1870
g89
g90
ssg71
g1859
sg64
(lp1871
S':'
asbag57
(g78
g59
NtRp1872
(dp1873
g62
(dp1874
sg71
g1859
sg64
(lp1875
g57
(g58
g59
NtRp1876
(dp1877
g62
(dp1878
g70
I5
ssg71
g1872
sg64
(lp1879
S'/home/kaique/Projects/web/big-votes/web2py/applications/bigvotes/'
p1880
asbasbasbag57
(g73
g59
NtRp1881
(dp1882
g62
(dp1883
sg71
g67
sg64
(lp1884
g57
(g78
g59
NtRp1885
(dp1886
g62
(dp1887
g82
g83
ssg71
g1881
sg64
(lp1888
S'function'
p1889
asbag57
(g78
g59
NtRp1890
(dp1891
g62
(dp1892
g89
g90
ssg71
g1881
sg64
(lp1893
S':'
asbag57
(g78
g59
NtRp1894
(dp1895
g62
(dp1896
sg71
g1881
sg64
(lp1897
g57
(g58
g59
NtRp1898
(dp1899
g62
(dp1900
g70
I5
ssg71
g1894
sg64
(lp1901
S'index'
p1902
asbasbasbag57
(g73
g59
NtRp1903
(dp1904
g62
(dp1905
sg71
g67
sg64
(lp1906
g57
(g78
g59
NtRp1907
(dp1908
g62
(dp1909
g82
g83
ssg71
g1903
sg64
(lp1910
S'get_vars'
p1911
asbag57
(g78
g59
NtRp1912
(dp1913
g62
(dp1914
g89
g90
ssg71
g1903
sg64
(lp1915
S':'
asbag57
(g78
g59
NtRp1916
(dp1917
g62
(dp1918
sg71
g1903
sg64
(lp1919
g57
(g58
g59
NtRp1920
(dp1921
g62
(dp1922
g70
I5
ssg71
g1916
sg64
(lp1923
g57
(g66
g59
NtRp1924
(dp1925
g62
(dp1926
g70
I4
ssg71
Nsg64
(lp1927
sbasbasbasbag57
(g73
g59
NtRp1928
(dp1929
g62
(dp1930
sg71
g67
sg64
(lp1931
g57
(g78
g59
NtRp1932
(dp1933
g62
(dp1934
g82
g83
ssg71
g1928
sg64
(lp1935
S'global_settings'
p1936
asbag57
(g78
g59
NtRp1937
(dp1938
g62
(dp1939
g89
g90
ssg71
g1928
sg64
(lp1940
S':'
asbag57
(g78
g59
NtRp1941
(dp1942
g62
(dp1943
sg71
g1928
sg64
(lp1944
g57
(g58
g59
NtRp1945
(dp1946
g62
(dp1947
g70
I5
ssg71
g1941
sg64
(lp1948
g57
(g66
g59
NtRp1949
(dp1950
g62
(dp1951
g70
I4
ssg71
Nsg64
(lp1952
g57
(g73
g59
NtRp1953
(dp1954
g62
(dp1955
sg71
g1949
sg64
(lp1956
g57
(g78
g59
NtRp1957
(dp1958
g62
(dp1959
g82
g83
ssg71
g1953
sg64
(lp1960
g858
asbag57
(g78
g59
NtRp1961
(dp1962
g62
(dp1963
g89
g90
ssg71
g1953
sg64
(lp1964
S':'
asbag57
(g78
g59
NtRp1965
(dp1966
g62
(dp1967
sg71
g1953
sg64
(lp1968
g57
(g58
g59
NtRp1969
(dp1970
g62
(dp1971
g70
I4
ssg71
g1965
sg64
(lp1972
S"set(['/home/kaique/Projects/web/big-votes/web2py/applications/bigvotes/', '/home/kaique/Projects/web/big-votes/web2py/applications/admin/'])"
p1973
asbasbasbag57
(g73
g59
NtRp1974
(dp1975
g62
(dp1976
sg71
g1949
sg64
(lp1977
g57
(g78
g59
NtRp1978
(dp1979
g62
(dp1980
g82
g83
ssg71
g1974
sg64
(lp1981
g880
asbag57
(g78
g59
NtRp1982
(dp1983
g62
(dp1984
g89
g90
ssg71
g1974
sg64
(lp1985
S':'
asbag57
(g78
g59
NtRp1986
(dp1987
g62
(dp1988
sg71
g1974
sg64
(lp1989
g57
(g58
g59
NtRp1990
(dp1991
g62
(dp1992
g70
I4
ssg71
g1986
sg64
(lp1993
g893
asbasbasbag57
(g73
g59
NtRp1994
(dp1995
g62
(dp1996
sg71
g1949
sg64
(lp1997
g57
(g78
g59
NtRp1998
(dp1999
g62
(dp2000
g82
g83
ssg71
g1994
sg64
(lp2001
g902
asbag57
(g78
g59
NtRp2002
(dp2003
g62
(dp2004
g89
g90
ssg71
g1994
sg64
(lp2005
S':'
asbag57
(g78
g59
NtRp2006
(dp2007
g62
(dp2008
sg71
g1994
sg64
(lp2009
g57
(g58
g59
NtRp2010
(dp2011
g62
(dp2012
g70
I4
ssg71
g2006
sg64
(lp2013
g57
(g66
g59
NtRp2014
(dp2015
g62
(dp2016
g70
I3
ssg71
Nsg64
(lp2017
sbasbasbasbag57
(g73
g59
NtRp2018
(dp2019
g62
(dp2020
sg71
g1949
sg64
(lp2021
g57
(g78
g59
NtRp2022
(dp2023
g62
(dp2024
g82
g83
ssg71
g2018
sg64
(lp2025
g927
asbag57
(g78
g59
NtRp2026
(dp2027
g62
(dp2028
g89
g90
ssg71
g2018
sg64
(lp2029
S':'
asbag57
(g78
g59
NtRp2030
(dp2031
g62
(dp2032
sg71
g2018
sg64
(lp2033
g57
(g58
g59
NtRp2034
(dp2035
g62
(dp2036
g70
I4
ssg71
g2030
sg64
(lp2037
S"<Values at 0x86119ec: {'verbose': False, 'ip': '127.0.0.1', 'shutdown_timeout': 5, 'taskbar': False, 'nocron': False, 'pid_filename': 'httpserver.pid', 'maxthreads': None, 'softcron': False, 'server_name': 'main', 'bpython': False, 'nogui': False, 'port': 8000, 'extcron': False, 'debuglevel': 30, 'test': None, 'folder': '/home/kaique/Projects/web/big-votes/web2py', 'config': '', 'import_models': False, 'winservice': '', 'shell': None, 'run': '', 'log_filename': 'httpserver.log', 'args': [''], 'socket_timeout': 5, 'ssl_ca_certificate': None, 'scheduler': None, 'profiler_filename': None, 'ssl_private_key': '', 'password': 'dev', 'request_queue_size': 5, 'ssl_certificate': '', 'cronjob': False, 'numthreads': None, 'quiet': False, 'interfaces': None, 'minthreads': None, 'timeout': 10, 'plain': False, 'nobanner': False}>"
p2038
asbasbasbag57
(g73
g59
NtRp2039
(dp2040
g62
(dp2041
sg71
g1949
sg64
(lp2042
g57
(g78
g59
NtRp2043
(dp2044
g62
(dp2045
g82
g83
ssg71
g2039
sg64
(lp2046
g949
asbag57
(g78
g59
NtRp2047
(dp2048
g62
(dp2049
g89
g90
ssg71
g2039
sg64
(lp2050
S':'
asbag57
(g78
g59
NtRp2051
(dp2052
g62
(dp2053
sg71
g2039
sg64
(lp2054
g57
(g58
g59
NtRp2055
(dp2056
g62
(dp2057
g70
I4
ssg71
g2051
sg64
(lp2058
S'set([])'
p2059
asbasbasbag57
(g73
g59
NtRp2060
(dp2061
g62
(dp2062
sg71
g1949
sg64
(lp2063
g57
(g78
g59
NtRp2064
(dp2065
g62
(dp2066
g82
g83
ssg71
g2060
sg64
(lp2067
g971
asbag57
(g78
g59
NtRp2068
(dp2069
g62
(dp2070
g89
g90
ssg71
g2060
sg64
(lp2071
S':'
asbag57
(g78
g59
NtRp2072
(dp2073
g62
(dp2074
sg71
g2060
sg64
(lp2075
g57
(g58
g59
NtRp2076
(dp2077
g62
(dp2078
g70
I4
ssg71
g2072
sg64
(lp2079
g100
asbasbasbag57
(g73
g59
NtRp2080
(dp2081
g62
(dp2082
sg71
g1949
sg64
(lp2083
g57
(g78
g59
NtRp2084
(dp2085
g62
(dp2086
g82
g83
ssg71
g2080
sg64
(lp2087
g992
asbag57
(g78
g59
NtRp2088
(dp2089
g62
(dp2090
g89
g90
ssg71
g2080
sg64
(lp2091
S':'
asbag57
(g78
g59
NtRp2092
(dp2093
g62
(dp2094
sg71
g2080
sg64
(lp2095
g57
(g58
g59
NtRp2096
(dp2097
g62
(dp2098
g70
I4
ssg71
g2092
sg64
(lp2099
g1005
asbasbasbag57
(g73
g59
NtRp2100
(dp2101
g62
(dp2102
sg71
g1949
sg64
(lp2103
g57
(g78
g59
NtRp2104
(dp2105
g62
(dp2106
g82
g83
ssg71
g2100
sg64
(lp2107
g1212
asbag57
(g78
g59
NtRp2108
(dp2109
g62
(dp2110
g89
g90
ssg71
g2100
sg64
(lp2111
S':'
asbag57
(g78
g59
NtRp2112
(dp2113
g62
(dp2114
sg71
g2100
sg64
(lp2115
g57
(g58
g59
NtRp2116
(dp2117
g62
(dp2118
g70
I4
ssg71
g2112
sg64
(lp2119
g100
asbasbasbag57
(g73
g59
NtRp2120
(dp2121
g62
(dp2122
sg71
g1949
sg64
(lp2123
g57
(g78
g59
NtRp2124
(dp2125
g62
(dp2126
g82
g83
ssg71
g2120
sg64
(lp2127
g1233
asbag57
(g78
g59
NtRp2128
(dp2129
g62
(dp2130
g89
g90
ssg71
g2120
sg64
(lp2131
S':'
asbag57
(g78
g59
NtRp2132
(dp2133
g62
(dp2134
sg71
g2120
sg64
(lp2135
g57
(g58
g59
NtRp2136
(dp2137
g62
(dp2138
g70
I4
ssg71
g2132
sg64
(lp2139
g100
asbasbasbag57
(g73
g59
NtRp2140
(dp2141
g62
(dp2142
sg71
g1949
sg64
(lp2143
g57
(g78
g59
NtRp2144
(dp2145
g62
(dp2146
g82
g83
ssg71
g2140
sg64
(lp2147
g1492
asbag57
(g78
g59
NtRp2148
(dp2149
g62
(dp2150
g89
g90
ssg71
g2140
sg64
(lp2151
S':'
asbag57
(g78
g59
NtRp2152
(dp2153
g62
(dp2154
sg71
g2140
sg64
(lp2155
g57
(g58
g59
NtRp2156
(dp2157
g62
(dp2158
g70
I4
ssg71
g2152
sg64
(lp2159
g1505
asbasbasbag57
(g73
g59
NtRp2160
(dp2161
g62
(dp2162
sg71
g1949
sg64
(lp2163
g57
(g78
g59
NtRp2164
(dp2165
g62
(dp2166
g82
g83
ssg71
g2160
sg64
(lp2167
g1556
asbag57
(g78
g59
NtRp2168
(dp2169
g62
(dp2170
g89
g90
ssg71
g2160
sg64
(lp2171
S':'
asbag57
(g78
g59
NtRp2172
(dp2173
g62
(dp2174
sg71
g2160
sg64
(lp2175
g57
(g58
g59
NtRp2176
(dp2177
g62
(dp2178
g70
I4
ssg71
g2172
sg64
(lp2179
g57
(g66
g59
NtRp2180
(dp2181
g62
(dp2182
g70
I3
ssg71
Nsg64
(lp2183
g57
(g73
g59
NtRp2184
(dp2185
g62
(dp2186
sg71
g2180
sg64
(lp2187
g57
(g78
g59
NtRp2188
(dp2189
g62
(dp2190
sg71
g2184
sg64
(lp2191
g57
(g58
g59
NtRp2192
(dp2193
g62
(dp2194
g70
I3
ssg71
g2188
sg64
(lp2195
S'1'
asbasbasbag57
(g73
g59
NtRp2196
(dp2197
g62
(dp2198
sg71
g2180
sg64
(lp2199
g57
(g78
g59
NtRp2200
(dp2201
g62
(dp2202
sg71
g2196
sg64
(lp2203
g57
(g58
g59
NtRp2204
(dp2205
g62
(dp2206
g70
I3
ssg71
g2200
sg64
(lp2207
S'99'
p2208
asbasbasbag57
(g73
g59
NtRp2209
(dp2210
g62
(dp2211
sg71
g2180
sg64
(lp2212
g57
(g78
g59
NtRp2213
(dp2214
g62
(dp2215
sg71
g2209
sg64
(lp2216
g57
(g58
g59
NtRp2217
(dp2218
g62
(dp2219
g70
I3
ssg71
g2213
sg64
(lp2220
S'7'
asbasbasbag57
(g73
g59
NtRp2221
(dp2222
g62
(dp2223
sg71
g2180
sg64
(lp2224
g57
(g78
g59
NtRp2225
(dp2226
g62
(dp2227
sg71
g2221
sg64
(lp2228
g57
(g58
g59
NtRp2229
(dp2230
g62
(dp2231
g70
I3
ssg71
g2225
sg64
(lp2232
S'datetime.datetime(2012, 3, 4, 22, 12, 8)'
p2233
asbasbasbag57
(g73
g59
NtRp2234
(dp2235
g62
(dp2236
sg71
g2180
sg64
(lp2237
g57
(g78
g59
NtRp2238
(dp2239
g62
(dp2240
sg71
g2234
sg64
(lp2241
g57
(g58
g59
NtRp2242
(dp2243
g62
(dp2244
g70
I3
ssg71
g2238
sg64
(lp2245
g1635
asbasbasbasbasbasbasbasbasbasbasbag57
(g73
g59
NtRp2246
(dp2247
g62
(dp2248
sg71
g67
sg64
(lp2249
g57
(g78
g59
NtRp2250
(dp2251
g62
(dp2252
g82
g83
ssg71
g2246
sg64
(lp2253
S'is_https'
p2254
asbag57
(g78
g59
NtRp2255
(dp2256
g62
(dp2257
g89
g90
ssg71
g2246
sg64
(lp2258
S':'
asbag57
(g78
g59
NtRp2259
(dp2260
g62
(dp2261
sg71
g2246
sg64
(lp2262
g57
(g58
g59
NtRp2263
(dp2264
g62
(dp2265
g70
I5
ssg71
g2259
sg64
(lp2266
g100
asbasbasbag57
(g73
g59
NtRp2267
(dp2268
g62
(dp2269
sg71
g67
sg64
(lp2270
g57
(g78
g59
NtRp2271
(dp2272
g62
(dp2273
g82
g83
ssg71
g2267
sg64
(lp2274
S'is_local'
p2275
asbag57
(g78
g59
NtRp2276
(dp2277
g62
(dp2278
g89
g90
ssg71
g2267
sg64
(lp2279
S':'
asbag57
(g78
g59
NtRp2280
(dp2281
g62
(dp2282
sg71
g2267
sg64
(lp2283
g57
(g58
g59
NtRp2284
(dp2285
g62
(dp2286
g70
I5
ssg71
g2280
sg64
(lp2287
g1744
asbasbasbag57
(g73
g59
NtRp2288
(dp2289
g62
(dp2290
sg71
g67
sg64
(lp2291
g57
(g78
g59
NtRp2292
(dp2293
g62
(dp2294
g82
g83
ssg71
g2288
sg64
(lp2295
S'is_restful'
p2296
asbag57
(g78
g59
NtRp2297
(dp2298
g62
(dp2299
g89
g90
ssg71
g2288
sg64
(lp2300
S':'
asbag57
(g78
g59
NtRp2301
(dp2302
g62
(dp2303
sg71
g2288
sg64
(lp2304
g57
(g58
g59
NtRp2305
(dp2306
g62
(dp2307
g70
I5
ssg71
g2301
sg64
(lp2308
g100
asbasbasbag57
(g73
g59
NtRp2309
(dp2310
g62
(dp2311
sg71
g67
sg64
(lp2312
g57
(g78
g59
NtRp2313
(dp2314
g62
(dp2315
g82
g83
ssg71
g2309
sg64
(lp2316
S'now'
p2317
asbag57
(g78
g59
NtRp2318
(dp2319
g62
(dp2320
g89
g90
ssg71
g2309
sg64
(lp2321
S':'
asbag57
(g78
g59
NtRp2322
(dp2323
g62
(dp2324
sg71
g2309
sg64
(lp2325
g57
(g58
g59
NtRp2326
(dp2327
g62
(dp2328
g70
I5
ssg71
g2322
sg64
(lp2329
S'datetime.datetime(2012, 5, 21, 23, 57, 27, 233936)'
p2330
asbasbasbag57
(g73
g59
NtRp2331
(dp2332
g62
(dp2333
sg71
g67
sg64
(lp2334
g57
(g78
g59
NtRp2335
(dp2336
g62
(dp2337
g82
g83
ssg71
g2331
sg64
(lp2338
S'post_vars'
p2339
asbag57
(g78
g59
NtRp2340
(dp2341
g62
(dp2342
g89
g90
ssg71
g2331
sg64
(lp2343
S':'
asbag57
(g78
g59
NtRp2344
(dp2345
g62
(dp2346
sg71
g2331
sg64
(lp2347
g57
(g58
g59
NtRp2348
(dp2349
g62
(dp2350
g70
I5
ssg71
g2344
sg64
(lp2351
g57
(g66
g59
NtRp2352
(dp2353
g62
(dp2354
g70
I4
ssg71
Nsg64
(lp2355
sbasbasbasbag57
(g73
g59
NtRp2356
(dp2357
g62
(dp2358
sg71
g67
sg64
(lp2359
g57
(g78
g59
NtRp2360
(dp2361
g62
(dp2362
g82
g83
ssg71
g2356
sg64
(lp2363
S'raw_args'
p2364
asbag57
(g78
g59
NtRp2365
(dp2366
g62
(dp2367
g89
g90
ssg71
g2356
sg64
(lp2368
S':'
asbag57
(g78
g59
NtRp2369
(dp2370
g62
(dp2371
sg71
g2356
sg64
(lp2372
g57
(g58
g59
NtRp2373
(dp2374
g62
(dp2375
g70
I5
ssg71
g2369
sg64
(lp2376
S'1/1'
p2377
asbasbasbag57
(g73
g59
NtRp2378
(dp2379
g62
(dp2380
sg71
g67
sg64
(lp2381
g57
(g78
g59
NtRp2382
(dp2383
g62
(dp2384
g82
g83
ssg71
g2378
sg64
(lp2385
S'url'
p2386
asbag57
(g78
g59
NtRp2387
(dp2388
g62
(dp2389
g89
g90
ssg71
g2378
sg64
(lp2390
S':'
asbag57
(g78
g59
NtRp2391
(dp2392
g62
(dp2393
sg71
g2378
sg64
(lp2394
g57
(g58
g59
NtRp2395
(dp2396
g62
(dp2397
g70
I5
ssg71
g2391
sg64
(lp2398
S'/bigvotes/vote/index/1/1'
p2399
asbasbasbag57
(g73
g59
NtRp2400
(dp2401
g62
(dp2402
sg71
g67
sg64
(lp2403
g57
(g78
g59
NtRp2404
(dp2405
g62
(dp2406
g82
g83
ssg71
g2400
sg64
(lp2407
S'utcnow'
p2408
asbag57
(g78
g59
NtRp2409
(dp2410
g62
(dp2411
g89
g90
ssg71
g2400
sg64
(lp2412
S':'
asbag57
(g78
g59
NtRp2413
(dp2414
g62
(dp2415
sg71
g2400
sg64
(lp2416
g57
(g58
g59
NtRp2417
(dp2418
g62
(dp2419
g70
I5
ssg71
g2413
sg64
(lp2420
S'datetime.datetime(2012, 5, 22, 2, 57, 27, 233968)'
p2421
asbasbasbag57
(g73
g59
NtRp2422
(dp2423
g62
(dp2424
sg71
g67
sg64
(lp2425
g57
(g78
g59
NtRp2426
(dp2427
g62
(dp2428
g82
g83
ssg71
g2422
sg64
(lp2429
S'uuid'
p2430
asbag57
(g78
g59
NtRp2431
(dp2432
g62
(dp2433
g89
g90
ssg71
g2422
sg64
(lp2434
S':'
asbag57
(g78
g59
NtRp2435
(dp2436
g62
(dp2437
sg71
g2422
sg64
(lp2438
g57
(g58
g59
NtRp2439
(dp2440
g62
(dp2441
g70
I5
ssg71
g2435
sg64
(lp2442
S'bigvotes/127.0.0.1.2012-05-21.23-57-27.7fbfb9c2-f272-4a0e-8577-704abef571f8'
p2443
asbasbasbag57
(g73
g59
NtRp2444
(dp2445
g62
(dp2446
sg71
g67
sg64
(lp2447
g57
(g78
g59
NtRp2448
(dp2449
g62
(dp2450
g82
g83
ssg71
g2444
sg64
(lp2451
S'vars'
p2452
asbag57
(g78
g59
NtRp2453
(dp2454
g62
(dp2455
g89
g90
ssg71
g2444
sg64
(lp2456
S':'
asbag57
(g78
g59
NtRp2457
(dp2458
g62
(dp2459
sg71
g2444
sg64
(lp2460
g57
(g58
g59
NtRp2461
(dp2462
g62
(dp2463
g70
I5
ssg71
g2457
sg64
(lp2464
g57
(g66
g59
NtRp2465
(dp2466
g62
(dp2467
g70
I4
ssg71
Nsg64
(lp2468
sbasbasbasbag57
(g73
g59
NtRp2469
(dp2470
g62
(dp2471
sg71
g67
sg64
(lp2472
g57
(g78
g59
NtRp2473
(dp2474
g62
(dp2475
g82
g83
ssg71
g2469
sg64
(lp2476
S'wsgi'
p2477
asbag57
(g78
g59
NtRp2478
(dp2479
g62
(dp2480
g89
g90
ssg71
g2469
sg64
(lp2481
S':'
asbag57
(g78
g59
NtRp2482
(dp2483
g62
(dp2484
sg71
g2469
sg64
(lp2485
g57
(g58
g59
NtRp2486
(dp2487
g62
(dp2488
g70
I5
ssg71
g2482
sg64
(lp2489
g57
(g66
g59
NtRp2490
(dp2491
g62
(dp2492
g70
I4
ssg71
Nsg64
(lp2493
g57
(g73
g59
NtRp2494
(dp2495
g62
(dp2496
sg71
g2490
sg64
(lp2497
g57
(g78
g59
NtRp2498
(dp2499
g62
(dp2500
g82
g83
ssg71
g2494
sg64
(lp2501
S'environ'
p2502
asbag57
(g78
g59
NtRp2503
(dp2504
g62
(dp2505
g89
g90
ssg71
g2494
sg64
(lp2506
S':'
asbag57
(g78
g59
NtRp2507
(dp2508
g62
(dp2509
sg71
g2494
sg64
(lp2510
g57
(g58
g59
NtRp2511
(dp2512
g62
(dp2513
g70
I4
ssg71
g2507
sg64
(lp2514
g57
(g66
g59
NtRp2515
(dp2516
g62
(dp2517
g70
I3
ssg71
Nsg64
(lp2518
g57
(g73
g59
NtRp2519
(dp2520
g62
(dp2521
sg71
g2515
sg64
(lp2522
g57
(g78
g59
NtRp2523
(dp2524
g62
(dp2525
g82
g83
ssg71
g2519
sg64
(lp2526
S'HTTP_ACCEPT'
p2527
asbag57
(g78
g59
NtRp2528
(dp2529
g62
(dp2530
g89
g90
ssg71
g2519
sg64
(lp2531
S':'
asbag57
(g78
g59
NtRp2532
(dp2533
g62
(dp2534
sg71
g2519
sg64
(lp2535
g57
(g58
g59
NtRp2536
(dp2537
g62
(dp2538
g70
I3
ssg71
g2532
sg64
(lp2539
g1027
asbasbasbag57
(g73
g59
NtRp2540
(dp2541
g62
(dp2542
sg71
g2515
sg64
(lp2543
g57
(g78
g59
NtRp2544
(dp2545
g62
(dp2546
g82
g83
ssg71
g2540
sg64
(lp2547
S'HTTP_ACCEPT_ENCODING'
p2548
asbag57
(g78
g59
NtRp2549
(dp2550
g62
(dp2551
g89
g90
ssg71
g2540
sg64
(lp2552
S':'
asbag57
(g78
g59
NtRp2553
(dp2554
g62
(dp2555
sg71
g2540
sg64
(lp2556
g57
(g58
g59
NtRp2557
(dp2558
g62
(dp2559
g70
I3
ssg71
g2553
sg64
(lp2560
g1049
asbasbasbag57
(g73
g59
NtRp2561
(dp2562
g62
(dp2563
sg71
g2515
sg64
(lp2564
g57
(g78
g59
NtRp2565
(dp2566
g62
(dp2567
g82
g83
ssg71
g2561
sg64
(lp2568
S'HTTP_ACCEPT_LANGUAGE'
p2569
asbag57
(g78
g59
NtRp2570
(dp2571
g62
(dp2572
g89
g90
ssg71
g2561
sg64
(lp2573
S':'
asbag57
(g78
g59
NtRp2574
(dp2575
g62
(dp2576
sg71
g2561
sg64
(lp2577
g57
(g58
g59
NtRp2578
(dp2579
g62
(dp2580
g70
I3
ssg71
g2574
sg64
(lp2581
g1071
asbasbasbag57
(g73
g59
NtRp2582
(dp2583
g62
(dp2584
sg71
g2515
sg64
(lp2585
g57
(g78
g59
NtRp2586
(dp2587
g62
(dp2588
g82
g83
ssg71
g2582
sg64
(lp2589
S'HTTP_CACHE_CONTROL'
p2590
asbag57
(g78
g59
NtRp2591
(dp2592
g62
(dp2593
g89
g90
ssg71
g2582
sg64
(lp2594
S':'
asbag57
(g78
g59
NtRp2595
(dp2596
g62
(dp2597
sg71
g2582
sg64
(lp2598
g57
(g58
g59
NtRp2599
(dp2600
g62
(dp2601
g70
I3
ssg71
g2595
sg64
(lp2602
g1093
asbasbasbag57
(g73
g59
NtRp2603
(dp2604
g62
(dp2605
sg71
g2515
sg64
(lp2606
g57
(g78
g59
NtRp2607
(dp2608
g62
(dp2609
g82
g83
ssg71
g2603
sg64
(lp2610
S'HTTP_CONNECTION'
p2611
asbag57
(g78
g59
NtRp2612
(dp2613
g62
(dp2614
g89
g90
ssg71
g2603
sg64
(lp2615
S':'
asbag57
(g78
g59
NtRp2616
(dp2617
g62
(dp2618
sg71
g2603
sg64
(lp2619
g57
(g58
g59
NtRp2620
(dp2621
g62
(dp2622
g70
I3
ssg71
g2616
sg64
(lp2623
g1115
asbasbasbag57
(g73
g59
NtRp2624
(dp2625
g62
(dp2626
sg71
g2515
sg64
(lp2627
g57
(g78
g59
NtRp2628
(dp2629
g62
(dp2630
g82
g83
ssg71
g2624
sg64
(lp2631
S'HTTP_COOKIE'
p2632
asbag57
(g78
g59
NtRp2633
(dp2634
g62
(dp2635
g89
g90
ssg71
g2624
sg64
(lp2636
S':'
asbag57
(g78
g59
NtRp2637
(dp2638
g62
(dp2639
sg71
g2624
sg64
(lp2640
g57
(g58
g59
NtRp2641
(dp2642
g62
(dp2643
g70
I3
ssg71
g2637
sg64
(lp2644
g1137
asbasbasbag57
(g73
g59
NtRp2645
(dp2646
g62
(dp2647
sg71
g2515
sg64
(lp2648
g57
(g78
g59
NtRp2649
(dp2650
g62
(dp2651
g82
g83
ssg71
g2645
sg64
(lp2652
S'HTTP_HOST'
p2653
asbag57
(g78
g59
NtRp2654
(dp2655
g62
(dp2656
g89
g90
ssg71
g2645
sg64
(lp2657
S':'
asbag57
(g78
g59
NtRp2658
(dp2659
g62
(dp2660
sg71
g2645
sg64
(lp2661
g57
(g58
g59
NtRp2662
(dp2663
g62
(dp2664
g70
I3
ssg71
g2658
sg64
(lp2665
g1159
asbasbasbag57
(g73
g59
NtRp2666
(dp2667
g62
(dp2668
sg71
g2515
sg64
(lp2669
g57
(g78
g59
NtRp2670
(dp2671
g62
(dp2672
g82
g83
ssg71
g2666
sg64
(lp2673
S'HTTP_REFERER'
p2674
asbag57
(g78
g59
NtRp2675
(dp2676
g62
(dp2677
g89
g90
ssg71
g2666
sg64
(lp2678
S':'
asbag57
(g78
g59
NtRp2679
(dp2680
g62
(dp2681
sg71
g2666
sg64
(lp2682
g57
(g58
g59
NtRp2683
(dp2684
g62
(dp2685
g70
I3
ssg71
g2679
sg64
(lp2686
g1181
asbasbasbag57
(g73
g59
NtRp2687
(dp2688
g62
(dp2689
sg71
g2515
sg64
(lp2690
g57
(g78
g59
NtRp2691
(dp2692
g62
(dp2693
g82
g83
ssg71
g2687
sg64
(lp2694
S'HTTP_USER_AGENT'
p2695
asbag57
(g78
g59
NtRp2696
(dp2697
g62
(dp2698
g89
g90
ssg71
g2687
sg64
(lp2699
S':'
asbag57
(g78
g59
NtRp2700
(dp2701
g62
(dp2702
sg71
g2687
sg64
(lp2703
g57
(g58
g59
NtRp2704
(dp2705
g62
(dp2706
g70
I3
ssg71
g2700
sg64
(lp2707
g1203
asbasbasbag57
(g73
g59
NtRp2708
(dp2709
g62
(dp2710
sg71
g2515
sg64
(lp2711
g57
(g78
g59
NtRp2712
(dp2713
g62
(dp2714
g82
g83
ssg71
g2708
sg64
(lp2715
S'PATH_INFO'
p2716
asbag57
(g78
g59
NtRp2717
(dp2718
g62
(dp2719
g89
g90
ssg71
g2708
sg64
(lp2720
S':'
asbag57
(g78
g59
NtRp2721
(dp2722
g62
(dp2723
sg71
g2708
sg64
(lp2724
g57
(g58
g59
NtRp2725
(dp2726
g62
(dp2727
g70
I3
ssg71
g2721
sg64
(lp2728
g1267
asbasbasbag57
(g73
g59
NtRp2729
(dp2730
g62
(dp2731
sg71
g2515
sg64
(lp2732
g57
(g78
g59
NtRp2733
(dp2734
g62
(dp2735
g82
g83
ssg71
g2729
sg64
(lp2736
S'QUERY_STRING'
p2737
asbag57
(g78
g59
NtRp2738
(dp2739
g62
(dp2740
g89
g90
ssg71
g2729
sg64
(lp2741
S':'
asbag57
(g78
g59
NtRp2742
(dp2743
g62
(dp2744
sg71
g2729
sg64
(lp2745
g57
(g58
g59
NtRp2746
(dp2747
g62
(dp2748
g70
I3
ssg71
g2742
sg64
(lp2749
S''
asbasbasbag57
(g73
g59
NtRp2750
(dp2751
g62
(dp2752
sg71
g2515
sg64
(lp2753
g57
(g78
g59
NtRp2754
(dp2755
g62
(dp2756
g82
g83
ssg71
g2750
sg64
(lp2757
S'REMOTE_ADDR'
p2758
asbag57
(g78
g59
NtRp2759
(dp2760
g62
(dp2761
g89
g90
ssg71
g2750
sg64
(lp2762
S':'
asbag57
(g78
g59
NtRp2763
(dp2764
g62
(dp2765
sg71
g2750
sg64
(lp2766
g57
(g58
g59
NtRp2767
(dp2768
g62
(dp2769
g70
I3
ssg71
g2763
sg64
(lp2770
g214
asbasbasbag57
(g73
g59
NtRp2771
(dp2772
g62
(dp2773
sg71
g2515
sg64
(lp2774
g57
(g78
g59
NtRp2775
(dp2776
g62
(dp2777
g82
g83
ssg71
g2771
sg64
(lp2778
S'REMOTE_PORT'
p2779
asbag57
(g78
g59
NtRp2780
(dp2781
g62
(dp2782
g89
g90
ssg71
g2771
sg64
(lp2783
S':'
asbag57
(g78
g59
NtRp2784
(dp2785
g62
(dp2786
sg71
g2771
sg64
(lp2787
g57
(g58
g59
NtRp2788
(dp2789
g62
(dp2790
g70
I3
ssg71
g2784
sg64
(lp2791
g1331
asbasbasbag57
(g73
g59
NtRp2792
(dp2793
g62
(dp2794
sg71
g2515
sg64
(lp2795
g57
(g78
g59
NtRp2796
(dp2797
g62
(dp2798
g82
g83
ssg71
g2792
sg64
(lp2799
S'REQUEST_METHOD'
p2800
asbag57
(g78
g59
NtRp2801
(dp2802
g62
(dp2803
g89
g90
ssg71
g2792
sg64
(lp2804
S':'
asbag57
(g78
g59
NtRp2805
(dp2806
g62
(dp2807
sg71
g2792
sg64
(lp2808
g57
(g58
g59
NtRp2809
(dp2810
g62
(dp2811
g70
I3
ssg71
g2805
sg64
(lp2812
g1353
asbasbasbag57
(g73
g59
NtRp2813
(dp2814
g62
(dp2815
sg71
g2515
sg64
(lp2816
g57
(g78
g59
NtRp2817
(dp2818
g62
(dp2819
g82
g83
ssg71
g2813
sg64
(lp2820
S'REQUEST_URI'
p2821
asbag57
(g78
g59
NtRp2822
(dp2823
g62
(dp2824
g89
g90
ssg71
g2813
sg64
(lp2825
S':'
asbag57
(g78
g59
NtRp2826
(dp2827
g62
(dp2828
sg71
g2813
sg64
(lp2829
g57
(g58
g59
NtRp2830
(dp2831
g62
(dp2832
g70
I3
ssg71
g2826
sg64
(lp2833
g1267
asbasbasbag57
(g73
g59
NtRp2834
(dp2835
g62
(dp2836
sg71
g2515
sg64
(lp2837
g57
(g78
g59
NtRp2838
(dp2839
g62
(dp2840
g82
g83
ssg71
g2834
sg64
(lp2841
S'SCRIPT_NAME'
p2842
asbag57
(g78
g59
NtRp2843
(dp2844
g62
(dp2845
g89
g90
ssg71
g2834
sg64
(lp2846
S':'
asbag57
(g78
g59
NtRp2847
(dp2848
g62
(dp2849
sg71
g2834
sg64
(lp2850
g57
(g58
g59
NtRp2851
(dp2852
g62
(dp2853
g70
I3
ssg71
g2847
sg64
(lp2854
S''
asbasbasbag57
(g73
g59
NtRp2855
(dp2856
g62
(dp2857
sg71
g2515
sg64
(lp2858
g57
(g78
g59
NtRp2859
(dp2860
g62
(dp2861
g82
g83
ssg71
g2855
sg64
(lp2862
S'SERVER_NAME'
p2863
asbag57
(g78
g59
NtRp2864
(dp2865
g62
(dp2866
g89
g90
ssg71
g2855
sg64
(lp2867
S':'
asbag57
(g78
g59
NtRp2868
(dp2869
g62
(dp2870
sg71
g2855
sg64
(lp2871
g57
(g58
g59
NtRp2872
(dp2873
g62
(dp2874
g70
I3
ssg71
g2868
sg64
(lp2875
g1417
asbasbasbag57
(g73
g59
NtRp2876
(dp2877
g62
(dp2878
sg71
g2515
sg64
(lp2879
g57
(g78
g59
NtRp2880
(dp2881
g62
(dp2882
g82
g83
ssg71
g2876
sg64
(lp2883
S'SERVER_PORT'
p2884
asbag57
(g78
g59
NtRp2885
(dp2886
g62
(dp2887
g89
g90
ssg71
g2876
sg64
(lp2888
S':'
asbag57
(g78
g59
NtRp2889
(dp2890
g62
(dp2891
sg71
g2876
sg64
(lp2892
g57
(g58
g59
NtRp2893
(dp2894
g62
(dp2895
g70
I3
ssg71
g2889
sg64
(lp2896
g1439
asbasbasbag57
(g73
g59
NtRp2897
(dp2898
g62
(dp2899
sg71
g2515
sg64
(lp2900
g57
(g78
g59
NtRp2901
(dp2902
g62
(dp2903
g82
g83
ssg71
g2897
sg64
(lp2904
S'SERVER_PROTOCOL'
p2905
asbag57
(g78
g59
NtRp2906
(dp2907
g62
(dp2908
g89
g90
ssg71
g2897
sg64
(lp2909
S':'
asbag57
(g78
g59
NtRp2910
(dp2911
g62
(dp2912
sg71
g2897
sg64
(lp2913
g57
(g58
g59
NtRp2914
(dp2915
g62
(dp2916
g70
I3
ssg71
g2910
sg64
(lp2917
g1461
asbasbasbag57
(g73
g59
NtRp2918
(dp2919
g62
(dp2920
sg71
g2515
sg64
(lp2921
g57
(g78
g59
NtRp2922
(dp2923
g62
(dp2924
g82
g83
ssg71
g2918
sg64
(lp2925
S'SERVER_SOFTWARE'
p2926
asbag57
(g78
g59
NtRp2927
(dp2928
g62
(dp2929
g89
g90
ssg71
g2918
sg64
(lp2930
S':'
asbag57
(g78
g59
NtRp2931
(dp2932
g62
(dp2933
sg71
g2918
sg64
(lp2934
g57
(g58
g59
NtRp2935
(dp2936
g62
(dp2937
g70
I3
ssg71
g2931
sg64
(lp2938
g1483
asbasbasbag57
(g73
g59
NtRp2939
(dp2940
g62
(dp2941
sg71
g2515
sg64
(lp2942
g57
(g78
g59
NtRp2943
(dp2944
g62
(dp2945
g82
g83
ssg71
g2939
sg64
(lp2946
S'WEB2PY_ORIGINAL_URI'
p2947
asbag57
(g78
g59
NtRp2948
(dp2949
g62
(dp2950
g89
g90
ssg71
g2939
sg64
(lp2951
S':'
asbag57
(g78
g59
NtRp2952
(dp2953
g62
(dp2954
sg71
g2939
sg64
(lp2955
g57
(g58
g59
NtRp2956
(dp2957
g62
(dp2958
g70
I3
ssg71
g2952
sg64
(lp2959
g1267
asbasbasbag57
(g73
g59
NtRp2960
(dp2961
g62
(dp2962
sg71
g2515
sg64
(lp2963
g57
(g78
g59
NtRp2964
(dp2965
g62
(dp2966
g82
g83
ssg71
g2960
sg64
(lp2967
S'wsgi.errors'
p2968
asbag57
(g78
g59
NtRp2969
(dp2970
g62
(dp2971
g89
g90
ssg71
g2960
sg64
(lp2972
S':'
asbag57
(g78
g59
NtRp2973
(dp2974
g62
(dp2975
sg71
g2960
sg64
(lp2976
g57
(g58
g59
NtRp2977
(dp2978
g62
(dp2979
g70
I3
ssg71
g2973
sg64
(lp2980
S"<open file '<stderr>', mode 'w' at 0xb785b0d0>"
p2981
asbasbasbag57
(g73
g59
NtRp2982
(dp2983
g62
(dp2984
sg71
g2515
sg64
(lp2985
g57
(g78
g59
NtRp2986
(dp2987
g62
(dp2988
g82
g83
ssg71
g2982
sg64
(lp2989
S'wsgi.file_wrapper'
p2990
asbag57
(g78
g59
NtRp2991
(dp2992
g62
(dp2993
g89
g90
ssg71
g2982
sg64
(lp2994
S':'
asbag57
(g78
g59
NtRp2995
(dp2996
g62
(dp2997
sg71
g2982
sg64
(lp2998
g57
(g58
g59
NtRp2999
(dp3000
g62
(dp3001
g70
I3
ssg71
g2995
sg64
(lp3002
S'<class wsgiref.util.FileWrapper at 0x85e8e6c>'
p3003
asbasbasbag57
(g73
g59
NtRp3004
(dp3005
g62
(dp3006
sg71
g2515
sg64
(lp3007
g57
(g78
g59
NtRp3008
(dp3009
g62
(dp3010
g82
g83
ssg71
g3004
sg64
(lp3011
S'wsgi.input'
p3012
asbag57
(g78
g59
NtRp3013
(dp3014
g62
(dp3015
g89
g90
ssg71
g3004
sg64
(lp3016
S':'
asbag57
(g78
g59
NtRp3017
(dp3018
g62
(dp3019
sg71
g3004
sg64
(lp3020
g57
(g58
g59
NtRp3021
(dp3022
g62
(dp3023
g70
I3
ssg71
g3017
sg64
(lp3024
S'<cStringIO.StringO object at 0xb0459ca0>'
p3025
asbasbasbag57
(g73
g59
NtRp3026
(dp3027
g62
(dp3028
sg71
g2515
sg64
(lp3029
g57
(g78
g59
NtRp3030
(dp3031
g62
(dp3032
g82
g83
ssg71
g3026
sg64
(lp3033
S'wsgi.multiprocess'
p3034
asbag57
(g78
g59
NtRp3035
(dp3036
g62
(dp3037
g89
g90
ssg71
g3026
sg64
(lp3038
S':'
asbag57
(g78
g59
NtRp3039
(dp3040
g62
(dp3041
sg71
g3026
sg64
(lp3042
g57
(g58
g59
NtRp3043
(dp3044
g62
(dp3045
g70
I3
ssg71
g3039
sg64
(lp3046
g100
asbasbasbag57
(g73
g59
NtRp3047
(dp3048
g62
(dp3049
sg71
g2515
sg64
(lp3050
g57
(g78
g59
NtRp3051
(dp3052
g62
(dp3053
g82
g83
ssg71
g3047
sg64
(lp3054
S'wsgi.multithread'
p3055
asbag57
(g78
g59
NtRp3056
(dp3057
g62
(dp3058
g89
g90
ssg71
g3047
sg64
(lp3059
S':'
asbag57
(g78
g59
NtRp3060
(dp3061
g62
(dp3062
sg71
g3047
sg64
(lp3063
g57
(g58
g59
NtRp3064
(dp3065
g62
(dp3066
g70
I3
ssg71
g3060
sg64
(lp3067
g1744
asbasbasbag57
(g73
g59
NtRp3068
(dp3069
g62
(dp3070
sg71
g2515
sg64
(lp3071
g57
(g78
g59
NtRp3072
(dp3073
g62
(dp3074
g82
g83
ssg71
g3068
sg64
(lp3075
S'wsgi.run_once'
p3076
asbag57
(g78
g59
NtRp3077
(dp3078
g62
(dp3079
g89
g90
ssg71
g3068
sg64
(lp3080
S':'
asbag57
(g78
g59
NtRp3081
(dp3082
g62
(dp3083
sg71
g3068
sg64
(lp3084
g57
(g58
g59
NtRp3085
(dp3086
g62
(dp3087
g70
I3
ssg71
g3081
sg64
(lp3088
g100
asbasbasbag57
(g73
g59
NtRp3089
(dp3090
g62
(dp3091
sg71
g2515
sg64
(lp3092
g57
(g78
g59
NtRp3093
(dp3094
g62
(dp3095
g82
g83
ssg71
g3089
sg64
(lp3096
S'wsgi.url_scheme'
p3097
asbag57
(g78
g59
NtRp3098
(dp3099
g62
(dp3100
g89
g90
ssg71
g3089
sg64
(lp3101
S':'
asbag57
(g78
g59
NtRp3102
(dp3103
g62
(dp3104
sg71
g3089
sg64
(lp3105
g57
(g58
g59
NtRp3106
(dp3107
g62
(dp3108
g70
I3
ssg71
g3102
sg64
(lp3109
g1787
asbasbasbag57
(g73
g59
NtRp3110
(dp3111
g62
(dp3112
sg71
g2515
sg64
(lp3113
g57
(g78
g59
NtRp3114
(dp3115
g62
(dp3116
g82
g83
ssg71
g3110
sg64
(lp3117
S'wsgi.version'
p3118
asbag57
(g78
g59
NtRp3119
(dp3120
g62
(dp3121
g89
g90
ssg71
g3110
sg64
(lp3122
S':'
asbag57
(g78
g59
NtRp3123
(dp3124
g62
(dp3125
sg71
g3110
sg64
(lp3126
g57
(g58
g59
NtRp3127
(dp3128
g62
(dp3129
g70
I3
ssg71
g3123
sg64
(lp3130
S'1'
asbasbasbasbasbasbasbasbasbasbasbasbasbsS'frames'
p3131
(lp3132
(dp3133
S'file'
p3134
S'/home/kaique/Projects/web/big-votes/web2py/gluon/restricted.py'
p3135
sS'dump'
p3136
(dp3137
S'environment'
p3138
S"{'A': <class 'gluon.html.A'>, 'Auth': <class 'gluon.tools.Auth'>, 'B': <class 'gluon.html.B'>, 'BEAUTIFY': <class 'gluon.html.BEAUTIFY'>, 'BODY': <class 'gluon.html.BODY'>, 'BR': <class 'gluon.html.BR'>, 'BUTTON': <class 'gluon.html.BUTTON'>, 'CAT': <class 'gluon.html.CAT'>, 'CENTER': <class 'gluon.html.CENTER'>, 'CLEANUP': <class 'gluon.validators.CLEANUP'>, ...}"
p3139
sS'ccode'
p3140
S'<code object <module> at 0xafeb22a8, file "/home...plications/bigvotes/controllers/vote.py", line 2>'
p3141
ssS'lnum'
p3142
I205
sS'lines'
p3143
(dp3144
I200
S'    try:'
p3145
sI201
S'        if type(code) == types.CodeType:'
p3146
sI202
S'            ccode = code'
p3147
sI203
S'        else:'
p3148
sI204
S'            ccode = compile2(code,layer)'
p3149
sI205
S'        exec ccode in environment'
p3150
sI206
S'    except HTTP:'
p3151
sI207
S'        raise'
p3152
sI208
S'    except RestrictedError:'
p3153
sI209
S'        # do not encapsulate (obfuscate) the original RestrictedError'
p3154
ssS'call'
p3155
S"(code='# -*- coding: utf-8 -*-\\nfrom bigvotes import Vot...():\\n\\tpass\\nresponse._vars=response._caller(index)\\n', environment={'A': <class 'gluon.html.A'>, 'Auth': <class 'gluon.tools.Auth'>, 'B': <class 'gluon.html.B'>, 'BEAUTIFY': <class 'gluon.html.BEAUTIFY'>, 'BODY': <class 'gluon.html.BODY'>, 'BR': <class 'gluon.html.BR'>, 'BUTTON': <class 'gluon.html.BUTTON'>, 'CAT': <class 'gluon.html.CAT'>, 'CENTER': <class 'gluon.html.CENTER'>, 'CLEANUP': <class 'gluon.validators.CLEANUP'>, ...}, layer='/home/kaique/Projects/web/big-votes/web2py/applications/bigvotes/controllers/vote.py')"
p3156
sS'func'
p3157
S'restricted'
p3158
sa(dp3159
g3134
S'/home/kaique/Projects/web/big-votes/web2py/applications/bigvotes/controllers/vote.py'
p3160
sg3136
(dp3161
sg3142
I56
sg3143
(dp3162
I46
S''
sI47
S'\t\t\t\t\tif output:'
p3163
sI48
S"\t\t\t\t\t\tsession.vote_message = T('Voted in %(name)s' % ( members['profile'].get( int( args[1] ) ) ) )"
p3164
sI49
S"\t\t\tif now() > voting['start_at'] and now() > voting['end_at']:"
p3165
sI50
S"\t\t\t\t\tsession.vote_message = T('Voting complete, %(name)s was eliminated with %(percentage)s!' % ( members['eliminated'], members['eliminated'] ) )"
p3166
sI51
S''
sI52
S"\treturn redirect( URL('default', 'index', args=['result']) )"
p3167
sI53
S''
sI54
S'def result():'
p3168
sI55
S'\tpass'
p3169
ssg3155
S'()'
p3170
sg3157
S'<module>'
p3171
sa(dp3172
g3134
S'/home/kaique/Projects/web/big-votes/web2py/gluon/globals.py'
p3173
sg3136
(dp3174
S'self'
p3175
S'undefined'
p3176
sS'f'
S'<function index>'
p3177
ssg3142
I173
sg3143
(dp3178
I168
S'        self.menu = []             # used by the default view layout'
p3179
sI169
S'        self.files = []            # used by web2py_ajax.html'
p3180
sI170
S'        self.generic_patterns = [] # patterns to allow generic views'
p3181
sI171
S"        self.delimiters = ('{{','}}')"
p3182
sI172
S'        self._vars = None'
p3183
sI173
S'        self._caller = lambda f: f()'
p3184
sI174
S'        self._view_environment = None'
p3185
sI175
S'        self._custom_commit = None'
p3186
sI176
S'        self._custom_rollback = None'
p3187
sI177
S''
ssg3155
S'(f=<function index>)'
p3188
sg3157
S'<lambda>'
p3189
sa(dp3190
g3134
S'/home/kaique/Projects/web/big-votes/web2py/applications/bigvotes/controllers/vote.py'
p3191
sg3136
(dp3192
S'global T'
p3193
S'<gluon.languages.translator object>'
p3194
sS'global session'
p3195
S"<Storage {'_formkey[member/create]': 'f7c2e90e-1...ote/1]': '03be8445-f3dc-41a6-8183-0633baf487d7'}>"
p3196
sS'members'
p3197
S"{'eliminated': {'id': 1, 'name': 'Laisa Portella', 'percentage': 76}, 'ids': [1, 2], 'max_score': 38, 'min_score': 12, 'names': ['Laisa Portella', 'Yuri Fernandes'], 'profile': {1: {'name': 'Laisa Portella', 'score': 38}, 2: {'name': 'Yuri Fernandes', 'score': 12}}, 'scores': [38, 12], 'tied': False}"
p3198
sS'session.vote_message'
p3199
S"''"
p3200
ssg3142
I50
sg3143
(dp3201
I45
S"\t\t\t\t\toutput = Votes(db).newVote( { 'vote': args[0], 'member': args[1] } )"
p3202
sI46
S''
sI47
S'\t\t\t\t\tif output:'
p3203
sI48
S"\t\t\t\t\t\tsession.vote_message = T('Voted in %(name)s' % ( members['profile'].get( int( args[1] ) ) ) )"
p3204
sI49
S"\t\t\tif now() > voting['start_at'] and now() > voting['end_at']:"
p3205
sI50
S"\t\t\t\t\tsession.vote_message = T('Voting complete, %(name)s was eliminated with %(percentage)s!' % ( members['eliminated'], members['eliminated'] ) )"
p3206
sI51
S''
sI52
S"\treturn redirect( URL('default', 'index', args=['result']) )"
p3207
sI53
S''
sI54
S'def result():'
p3208
ssg3155
S'()'
p3209
sg3157
S'index'
p3210
sasS'pyver'
p3211
S'Python 2.7.3: /usr/bin/python'
p3212
sS'session'
p3213
g57
(g58
g59
NtRp3214
(dp3215
g62
(dp3216
sg64
(lp3217
g57
(g66
g59
NtRp3218
(dp3219
g62
(dp3220
g70
I5
ssg71
Nsg64
(lp3221
g57
(g73
g59
NtRp3222
(dp3223
g62
(dp3224
sg71
g3218
sg64
(lp3225
g57
(g78
g59
NtRp3226
(dp3227
g62
(dp3228
g82
g83
ssg71
g3222
sg64
(lp3229
S'last_query'
p3230
asbag57
(g78
g59
NtRp3231
(dp3232
g62
(dp3233
g89
g90
ssg71
g3222
sg64
(lp3234
S':'
asbag57
(g78
g59
NtRp3235
(dp3236
g62
(dp3237
sg71
g3222
sg64
(lp3238
g57
(g58
g59
NtRp3239
(dp3240
g62
(dp3241
g70
I5
ssg71
g3235
sg64
(lp3242
S'db.vote.id>0'
p3243
asbasbasbag57
(g73
g59
NtRp3244
(dp3245
g62
(dp3246
sg71
g3218
sg64
(lp3247
g57
(g78
g59
NtRp3248
(dp3249
g62
(dp3250
g82
g83
ssg71
g3244
sg64
(lp3251
S'vote_message'
p3252
asbag57
(g78
g59
NtRp3253
(dp3254
g62
(dp3255
g89
g90
ssg71
g3244
sg64
(lp3256
S':'
asbag57
(g78
g59
NtRp3257
(dp3258
g62
(dp3259
sg71
g3244
sg64
(lp3260
g57
(g58
g59
NtRp3261
(dp3262
g62
(dp3263
g70
I5
ssg71
g3257
sg64
(lp3264
S''
asbasbasbasbasbsS'etype'
p3265
S"<type 'exceptions.TypeError'>"
p3266
sS'date'
p3267
S'Mon May 21 23:57:27 2012'
p3268
sS'response'
p3269
g57
(g58
g59
NtRp3270
(dp3271
g62
(dp3272
sg64
(lp3273
g57
(g66
g59
NtRp3274
(dp3275
g62
(dp3276
g70
I5
ssg71
Nsg64
(lp3277
g57
(g73
g59
NtRp3278
(dp3279
g62
(dp3280
sg71
g3274
sg64
(lp3281
g57
(g78
g59
NtRp3282
(dp3283
g62
(dp3284
g82
g83
ssg71
g3278
sg64
(lp3285
g179
asbag57
(g78
g59
NtRp3286
(dp3287
g62
(dp3288
g89
g90
ssg71
g3278
sg64
(lp3289
S':'
asbag57
(g78
g59
NtRp3290
(dp3291
g62
(dp3292
sg71
g3278
sg64
(lp3293
g57
(g58
g59
NtRp3294
(dp3295
g62
(dp3296
g70
I5
ssg71
g3290
sg64
(lp3297
S'<cStringIO.StringO object at 0x88c1740>'
p3298
asbasbasbag57
(g73
g59
NtRp3299
(dp3300
g62
(dp3301
sg71
g3274
sg64
(lp3302
g57
(g78
g59
NtRp3303
(dp3304
g62
(dp3305
g82
g83
ssg71
g3299
sg64
(lp3306
g245
asbag57
(g78
g59
NtRp3307
(dp3308
g62
(dp3309
g89
g90
ssg71
g3299
sg64
(lp3310
S':'
asbag57
(g78
g59
NtRp3311
(dp3312
g62
(dp3313
sg71
g3299
sg64
(lp3314
g57
(g58
g59
NtRp3315
(dp3316
g62
(dp3317
g70
I5
ssg71
g3311
sg64
(lp3318
g57
(g66
g59
NtRp3319
(dp3320
g62
(dp3321
g70
I4
ssg71
Nsg64
(lp3322
g57
(g73
g59
NtRp3323
(dp3324
g62
(dp3325
sg71
g3319
sg64
(lp3326
g57
(g78
g59
NtRp3327
(dp3328
g62
(dp3329
g82
g83
ssg71
g3323
sg64
(lp3330
S'session_id_bigvotes'
p3331
asbag57
(g78
g59
NtRp3332
(dp3333
g62
(dp3334
g89
g90
ssg71
g3323
sg64
(lp3335
S':'
asbag57
(g78
g59
NtRp3336
(dp3337
g62
(dp3338
sg71
g3323
sg64
(lp3339
g57
(g58
g59
NtRp3340
(dp3341
g62
(dp3342
g70
I4
ssg71
g3336
sg64
(lp3343
g57
(g66
g59
NtRp3344
(dp3345
g62
(dp3346
g70
I3
ssg71
Nsg64
(lp3347
g57
(g73
g59
NtRp3348
(dp3349
g62
(dp3350
sg71
g3344
sg64
(lp3351
g57
(g78
g59
NtRp3352
(dp3353
g62
(dp3354
g82
g83
ssg71
g3348
sg64
(lp3355
g295
asbag57
(g78
g59
NtRp3356
(dp3357
g62
(dp3358
g89
g90
ssg71
g3348
sg64
(lp3359
S':'
asbag57
(g78
g59
NtRp3360
(dp3361
g62
(dp3362
sg71
g3348
sg64
(lp3363
g57
(g58
g59
NtRp3364
(dp3365
g62
(dp3366
g70
I3
ssg71
g3360
sg64
(lp3367
S''
asbasbasbag57
(g73
g59
NtRp3368
(dp3369
g62
(dp3370
sg71
g3344
sg64
(lp3371
g57
(g78
g59
NtRp3372
(dp3373
g62
(dp3374
g82
g83
ssg71
g3368
sg64
(lp3375
g316
asbag57
(g78
g59
NtRp3376
(dp3377
g62
(dp3378
g89
g90
ssg71
g3368
sg64
(lp3379
S':'
asbag57
(g78
g59
NtRp3380
(dp3381
g62
(dp3382
sg71
g3368
sg64
(lp3383
g57
(g58
g59
NtRp3384
(dp3385
g62
(dp3386
g70
I3
ssg71
g3380
sg64
(lp3387
S''
asbasbasbag57
(g73
g59
NtRp3388
(dp3389
g62
(dp3390
sg71
g3344
sg64
(lp3391
g57
(g78
g59
NtRp3392
(dp3393
g62
(dp3394
g82
g83
ssg71
g3388
sg64
(lp3395
g337
asbag57
(g78
g59
NtRp3396
(dp3397
g62
(dp3398
g89
g90
ssg71
g3388
sg64
(lp3399
S':'
asbag57
(g78
g59
NtRp3400
(dp3401
g62
(dp3402
sg71
g3388
sg64
(lp3403
g57
(g58
g59
NtRp3404
(dp3405
g62
(dp3406
g70
I3
ssg71
g3400
sg64
(lp3407
S''
asbasbasbag57
(g73
g59
NtRp3408
(dp3409
g62
(dp3410
sg71
g3344
sg64
(lp3411
g57
(g78
g59
NtRp3412
(dp3413
g62
(dp3414
g82
g83
ssg71
g3408
sg64
(lp3415
g358
asbag57
(g78
g59
NtRp3416
(dp3417
g62
(dp3418
g89
g90
ssg71
g3408
sg64
(lp3419
S':'
asbag57
(g78
g59
NtRp3420
(dp3421
g62
(dp3422
sg71
g3408
sg64
(lp3423
g57
(g58
g59
NtRp3424
(dp3425
g62
(dp3426
g70
I3
ssg71
g3420
sg64
(lp3427
S''
asbasbasbag57
(g73
g59
NtRp3428
(dp3429
g62
(dp3430
sg71
g3344
sg64
(lp3431
g57
(g78
g59
NtRp3432
(dp3433
g62
(dp3434
g82
g83
ssg71
g3428
sg64
(lp3435
g379
asbag57
(g78
g59
NtRp3436
(dp3437
g62
(dp3438
g89
g90
ssg71
g3428
sg64
(lp3439
S':'
asbag57
(g78
g59
NtRp3440
(dp3441
g62
(dp3442
sg71
g3428
sg64
(lp3443
g57
(g58
g59
NtRp3444
(dp3445
g62
(dp3446
g70
I3
ssg71
g3440
sg64
(lp3447
S''
asbasbasbag57
(g73
g59
NtRp3448
(dp3449
g62
(dp3450
sg71
g3344
sg64
(lp3451
g57
(g78
g59
NtRp3452
(dp3453
g62
(dp3454
g82
g83
ssg71
g3448
sg64
(lp3455
g400
asbag57
(g78
g59
NtRp3456
(dp3457
g62
(dp3458
g89
g90
ssg71
g3448
sg64
(lp3459
S':'
asbag57
(g78
g59
NtRp3460
(dp3461
g62
(dp3462
sg71
g3448
sg64
(lp3463
g57
(g58
g59
NtRp3464
(dp3465
g62
(dp3466
g70
I3
ssg71
g3460
sg64
(lp3467
S'/'
asbasbasbag57
(g73
g59
NtRp3468
(dp3469
g62
(dp3470
sg71
g3344
sg64
(lp3471
g57
(g78
g59
NtRp3472
(dp3473
g62
(dp3474
g82
g83
ssg71
g3468
sg64
(lp3475
g421
asbag57
(g78
g59
NtRp3476
(dp3477
g62
(dp3478
g89
g90
ssg71
g3468
sg64
(lp3479
S':'
asbag57
(g78
g59
NtRp3480
(dp3481
g62
(dp3482
sg71
g3468
sg64
(lp3483
g57
(g58
g59
NtRp3484
(dp3485
g62
(dp3486
g70
I3
ssg71
g3480
sg64
(lp3487
S''
asbasbasbag57
(g73
g59
NtRp3488
(dp3489
g62
(dp3490
sg71
g3344
sg64
(lp3491
g57
(g78
g59
NtRp3492
(dp3493
g62
(dp3494
g82
g83
ssg71
g3488
sg64
(lp3495
g442
asbag57
(g78
g59
NtRp3496
(dp3497
g62
(dp3498
g89
g90
ssg71
g3488
sg64
(lp3499
S':'
asbag57
(g78
g59
NtRp3500
(dp3501
g62
(dp3502
sg71
g3488
sg64
(lp3503
g57
(g58
g59
NtRp3504
(dp3505
g62
(dp3506
g70
I3
ssg71
g3500
sg64
(lp3507
S''
asbasbasbasbasbasbasbasbasbasbasbag57
(g73
g59
NtRp3508
(dp3509
g62
(dp3510
sg71
g3274
sg64
(lp3511
g57
(g78
g59
NtRp3512
(dp3513
g62
(dp3514
g82
g83
ssg71
g3508
sg64
(lp3515
S'delimiters'
p3516
asbag57
(g78
g59
NtRp3517
(dp3518
g62
(dp3519
g89
g90
ssg71
g3508
sg64
(lp3520
S':'
asbag57
(g78
g59
NtRp3521
(dp3522
g62
(dp3523
sg71
g3508
sg64
(lp3524
g57
(g58
g59
NtRp3525
(dp3526
g62
(dp3527
g70
I5
ssg71
g3521
sg64
(lp3528
g57
(g66
g59
NtRp3529
(dp3530
g62
(dp3531
g70
I4
ssg71
Nsg64
(lp3532
g57
(g73
g59
NtRp3533
(dp3534
g62
(dp3535
sg71
g3529
sg64
(lp3536
g57
(g78
g59
NtRp3537
(dp3538
g62
(dp3539
sg71
g3533
sg64
(lp3540
g57
(g58
g59
NtRp3541
(dp3542
g62
(dp3543
g70
I4
ssg71
g3537
sg64
(lp3544
S'{{'
p3545
asbasbasbag57
(g73
g59
NtRp3546
(dp3547
g62
(dp3548
sg71
g3529
sg64
(lp3549
g57
(g78
g59
NtRp3550
(dp3551
g62
(dp3552
sg71
g3546
sg64
(lp3553
g57
(g58
g59
NtRp3554
(dp3555
g62
(dp3556
g70
I4
ssg71
g3550
sg64
(lp3557
S'}}'
p3558
asbasbasbasbasbasbasbag57
(g73
g59
NtRp3559
(dp3560
g62
(dp3561
sg71
g3274
sg64
(lp3562
g57
(g78
g59
NtRp3563
(dp3564
g62
(dp3565
g82
g83
ssg71
g3559
sg64
(lp3566
S'files'
p3567
asbag57
(g78
g59
NtRp3568
(dp3569
g62
(dp3570
g89
g90
ssg71
g3559
sg64
(lp3571
S':'
asbag57
(g78
g59
NtRp3572
(dp3573
g62
(dp3574
sg71
g3559
sg64
(lp3575
g57
(g58
g59
NtRp3576
(dp3577
g62
(dp3578
g70
I5
ssg71
g3572
sg64
(lp3579
g57
(g66
g59
NtRp3580
(dp3581
g62
(dp3582
g70
I4
ssg71
Nsg64
(lp3583
sbasbasbasbag57
(g73
g59
NtRp3584
(dp3585
g62
(dp3586
sg71
g3274
sg64
(lp3587
g57
(g78
g59
NtRp3588
(dp3589
g62
(dp3590
g82
g83
ssg71
g3584
sg64
(lp3591
S'flash'
p3592
asbag57
(g78
g59
NtRp3593
(dp3594
g62
(dp3595
g89
g90
ssg71
g3584
sg64
(lp3596
S':'
asbag57
(g78
g59
NtRp3597
(dp3598
g62
(dp3599
sg71
g3584
sg64
(lp3600
g57
(g58
g59
NtRp3601
(dp3602
g62
(dp3603
g70
I5
ssg71
g3597
sg64
(lp3604
S''
asbasbasbag57
(g73
g59
NtRp3605
(dp3606
g62
(dp3607
sg71
g3274
sg64
(lp3608
g57
(g78
g59
NtRp3609
(dp3610
g62
(dp3611
g82
g83
ssg71
g3605
sg64
(lp3612
S'generic_patterns'
p3613
asbag57
(g78
g59
NtRp3614
(dp3615
g62
(dp3616
g89
g90
ssg71
g3605
sg64
(lp3617
S':'
asbag57
(g78
g59
NtRp3618
(dp3619
g62
(dp3620
sg71
g3605
sg64
(lp3621
g57
(g58
g59
NtRp3622
(dp3623
g62
(dp3624
g70
I5
ssg71
g3618
sg64
(lp3625
g57
(g66
g59
NtRp3626
(dp3627
g62
(dp3628
g70
I4
ssg71
Nsg64
(lp3629
g57
(g73
g59
NtRp3630
(dp3631
g62
(dp3632
sg71
g3626
sg64
(lp3633
g57
(g78
g59
NtRp3634
(dp3635
g62
(dp3636
sg71
g3630
sg64
(lp3637
g57
(g58
g59
NtRp3638
(dp3639
g62
(dp3640
g70
I4
ssg71
g3634
sg64
(lp3641
S'*'
asbasbasbasbasbasbasbag57
(g73
g59
NtRp3642
(dp3643
g62
(dp3644
sg71
g3274
sg64
(lp3645
g57
(g78
g59
NtRp3646
(dp3647
g62
(dp3648
g82
g83
ssg71
g3642
sg64
(lp3649
S'headers'
p3650
asbag57
(g78
g59
NtRp3651
(dp3652
g62
(dp3653
g89
g90
ssg71
g3642
sg64
(lp3654
S':'
asbag57
(g78
g59
NtRp3655
(dp3656
g62
(dp3657
sg71
g3642
sg64
(lp3658
g57
(g58
g59
NtRp3659
(dp3660
g62
(dp3661
g70
I5
ssg71
g3655
sg64
(lp3662
g57
(g66
g59
NtRp3663
(dp3664
g62
(dp3665
g70
I4
ssg71
Nsg64
(lp3666
g57
(g73
g59
NtRp3667
(dp3668
g62
(dp3669
sg71
g3663
sg64
(lp3670
g57
(g78
g59
NtRp3671
(dp3672
g62
(dp3673
g82
g83
ssg71
g3667
sg64
(lp3674
S'Cache-Control'
p3675
asbag57
(g78
g59
NtRp3676
(dp3677
g62
(dp3678
g89
g90
ssg71
g3667
sg64
(lp3679
S':'
asbag57
(g78
g59
NtRp3680
(dp3681
g62
(dp3682
sg71
g3667
sg64
(lp3683
g57
(g58
g59
NtRp3684
(dp3685
g62
(dp3686
g70
I4
ssg71
g3680
sg64
(lp3687
S'no-store, no-cache, must-revalidate, post-check=0, pre-check=0'
p3688
asbasbasbag57
(g73
g59
NtRp3689
(dp3690
g62
(dp3691
sg71
g3663
sg64
(lp3692
g57
(g78
g59
NtRp3693
(dp3694
g62
(dp3695
g82
g83
ssg71
g3689
sg64
(lp3696
S'Content-Type'
p3697
asbag57
(g78
g59
NtRp3698
(dp3699
g62
(dp3700
g89
g90
ssg71
g3689
sg64
(lp3701
S':'
asbag57
(g78
g59
NtRp3702
(dp3703
g62
(dp3704
sg71
g3689
sg64
(lp3705
g57
(g58
g59
NtRp3706
(dp3707
g62
(dp3708
g70
I4
ssg71
g3702
sg64
(lp3709
S'text/html; charset=utf-8'
p3710
asbasbasbag57
(g73
g59
NtRp3711
(dp3712
g62
(dp3713
sg71
g3663
sg64
(lp3714
g57
(g78
g59
NtRp3715
(dp3716
g62
(dp3717
g82
g83
ssg71
g3711
sg64
(lp3718
S'Expires'
p3719
asbag57
(g78
g59
NtRp3720
(dp3721
g62
(dp3722
g89
g90
ssg71
g3711
sg64
(lp3723
S':'
asbag57
(g78
g59
NtRp3724
(dp3725
g62
(dp3726
sg71
g3711
sg64
(lp3727
g57
(g58
g59
NtRp3728
(dp3729
g62
(dp3730
g70
I4
ssg71
g3724
sg64
(lp3731
S'Tue, 22 May 2012 02:57:27 GMT'
p3732
asbasbasbag57
(g73
g59
NtRp3733
(dp3734
g62
(dp3735
sg71
g3663
sg64
(lp3736
g57
(g78
g59
NtRp3737
(dp3738
g62
(dp3739
g82
g83
ssg71
g3733
sg64
(lp3740
S'Pragma'
p3741
asbag57
(g78
g59
NtRp3742
(dp3743
g62
(dp3744
g89
g90
ssg71
g3733
sg64
(lp3745
S':'
asbag57
(g78
g59
NtRp3746
(dp3747
g62
(dp3748
sg71
g3733
sg64
(lp3749
g57
(g58
g59
NtRp3750
(dp3751
g62
(dp3752
g70
I4
ssg71
g3746
sg64
(lp3753
S'no-cache'
p3754
asbasbasbag57
(g73
g59
NtRp3755
(dp3756
g62
(dp3757
sg71
g3663
sg64
(lp3758
g57
(g78
g59
NtRp3759
(dp3760
g62
(dp3761
g82
g83
ssg71
g3755
sg64
(lp3762
S'X-Powered-By'
p3763
asbag57
(g78
g59
NtRp3764
(dp3765
g62
(dp3766
g89
g90
ssg71
g3755
sg64
(lp3767
S':'
asbag57
(g78
g59
NtRp3768
(dp3769
g62
(dp3770
sg71
g3755
sg64
(lp3771
g57
(g58
g59
NtRp3772
(dp3773
g62
(dp3774
g70
I4
ssg71
g3768
sg64
(lp3775
S'web2py'
p3776
asbasbasbasbasbasbasbag57
(g73
g59
NtRp3777
(dp3778
g62
(dp3779
sg71
g3274
sg64
(lp3780
g57
(g78
g59
NtRp3781
(dp3782
g62
(dp3783
g82
g83
ssg71
g3777
sg64
(lp3784
S'menu'
p3785
asbag57
(g78
g59
NtRp3786
(dp3787
g62
(dp3788
g89
g90
ssg71
g3777
sg64
(lp3789
S':'
asbag57
(g78
g59
NtRp3790
(dp3791
g62
(dp3792
sg71
g3777
sg64
(lp3793
g57
(g58
g59
NtRp3794
(dp3795
g62
(dp3796
g70
I5
ssg71
g3790
sg64
(lp3797
g57
(g66
g59
NtRp3798
(dp3799
g62
(dp3800
g70
I4
ssg71
Nsg64
(lp3801
g57
(g73
g59
NtRp3802
(dp3803
g62
(dp3804
sg71
g3798
sg64
(lp3805
g57
(g78
g59
NtRp3806
(dp3807
g62
(dp3808
sg71
g3802
sg64
(lp3809
g57
(g58
g59
NtRp3810
(dp3811
g62
(dp3812
g70
I4
ssg71
g3806
sg64
(lp3813
g57
(g66
g59
NtRp3814
(dp3815
g62
(dp3816
g70
I3
ssg71
Nsg64
(lp3817
g57
(g73
g59
NtRp3818
(dp3819
g62
(dp3820
sg71
g3814
sg64
(lp3821
g57
(g78
g59
NtRp3822
(dp3823
g62
(dp3824
sg71
g3818
sg64
(lp3825
g57
(g58
g59
NtRp3826
(dp3827
g62
(dp3828
g70
I3
ssg71
g3822
sg64
(lp3829
cgluon.languages
lazyT_unpickle
p3830
(S't\x05\x00\x00\x00Votes'
tRp3831
asbasbasbag57
(g73
g59
NtRp3832
(dp3833
g62
(dp3834
sg71
g3814
sg64
(lp3835
g57
(g78
g59
NtRp3836
(dp3837
g62
(dp3838
sg71
g3832
sg64
(lp3839
g57
(g58
g59
NtRp3840
(dp3841
g62
(dp3842
g70
I3
ssg71
g3836
sg64
(lp3843
g100
asbasbasbag57
(g73
g59
NtRp3844
(dp3845
g62
(dp3846
sg71
g3814
sg64
(lp3847
g57
(g78
g59
NtRp3848
(dp3849
g62
(dp3850
sg71
g3844
sg64
(lp3851
g57
(g58
g59
NtRp3852
(dp3853
g62
(dp3854
g70
I3
ssg71
g3848
sg64
(lp3855
S'/bigvotes/default/index'
p3856
asbasbasbag57
(g73
g59
NtRp3857
(dp3858
g62
(dp3859
sg71
g3814
sg64
(lp3860
g57
(g78
g59
NtRp3861
(dp3862
g62
(dp3863
sg71
g3857
sg64
(lp3864
g57
(g58
g59
NtRp3865
(dp3866
g62
(dp3867
g70
I3
ssg71
g3861
sg64
(lp3868
g57
(g66
g59
NtRp3869
(dp3870
g62
(dp3871
g70
I2
ssg71
Nsg64
(lp3872
sbasbasbasbasbasbasbasbag57
(g73
g59
NtRp3873
(dp3874
g62
(dp3875
sg71
g3798
sg64
(lp3876
g57
(g78
g59
NtRp3877
(dp3878
g62
(dp3879
sg71
g3873
sg64
(lp3880
g57
(g58
g59
NtRp3881
(dp3882
g62
(dp3883
g70
I4
ssg71
g3877
sg64
(lp3884
g57
(g66
g59
NtRp3885
(dp3886
g62
(dp3887
g70
I3
ssg71
Nsg64
(lp3888
g57
(g73
g59
NtRp3889
(dp3890
g62
(dp3891
sg71
g3885
sg64
(lp3892
g57
(g78
g59
NtRp3893
(dp3894
g62
(dp3895
sg71
g3889
sg64
(lp3896
g57
(g58
g59
NtRp3897
(dp3898
g62
(dp3899
g70
I3
ssg71
g3893
sg64
(lp3900
g3830
(S't\x07\x00\x00\x00Members'
tRp3901
asbasbasbag57
(g73
g59
NtRp3902
(dp3903
g62
(dp3904
sg71
g3885
sg64
(lp3905
g57
(g78
g59
NtRp3906
(dp3907
g62
(dp3908
sg71
g3902
sg64
(lp3909
g57
(g58
g59
NtRp3910
(dp3911
g62
(dp3912
g70
I3
ssg71
g3906
sg64
(lp3913
g100
asbasbasbag57
(g73
g59
NtRp3914
(dp3915
g62
(dp3916
sg71
g3885
sg64
(lp3917
g57
(g78
g59
NtRp3918
(dp3919
g62
(dp3920
sg71
g3914
sg64
(lp3921
g57
(g58
g59
NtRp3922
(dp3923
g62
(dp3924
g70
I3
ssg71
g3918
sg64
(lp3925
S'/bigvotes/member/index'
p3926
asbasbasbag57
(g73
g59
NtRp3927
(dp3928
g62
(dp3929
sg71
g3885
sg64
(lp3930
g57
(g78
g59
NtRp3931
(dp3932
g62
(dp3933
sg71
g3927
sg64
(lp3934
g57
(g58
g59
NtRp3935
(dp3936
g62
(dp3937
g70
I3
ssg71
g3931
sg64
(lp3938
g57
(g66
g59
NtRp3939
(dp3940
g62
(dp3941
g70
I2
ssg71
Nsg64
(lp3942
sbasbasbasbasbasbasbasbag57
(g73
g59
NtRp3943
(dp3944
g62
(dp3945
sg71
g3798
sg64
(lp3946
g57
(g78
g59
NtRp3947
(dp3948
g62
(dp3949
sg71
g3943
sg64
(lp3950
g57
(g58
g59
NtRp3951
(dp3952
g62
(dp3953
g70
I4
ssg71
g3947
sg64
(lp3954
g57
(g66
g59
NtRp3955
(dp3956
g62
(dp3957
g70
I3
ssg71
Nsg64
(lp3958
g57
(g73
g59
NtRp3959
(dp3960
g62
(dp3961
sg71
g3955
sg64
(lp3962
g57
(g78
g59
NtRp3963
(dp3964
g62
(dp3965
sg71
g3959
sg64
(lp3966
g57
(g58
g59
NtRp3967
(dp3968
g62
(dp3969
g70
I3
ssg71
g3963
sg64
(lp3970
g3830
(S's\x12\x00\x00\x00Members Eliminated'
tRp3971
asbasbasbag57
(g73
g59
NtRp3972
(dp3973
g62
(dp3974
sg71
g3955
sg64
(lp3975
g57
(g78
g59
NtRp3976
(dp3977
g62
(dp3978
sg71
g3972
sg64
(lp3979
g57
(g58
g59
NtRp3980
(dp3981
g62
(dp3982
g70
I3
ssg71
g3976
sg64
(lp3983
g100
asbasbasbag57
(g73
g59
NtRp3984
(dp3985
g62
(dp3986
sg71
g3955
sg64
(lp3987
g57
(g78
g59
NtRp3988
(dp3989
g62
(dp3990
sg71
g3984
sg64
(lp3991
g57
(g58
g59
NtRp3992
(dp3993
g62
(dp3994
g70
I3
ssg71
g3988
sg64
(lp3995
S'/bigvotes/member/eliminated'
p3996
asbasbasbag57
(g73
g59
NtRp3997
(dp3998
g62
(dp3999
sg71
g3955
sg64
(lp4000
g57
(g78
g59
NtRp4001
(dp4002
g62
(dp4003
sg71
g3997
sg64
(lp4004
g57
(g58
g59
NtRp4005
(dp4006
g62
(dp4007
g70
I3
ssg71
g4001
sg64
(lp4008
g57
(g66
g59
NtRp4009
(dp4010
g62
(dp4011
g70
I2
ssg71
Nsg64
(lp4012
sbasbasbasbasbasbasbasbasbasbasbasbag57
(g73
g59
NtRp4013
(dp4014
g62
(dp4015
sg71
g3274
sg64
(lp4016
g57
(g78
g59
NtRp4017
(dp4018
g62
(dp4019
g82
g83
ssg71
g4013
sg64
(lp4020
S'meta'
p4021
asbag57
(g78
g59
NtRp4022
(dp4023
g62
(dp4024
g89
g90
ssg71
g4013
sg64
(lp4025
S':'
asbag57
(g78
g59
NtRp4026
(dp4027
g62
(dp4028
sg71
g4013
sg64
(lp4029
g57
(g58
g59
NtRp4030
(dp4031
g62
(dp4032
g70
I5
ssg71
g4026
sg64
(lp4033
g57
(g66
g59
NtRp4034
(dp4035
g62
(dp4036
g70
I4
ssg71
Nsg64
(lp4037
g57
(g73
g59
NtRp4038
(dp4039
g62
(dp4040
sg71
g4034
sg64
(lp4041
g57
(g78
g59
NtRp4042
(dp4043
g62
(dp4044
g82
g83
ssg71
g4038
sg64
(lp4045
S'author'
p4046
asbag57
(g78
g59
NtRp4047
(dp4048
g62
(dp4049
g89
g90
ssg71
g4038
sg64
(lp4050
S':'
asbag57
(g78
g59
NtRp4051
(dp4052
g62
(dp4053
sg71
g4038
sg64
(lp4054
g57
(g58
g59
NtRp4055
(dp4056
g62
(dp4057
g70
I4
ssg71
g4051
sg64
(lp4058
S'Kaique da Silva <kaique.developer@gmail.com>'
p4059
asbasbasbag57
(g73
g59
NtRp4060
(dp4061
g62
(dp4062
sg71
g4034
sg64
(lp4063
g57
(g78
g59
NtRp4064
(dp4065
g62
(dp4066
g82
g83
ssg71
g4060
sg64
(lp4067
S'copyright'
p4068
asbag57
(g78
g59
NtRp4069
(dp4070
g62
(dp4071
g89
g90
ssg71
g4060
sg64
(lp4072
S':'
asbag57
(g78
g59
NtRp4073
(dp4074
g62
(dp4075
sg71
g4060
sg64
(lp4076
g57
(g58
g59
NtRp4077
(dp4078
g62
(dp4079
g70
I4
ssg71
g4073
sg64
(lp4080
S'Copyright 2012'
p4081
asbasbasbag57
(g73
g59
NtRp4082
(dp4083
g62
(dp4084
sg71
g4034
sg64
(lp4085
g57
(g78
g59
NtRp4086
(dp4087
g62
(dp4088
g82
g83
ssg71
g4082
sg64
(lp4089
S'description'
p4090
asbag57
(g78
g59
NtRp4091
(dp4092
g62
(dp4093
g89
g90
ssg71
g4082
sg64
(lp4094
S':'
asbag57
(g78
g59
NtRp4095
(dp4096
g62
(dp4097
sg71
g4082
sg64
(lp4098
g57
(g58
g59
NtRp4099
(dp4100
g62
(dp4101
g70
I4
ssg71
g4095
sg64
(lp4102
S'Challenge app'
p4103
asbasbasbag57
(g73
g59
NtRp4104
(dp4105
g62
(dp4106
sg71
g4034
sg64
(lp4107
g57
(g78
g59
NtRp4108
(dp4109
g62
(dp4110
g82
g83
ssg71
g4104
sg64
(lp4111
S'generator'
p4112
asbag57
(g78
g59
NtRp4113
(dp4114
g62
(dp4115
g89
g90
ssg71
g4104
sg64
(lp4116
S':'
asbag57
(g78
g59
NtRp4117
(dp4118
g62
(dp4119
sg71
g4104
sg64
(lp4120
g57
(g58
g59
NtRp4121
(dp4122
g62
(dp4123
g70
I4
ssg71
g4117
sg64
(lp4124
S'Web2py Web Framework'
p4125
asbasbasbag57
(g73
g59
NtRp4126
(dp4127
g62
(dp4128
sg71
g4034
sg64
(lp4129
g57
(g78
g59
NtRp4130
(dp4131
g62
(dp4132
g82
g83
ssg71
g4126
sg64
(lp4133
S'keywords'
p4134
asbag57
(g78
g59
NtRp4135
(dp4136
g62
(dp4137
g89
g90
ssg71
g4126
sg64
(lp4138
S':'
asbag57
(g78
g59
NtRp4139
(dp4140
g62
(dp4141
sg71
g4126
sg64
(lp4142
g57
(g58
g59
NtRp4143
(dp4144
g62
(dp4145
g70
I4
ssg71
g4139
sg64
(lp4146
S'BBB, votes, challenge'
p4147
asbasbasbasbasbasbasbag57
(g73
g59
NtRp4148
(dp4149
g62
(dp4150
sg71
g3274
sg64
(lp4151
g57
(g78
g59
NtRp4152
(dp4153
g62
(dp4154
g82
g83
ssg71
g4148
sg64
(lp4155
S'postprocessing'
p4156
asbag57
(g78
g59
NtRp4157
(dp4158
g62
(dp4159
g89
g90
ssg71
g4148
sg64
(lp4160
S':'
asbag57
(g78
g59
NtRp4161
(dp4162
g62
(dp4163
sg71
g4148
sg64
(lp4164
g57
(g58
g59
NtRp4165
(dp4166
g62
(dp4167
g70
I5
ssg71
g4161
sg64
(lp4168
g57
(g66
g59
NtRp4169
(dp4170
g62
(dp4171
g70
I4
ssg71
Nsg64
(lp4172
sbasbasbasbag57
(g73
g59
NtRp4173
(dp4174
g62
(dp4175
sg71
g3274
sg64
(lp4176
g57
(g78
g59
NtRp4177
(dp4178
g62
(dp4179
g82
g83
ssg71
g4173
sg64
(lp4180
S'session_file'
p4181
asbag57
(g78
g59
NtRp4182
(dp4183
g62
(dp4184
g89
g90
ssg71
g4173
sg64
(lp4185
S':'
asbag57
(g78
g59
NtRp4186
(dp4187
g62
(dp4188
sg71
g4173
sg64
(lp4189
g57
(g58
g59
NtRp4190
(dp4191
g62
(dp4192
g70
I5
ssg71
g4186
sg64
(lp4193
S"<open file '/home/kaique/Projects/web/big-votes/web2py/applications/bigvotes/sessions/127.0.0.1-72286364-99c3-4aae-95dc-f33a83b4d6f1', mode 'rb+' at 0x8841230>"
p4194
asbasbasbag57
(g73
g59
NtRp4195
(dp4196
g62
(dp4197
sg71
g3274
sg64
(lp4198
g57
(g78
g59
NtRp4199
(dp4200
g62
(dp4201
g82
g83
ssg71
g4195
sg64
(lp4202
S'session_filename'
p4203
asbag57
(g78
g59
NtRp4204
(dp4205
g62
(dp4206
g89
g90
ssg71
g4195
sg64
(lp4207
S':'
asbag57
(g78
g59
NtRp4208
(dp4209
g62
(dp4210
sg71
g4195
sg64
(lp4211
g57
(g58
g59
NtRp4212
(dp4213
g62
(dp4214
g70
I5
ssg71
g4208
sg64
(lp4215
S'/home/kaique/Projects/web/big-votes/web2py/applications/bigvotes/sessions/127.0.0.1-72286364-99c3-4aae-95dc-f33a83b4d6f1'
p4216
asbasbasbag57
(g73
g59
NtRp4217
(dp4218
g62
(dp4219
sg71
g3274
sg64
(lp4220
g57
(g78
g59
NtRp4221
(dp4222
g62
(dp4223
g82
g83
ssg71
g4217
sg64
(lp4224
S'session_id'
p4225
asbag57
(g78
g59
NtRp4226
(dp4227
g62
(dp4228
g89
g90
ssg71
g4217
sg64
(lp4229
S':'
asbag57
(g78
g59
NtRp4230
(dp4231
g62
(dp4232
sg71
g4217
sg64
(lp4233
g57
(g58
g59
NtRp4234
(dp4235
g62
(dp4236
g70
I5
ssg71
g4230
sg64
(lp4237
S'127.0.0.1-72286364-99c3-4aae-95dc-f33a83b4d6f1'
p4238
asbasbasbag57
(g73
g59
NtRp4239
(dp4240
g62
(dp4241
sg71
g3274
sg64
(lp4242
g57
(g78
g59
NtRp4243
(dp4244
g62
(dp4245
g82
g83
ssg71
g4239
sg64
(lp4246
S'session_id_name'
p4247
asbag57
(g78
g59
NtRp4248
(dp4249
g62
(dp4250
g89
g90
ssg71
g4239
sg64
(lp4251
S':'
asbag57
(g78
g59
NtRp4252
(dp4253
g62
(dp4254
sg71
g4239
sg64
(lp4255
g57
(g58
g59
NtRp4256
(dp4257
g62
(dp4258
g70
I5
ssg71
g4252
sg64
(lp4259
g3331
asbasbasbag57
(g73
g59
NtRp4260
(dp4261
g62
(dp4262
sg71
g3274
sg64
(lp4263
g57
(g78
g59
NtRp4264
(dp4265
g62
(dp4266
g82
g83
ssg71
g4260
sg64
(lp4267
S'session_locked'
p4268
asbag57
(g78
g59
NtRp4269
(dp4270
g62
(dp4271
g89
g90
ssg71
g4260
sg64
(lp4272
S':'
asbag57
(g78
g59
NtRp4273
(dp4274
g62
(dp4275
sg71
g4260
sg64
(lp4276
g57
(g58
g59
NtRp4277
(dp4278
g62
(dp4279
g70
I5
ssg71
g4273
sg64
(lp4280
g1744
asbasbasbag57
(g73
g59
NtRp4281
(dp4282
g62
(dp4283
sg71
g3274
sg64
(lp4284
g57
(g78
g59
NtRp4285
(dp4286
g62
(dp4287
g82
g83
ssg71
g4281
sg64
(lp4288
S'session_new'
p4289
asbag57
(g78
g59
NtRp4290
(dp4291
g62
(dp4292
g89
g90
ssg71
g4281
sg64
(lp4293
S':'
asbag57
(g78
g59
NtRp4294
(dp4295
g62
(dp4296
sg71
g4281
sg64
(lp4297
g57
(g58
g59
NtRp4298
(dp4299
g62
(dp4300
g70
I5
ssg71
g4294
sg64
(lp4301
g100
asbasbasbag57
(g73
g59
NtRp4302
(dp4303
g62
(dp4304
sg71
g3274
sg64
(lp4305
g57
(g78
g59
NtRp4306
(dp4307
g62
(dp4308
g82
g83
ssg71
g4302
sg64
(lp4309
S'status'
p4310
asbag57
(g78
g59
NtRp4311
(dp4312
g62
(dp4313
g89
g90
ssg71
g4302
sg64
(lp4314
S':'
asbag57
(g78
g59
NtRp4315
(dp4316
g62
(dp4317
sg71
g4302
sg64
(lp4318
g57
(g58
g59
NtRp4319
(dp4320
g62
(dp4321
g70
I5
ssg71
g4315
sg64
(lp4322
S'200'
p4323
asbasbasbag57
(g73
g59
NtRp4324
(dp4325
g62
(dp4326
sg71
g3274
sg64
(lp4327
g57
(g78
g59
NtRp4328
(dp4329
g62
(dp4330
g82
g83
ssg71
g4324
sg64
(lp4331
S'subtitle'
p4332
asbag57
(g78
g59
NtRp4333
(dp4334
g62
(dp4335
g89
g90
ssg71
g4324
sg64
(lp4336
S':'
asbag57
(g78
g59
NtRp4337
(dp4338
g62
(dp4339
sg71
g4324
sg64
(lp4340
g57
(g58
g59
NtRp4341
(dp4342
g62
(dp4343
g70
I5
ssg71
g4337
sg64
(lp4344
S'A simple chanllenge'
p4345
asbasbasbag57
(g73
g59
NtRp4346
(dp4347
g62
(dp4348
sg71
g3274
sg64
(lp4349
g57
(g78
g59
NtRp4350
(dp4351
g62
(dp4352
g82
g83
ssg71
g4346
sg64
(lp4353
S'title'
p4354
asbag57
(g78
g59
NtRp4355
(dp4356
g62
(dp4357
g89
g90
ssg71
g4346
sg64
(lp4358
S':'
asbag57
(g78
g59
NtRp4359
(dp4360
g62
(dp4361
sg71
g4346
sg64
(lp4362
g57
(g58
g59
NtRp4363
(dp4364
g62
(dp4365
g70
I5
ssg71
g4359
sg64
(lp4366
S'Big Votes'
p4367
asbasbasbag57
(g73
g59
NtRp4368
(dp4369
g62
(dp4370
sg71
g3274
sg64
(lp4371
g57
(g78
g59
NtRp4372
(dp4373
g62
(dp4374
g82
g83
ssg71
g4368
sg64
(lp4375
g2430
asbag57
(g78
g59
NtRp4376
(dp4377
g62
(dp4378
g89
g90
ssg71
g4368
sg64
(lp4379
S':'
asbag57
(g78
g59
NtRp4380
(dp4381
g62
(dp4382
sg71
g4368
sg64
(lp4383
g57
(g58
g59
NtRp4384
(dp4385
g62
(dp4386
g70
I5
ssg71
g4380
sg64
(lp4387
g2443
asbasbasbag57
(g73
g59
NtRp4388
(dp4389
g62
(dp4390
sg71
g3274
sg64
(lp4391
g57
(g78
g59
NtRp4392
(dp4393
g62
(dp4394
g82
g83
ssg71
g4388
sg64
(lp4395
S'view'
p4396
asbag57
(g78
g59
NtRp4397
(dp4398
g62
(dp4399
g89
g90
ssg71
g4388
sg64
(lp4400
S':'
asbag57
(g78
g59
NtRp4401
(dp4402
g62
(dp4403
sg71
g4388
sg64
(lp4404
g57
(g58
g59
NtRp4405
(dp4406
g62
(dp4407
g70
I5
ssg71
g4401
sg64
(lp4408
S'vote/index.html'
p4409
asbasbasbasbasbsS'locals'
p4410
(dp4411
S'member'
p4412
S'2'
sS'client_ip'
p4413
S"'127.0.0.1'"
p4414
sS'voting'
p4415
S"<Row {'start_at': datetime.datetime(2012, 5, 21,...lete_record': <function <lambda> at 0xb60b6924>}>"
p4416
sg42
S"['1', '1']"
p4417
sS'elapsed_time'
p4418
S'datetime.timedelta(0, 300)'
p4419
sS'members'
p4420
S"{'eliminated': {'id': 1, 'name': 'Laisa Portella', 'percentage': 76}, 'ids': [1, 2], 'max_score': 38, 'min_score': 12, 'names': ['Laisa Portella', 'Yuri Fernandes'], 'profile': {1: {'name': 'Laisa Portella', 'score': 38}, 2: {'name': 'Yuri Fernandes', 'score': 12}}, 'scores': [38, 12], 'tied': False}"
p4421
sS'consult'
p4422
S"<Row {'user_id': 1, 'update_record': <function <...lete_record': <function <lambda> at 0xb60b6994>}>"
p4423
sg2
g100
sg2317
S'<built-in method now of type object>'
p4424
sssS'traceback'
p4425
S'Traceback (most recent call last):\n  File "/home/kaique/Projects/web/big-votes/web2py/gluon/restricted.py", line 205, in restricted\n    exec ccode in environment\n  File "/home/kaique/Projects/web/big-votes/web2py/applications/bigvotes/controllers/vote.py", line 56, in <module>\n  File "/home/kaique/Projects/web/big-votes/web2py/gluon/globals.py", line 173, in <lambda>\n    self._caller = lambda f: f()\n  File "/home/kaique/Projects/web/big-votes/web2py/applications/bigvotes/controllers/vote.py", line 50, in index\n    session.vote_message = T(\'Voting complete, %(name)s was eliminated with %(percentage)s!\' % ( members[\'eliminated\'], members[\'eliminated\'] ) )\nTypeError: format requires a mapping\n'
p4426
s.