(dp1
S'output'
p2
S"<type 'exceptions.SyntaxError'> keyword can't be an expression (index.html, line 91)"
p3
sS'layer'
p4
S'/home/kaique/Projects/web/big-votes/web2py/applications/bigvotes/views/default/index.html'
p5
sS'code'
p6
S'response.write(\'<!DOCTYPE html>\\n<!-- paulirish.com/2008/conditional-stylesheets-vs-css-hacks-answer-neither/ -->\\n<!--[if lt IE 7]><html class="ie ie6 ie-lte9 ie-lte8 ie-lte7 no-js" lang="\', escape=False)\nresponse.write(T.accepted_language or \'en\')\nresponse.write(\'"> <![endif]-->\\n<!--[if IE 7]><html class="ie ie7 ie-lte9 ie-lte8 ie-lte7 no-js" lang="\', escape=False)\nresponse.write(T.accepted_language or \'en\')\nresponse.write(\'"> <![endif]-->\\n<!--[if IE 8]><html class="ie ie8 ie-lte9 ie-lte8 no-js" lang="\', escape=False)\nresponse.write(T.accepted_language or \'en\')\nresponse.write(\'"> <![endif]-->\\n<!--[if IE 9]><html class="ie9 ie-lte9 no-js" lang="\', escape=False)\nresponse.write(T.accepted_language or \'en\')\nresponse.write(\'"> <![endif]-->\\n<!--[if (gt IE 9)|!(IE)]><!--> <html class="no-js" lang="\', escape=False)\nresponse.write(T.accepted_language or \'en\')\nresponse.write(\'"> <!--<![endif]-->\\n<head>\\n  <meta charset="utf-8" />\\n  <!-- www.phpied.com/conditional-comments-block-downloads/ -->\\n  <!-- Always force latest IE rendering engine\\n\\t   (even in intranet) & Chrome Frame\\n\\t   Remove this if you use the .htaccess -->\\n  <!--[if IE]>\\n    <meta http-equiv="X-UA-Compatible" content="IE=edge\', escape=False)\nresponse.write(not request.is_local and \',chrome=1\' or \'\')\nresponse.write(\'">\\n  <![endif]-->\\n  \\n  <title>\', escape=False)\nresponse.write(response.title or request.application)\nresponse.write(\'</title>\\n  \\n  <!-- http://dev.w3.org/html5/markup/meta.name.html -->\\n  <meta name="application-name" content="\', escape=False)\nresponse.write(request.application)\nresponse.write(\'" />\\n  \\n  <!-- Speaking of Google, don\\\'t forget to set your site up:\\n\\t   http://google.com/webmasters -->\\n  <meta name="google-site-verification" content="" />\\n\\n  <!--  Mobile Viewport Fix\\n\\t  j.mp/mobileviewport & davidbcalhoun.com/2010/viewport-metatag\\n\\t  device-width: Occupy full width of the screen in its current orientation\\n\\t  initial-scale = 1.0 retains dimensions instead of zooming out if page height > device height\\n\\t  user-scalable = yes allows the user to zoom in -->\\n  <meta name="viewport" content="width=device-width, initial-scale=1.0, user-scalable=yes">\\n  \\n  <!-- Place favicon.ico and apple-touch-icon.png in the root of your domain and delete these references -->\\n  <link rel="shortcut icon" href="\', escape=False)\nresponse.write(URL(\'static\',\'favicon.ico\'))\nresponse.write(\'" type="image/x-icon">\\n  <link rel="apple-touch-icon" href="\', escape=False)\nresponse.write(URL(\'static\',\'favicon.png\'))\nresponse.write(\'">\\n\\n  <!-- All JavaScript at the bottom, except for Modernizr which enables \\n\\t   HTML5 elements & feature detects -->\\n  <script src="\', escape=False)\nresponse.write(URL(\'static\',\'js/modernizr.custom.js\'))\nresponse.write(\'"></script>  \\n\\n  <!-- include stylesheets -->\\n  \', escape=False)\nresponse.files.append(URL(\'static\',\'css/skeleton.css\'))\nresponse.files.append(URL(\'static\',\'css/web2py.css\'))\nresponse.files.append(URL(\'static\',\'css/style.css\'))\nif response.menu:\n    response.files.append(URL(\'static\',\'css/superfish.css\'))\n    response.files.append(URL(\'static\',\'js/superfish.js\'))\n    pass\nresponse.write(\'\\n\\n  \', escape=False)\nresponse.write(\'<script type="text/javascript"><!--\\n    // These variables are used by the web2py_ajax_init function in web2py_ajax.js (which is loaded below).\\n    var w2p_ajax_confirm_message = "\', escape=False)\nresponse.write(T(\'Are you sure you want to delete this object?\'))\nresponse.write(\'";\\n    var w2p_ajax_date_format = "\', escape=False)\nresponse.write(T(\'%Y-%m-%d\'))\nresponse.write(\'";\\n    var w2p_ajax_datetime_format = "\', escape=False)\nresponse.write(T(\'%Y-%m-%d %H:%M:%S\'))\nresponse.write(\'";\\n    //--></script>\\n\', escape=False)\nresponse.files.insert(0,URL(\'static\',\'js/jquery.js\'))\nresponse.files.insert(1,URL(\'static\',\'css/calendar.css\'))\nresponse.files.insert(2,URL(\'static\',\'js/calendar.js\'))\nresponse.files.insert(3,URL(\'static\',\'js/web2py.js\'))\nresponse.include_meta()\nresponse.include_files()\nresponse.write(\'\\n\', escape=False)\nresponse.write(\'\\n\\n  \', escape=False)\nif response.menu:\n    response.write(\'\\n  <script type="text/javascript">\\n    jQuery(function(){ jQuery(\\\'ul.sf-menu\\\').supersubs({minWidth:12,maxWidth:30,extraWidth:3}).superfish(); });\\n  </script>\\n  \', escape=False)\n    pass\nresponse.write(\'\\n\\n  \', escape=False)\n# using sidebars need to know what sidebar you want to use\nleft_sidebar_enabled = globals().get(\'left_sidebar_enabled\',False)\nright_sidebar_enabled = globals().get(\'right_sidebar_enabled\',False)\nmiddle_columns = {0:\'sixteen\',1:\'twelve\',2:\'eight\'}[\n(left_sidebar_enabled and 1 or 0)+(right_sidebar_enabled and 1 or 0)]\nresponse.write(\'\\n\\n  <!-- uncomment here to load jquery-ui\\n  <link rel="stylesheet" href="http://ajax.googleapis.com/ajax/libs/jqueryui/1.8.16/themes/base/jquery-ui.css" type="text/css" media="all" />\\n  <script src="http://ajax.googleapis.com/ajax/libs/jqueryui/1.8.16/jquery-ui.min.js" type="text/javascript"></script>\\n  uncomment to load jquery-ui //-->\\n</head>\\n<body>\\n  <div class="wrapper"><!-- for sticky footer -->\\n  \\n    <div class="topbar">\\n      <div class="container">    \\n        <div class="sixteen columns">\\n          <div id="navbar">\', escape=False)\nresponse.write(\'auth\' in globals() and auth.navbar(separators=(\' \',\' | \',\'\')))\nresponse.write(\'</div>\\n          \', escape=False)\nis_mobile=request.user_agent().is_mobile\nresponse.write(\'\\n\\t  \', escape=False)\nif response.menu:\n    response.write(\'\\n          <div id="menu">\\n             \', escape=False)\n    response.write(MENU(response.menu, _class=\'mobile-menu\' if is_mobile else \'sf-menu\',mobile=is_mobile))\n    response.write(\'\\n          </div>\\n          \', escape=False)\n    pass\nresponse.write(\'\\n        </div>\\n      </div>\\n    </div><!-- topbar -->\\n    \\n    <div class="flash">\', escape=False)\nresponse.write(response.flash or \'\')\nresponse.write(\'</div>\\n    \\n    <div class="header">\\n      <div class="container">         \\n        <div class="sixteen columns">\\n          <h1 class="remove-bottom" style="margin-top: .5em;">\\n          \', escape=False)\nresponse.write(response.title or request.application)\nresponse.write(\'\\n          </h1>\\n          <h5>\', escape=False)\nresponse.write(response.subtitle or \'\')\nresponse.write(\'</h5>\\n        </div>\\n      </div>\\n    </div>\\n\\n    <div class="main">\\n      <div class="container">\\n        <div class="\', escape=False)\nresponse.write(middle_columns)\nresponse.write(\' columns center">\\n          \', escape=False)\nresponse.write(\'\\n          \', escape=False)\nresponse.write(\'\\n\\n<section class="main-content">\\n  \', escape=False)\nif votes and specs and len( votes.members ) == 2:\n    response.write(\'\\n    <article class="voting">\\n      <header>\\n        <hr>\\n        \', escape=False)\n    if now > specs[\'start\'] and now > specs[\'end\']:\n        response.write(\'\\n          \', escape=False)\n        response.write(P(T(\'Voting closed\'), _class="voting-message" ))\n        response.write(\'\\n        \', escape=False)\n        pass\n    response.write(\'\\n        \\n        <h2 class="vote-title"> \', escape=False)\n    response.write(\' X \'.join( specs[\'title\'] ))\n    response.write(\' </h2>\\n\\n        <div class="holder-members-imgs">\\n          \', escape=False)\n    response.write(XML(\'\'.join( specs[\'avatar\'] )))\n    response.write(\'\\n        </div>\\n      </header>\\n\\n      <footer>\\n        <div class="holder-controls">\\n          \', escape=False)\n    if now > specs[\'start\'] and now > specs[\'end\']:\n        response.write(\'\\n           <a class="button" href="\', escape=False)\n        response.write(response.flash=T(\'Votation is closed!\'))\n        response.write(\'">\\n                \', escape=False)\n        response.write(T(\'Eliminate %s\' % ( specs[\'title\'][index] ) ))\n        response.write(\'\\n           </a>\\n          \', escape=False)\n    else:\n        response.write(\'\\n            \', escape=False)\n        for index in range( len( specs[\'id\'] ) ):\n            response.write(\'\\n              <a class="button" href="\', escape=False)\n            response.write(URL(\'vote\', \'index\', args=[ votes[\'id\'], specs[\'id\'][index] ]))\n            response.write(\'">\\n                \', escape=False)\n            response.write(T(\'Eliminate %s\' % ( specs[\'title\'][index] ) ))\n            response.write(\'\\n              </a>\\n            \', escape=False)\n            pass\n        response.write(\'\\n          \', escape=False)\n        pass\n    response.write(\'\\n        </div>\\n        <hr>\\n      </footer>\\n    </article>\\n  \', escape=False)\nelse:\n    response.write(\'\\n    <article>\\n        <header>\\n            <hr>\\n            <p>\', escape=False)\n    response.write(T(\'No polls.\'))\n    response.write(\'</p>\\n        </header>\\n        <footer>\\n            <hr>\\n            \', escape=False)\n    response.write(A( T(\'See members\'), _href=URL( \'member\', \'index\' ) ))\n    response.write(\'\\n        </footer>\\n    </article>\\n  \', escape=False)\n    pass\nresponse.write(\'\\n</section>\', escape=False)\nresponse.write(\'\\n          \', escape=False)\nresponse.write(\'\\n        </div>\\n        \\n        \', escape=False)\nif right_sidebar_enabled:\n    response.write(\'\\n        <div class="four columns">\\n          \', escape=False)\n    response.write(\'\\n          <h3>Right Sidebar</h3>\\n          <p></p>\\n          \', escape=False)\n    response.write(\'\\n        </div>    \\n        \', escape=False)\n    pass\nresponse.write(\'\\n        \\n      </div><!-- container -->\\n    </div><!-- main -->\\n    \\n    <div class="push"></div>\\n  </div><!-- wrapper -->\\n\\n  <div class="footer">\\n    <div class="container">    \\n      <div class="sixteen columns">\\n        \', escape=False)\nresponse.write(\' <!-- this is default footer -->\\n        <div class="footer-content clearfix">\\n          <div class="copyright">\', escape=False)\nresponse.write(T(\'Copyright\'))\nresponse.write(\' &#169; 2012</div>\\n          <div style="float: right;">\\n            <a href="http://www.web2py.com/">\\n            <img style="padding-bottom: 0;" src="\', escape=False)\nresponse.write(URL(\'static\',\'images/poweredby.png\'))\nresponse.write(\'"/>\\n            </a>\\n          </div>\\n        </div>\\n        \', escape=False)\nresponse.write(\'\\t\\n      </div>\\n    </div><!-- container -->\\n  </div><!-- footer -->\\n  \\n  <!--[if lt IE 7 ]>\\n\\t<script src="\', escape=False)\nresponse.write(URL(\'static\',\'js/dd_belatedpng.js\'))\nresponse.write(\'"></script>\\n\\t<script> DD_belatedPNG.fix(\\\'img, .png_bg\\\'); //fix any <img> or .png_bg background-images </script>\\n\\t<![endif]-->\\n  \', escape=False)\nif response.google_analytics_id:\n    response.write(\'<script type="text/javascript"> var _gaq = _gaq || []; _gaq.push([\\\'_setAccount\\\', \\\'\', escape=False)\n    response.write(response.google_analytics_id)\n    response.write("\']); _gaq.push([\'_trackPageview\']); (function() { var ga = document.createElement(\'script\'); ga.type = \'text/javascript\'; ga.async = true; ga.src = (\'https:\' == document.location.protocol ? \'https://ssl\' : \'http://www\') + \'.google-analytics.com/ga.js\'; var s = document.getElementsByTagName(\'script\')[0]; s.parentNode.insertBefore(ga, s); })(); </script> ", escape=False)\n    pass\nresponse.write(\'\\n</body>\\n</html>\\n\', escape=False)'
p7
sS'snapshot'
p8
(dp9
S'exception'
p10
(dp11
S'__getslice__'
p12
S"<method-wrapper '__getslice__' of exceptions.SyntaxError object>"
p13
sS'text'
p14
S"''"
p15
sS'__str__'
p16
S"<method-wrapper '__str__' of exceptions.SyntaxError object>"
p17
sS'__reduce__'
p18
S'<built-in method __reduce__ of exceptions.SyntaxError object>'
p19
sS'__dict__'
p20
S'{}'
p21
sS'__sizeof__'
p22
S'<built-in method __sizeof__ of exceptions.SyntaxError object>'
p23
sS'__init__'
p24
S"<method-wrapper '__init__' of exceptions.SyntaxError object>"
p25
sS'__setattr__'
p26
S"<method-wrapper '__setattr__' of exceptions.SyntaxError object>"
p27
sS'__reduce_ex__'
p28
S'<built-in method __reduce_ex__ of exceptions.SyntaxError object>'
p29
sS'__new__'
p30
S'<built-in method __new__ of type object>'
p31
sS'__format__'
p32
S'<built-in method __format__ of exceptions.SyntaxError object>'
p33
sS'__class__'
p34
S"<type 'exceptions.SyntaxError'>"
p35
sS'filename'
p36
S"'/home/kaique/Projects/web/big-votes/web2py/applications/bigvotes/views/default/index.html'"
p37
sS'lineno'
p38
S'91'
p39
sS'msg'
p40
S'"keyword can\'t be an expression"'
p41
sS'__doc__'
p42
S"'Invalid syntax.'"
p43
sS'__getitem__'
p44
S"<method-wrapper '__getitem__' of exceptions.SyntaxError object>"
p45
sS'__setstate__'
p46
S'<built-in method __setstate__ of exceptions.SyntaxError object>'
p47
sS'__getattribute__'
p48
S"<method-wrapper '__getattribute__' of exceptions.SyntaxError object>"
p49
sS'print_file_and_line'
p50
S'None'
p51
sS'args'
p52
S'("keyword can\'t be an expression", (\'/home/kaique/Projects/web/big-votes/web2py/applications/bigvotes/views/default/index.html\', 91, None, \'\'))'
p53
sS'__subclasshook__'
p54
S'<built-in method __subclasshook__ of type object>'
p55
sS'offset'
p56
S'None'
p57
sS'__unicode__'
p58
S'<built-in method __unicode__ of exceptions.SyntaxError object>'
p59
sS'__delattr__'
p60
S"<method-wrapper '__delattr__' of exceptions.SyntaxError object>"
p61
sS'__repr__'
p62
S"<method-wrapper '__repr__' of exceptions.SyntaxError object>"
p63
sS'__hash__'
p64
S"<method-wrapper '__hash__' of exceptions.SyntaxError object>"
p65
ssS'evalue'
p66
S"keyword can't be an expression (index.html, line 91)"
p67
sS'request'
p68
ccopy_reg
_reconstructor
p69
(cgluon.html
BEAUTIFY
p70
c__builtin__
object
p71
NtRp72
(dp73
S'attributes'
p74
(dp75
sS'components'
p76
(lp77
g69
(cgluon.html
TABLE
p78
g71
NtRp79
(dp80
g74
(dp81
S'level'
p82
I5
ssS'parent'
p83
Nsg76
(lp84
g69
(cgluon.html
TR
p85
g71
NtRp86
(dp87
g74
(dp88
sg83
g79
sg76
(lp89
g69
(cgluon.html
TD
p90
g71
NtRp91
(dp92
g74
(dp93
S'_style'
p94
S'font-weight:bold;vertical-align:top'
p95
ssg83
g86
sg76
(lp96
S'ajax'
p97
asbag69
(g90
g71
NtRp98
(dp99
g74
(dp100
S'_valign'
p101
S'top'
p102
ssg83
g86
sg76
(lp103
S':'
asbag69
(g90
g71
NtRp104
(dp105
g74
(dp106
sg83
g86
sg76
(lp107
g69
(g70
g71
NtRp108
(dp109
g74
(dp110
g82
I5
ssg83
g104
sg76
(lp111
S'False'
p112
asbasbasbag69
(g85
g71
NtRp113
(dp114
g74
(dp115
sg83
g79
sg76
(lp116
g69
(g90
g71
NtRp117
(dp118
g74
(dp119
g94
g95
ssg83
g113
sg76
(lp120
S'application'
p121
asbag69
(g90
g71
NtRp122
(dp123
g74
(dp124
g101
g102
ssg83
g113
sg76
(lp125
S':'
asbag69
(g90
g71
NtRp126
(dp127
g74
(dp128
sg83
g113
sg76
(lp129
g69
(g70
g71
NtRp130
(dp131
g74
(dp132
g82
I5
ssg83
g126
sg76
(lp133
S'bigvotes'
p134
asbasbasbag69
(g85
g71
NtRp135
(dp136
g74
(dp137
sg83
g79
sg76
(lp138
g69
(g90
g71
NtRp139
(dp140
g74
(dp141
g94
g95
ssg83
g135
sg76
(lp142
g52
asbag69
(g90
g71
NtRp143
(dp144
g74
(dp145
g101
g102
ssg83
g135
sg76
(lp146
S':'
asbag69
(g90
g71
NtRp147
(dp148
g74
(dp149
sg83
g135
sg76
(lp150
g69
(g70
g71
NtRp151
(dp152
g74
(dp153
g82
I5
ssg83
g147
sg76
(lp154
g69
(g78
g71
NtRp155
(dp156
g74
(dp157
g82
I4
ssg83
Nsg76
(lp158
sbasbasbasbag69
(g85
g71
NtRp159
(dp160
g74
(dp161
sg83
g79
sg76
(lp162
g69
(g90
g71
NtRp163
(dp164
g74
(dp165
g94
g95
ssg83
g159
sg76
(lp166
S'body'
p167
asbag69
(g90
g71
NtRp168
(dp169
g74
(dp170
g101
g102
ssg83
g159
sg76
(lp171
S':'
asbag69
(g90
g71
NtRp172
(dp173
g74
(dp174
sg83
g159
sg76
(lp175
g69
(g70
g71
NtRp176
(dp177
g74
(dp178
g82
I5
ssg83
g172
sg76
(lp179
S'<cStringIO.StringO object at 0xb041d040>'
p180
asbasbasbag69
(g85
g71
NtRp181
(dp182
g74
(dp183
sg83
g79
sg76
(lp184
g69
(g90
g71
NtRp185
(dp186
g74
(dp187
g94
g95
ssg83
g181
sg76
(lp188
S'client'
p189
asbag69
(g90
g71
NtRp190
(dp191
g74
(dp192
g101
g102
ssg83
g181
sg76
(lp193
S':'
asbag69
(g90
g71
NtRp194
(dp195
g74
(dp196
sg83
g181
sg76
(lp197
g69
(g70
g71
NtRp198
(dp199
g74
(dp200
g82
I5
ssg83
g194
sg76
(lp201
S'127.0.0.1'
p202
asbasbasbag69
(g85
g71
NtRp203
(dp204
g74
(dp205
sg83
g79
sg76
(lp206
g69
(g90
g71
NtRp207
(dp208
g74
(dp209
g94
g95
ssg83
g203
sg76
(lp210
S'controller'
p211
asbag69
(g90
g71
NtRp212
(dp213
g74
(dp214
g101
g102
ssg83
g203
sg76
(lp215
S':'
asbag69
(g90
g71
NtRp216
(dp217
g74
(dp218
sg83
g203
sg76
(lp219
g69
(g70
g71
NtRp220
(dp221
g74
(dp222
g82
I5
ssg83
g216
sg76
(lp223
S'default'
p224
asbasbasbag69
(g85
g71
NtRp225
(dp226
g74
(dp227
sg83
g79
sg76
(lp228
g69
(g90
g71
NtRp229
(dp230
g74
(dp231
g94
g95
ssg83
g225
sg76
(lp232
S'cookies'
p233
asbag69
(g90
g71
NtRp234
(dp235
g74
(dp236
g101
g102
ssg83
g225
sg76
(lp237
S':'
asbag69
(g90
g71
NtRp238
(dp239
g74
(dp240
sg83
g225
sg76
(lp241
g69
(g70
g71
NtRp242
(dp243
g74
(dp244
g82
I5
ssg83
g238
sg76
(lp245
g69
(g78
g71
NtRp246
(dp247
g74
(dp248
g82
I4
ssg83
Nsg76
(lp249
g69
(g85
g71
NtRp250
(dp251
g74
(dp252
sg83
g246
sg76
(lp253
g69
(g90
g71
NtRp254
(dp255
g74
(dp256
g94
g95
ssg83
g250
sg76
(lp257
S'session_id_admin'
p258
asbag69
(g90
g71
NtRp259
(dp260
g74
(dp261
g101
g102
ssg83
g250
sg76
(lp262
S':'
asbag69
(g90
g71
NtRp263
(dp264
g74
(dp265
sg83
g250
sg76
(lp266
g69
(g70
g71
NtRp267
(dp268
g74
(dp269
g82
I4
ssg83
g263
sg76
(lp270
g69
(g78
g71
NtRp271
(dp272
g74
(dp273
g82
I3
ssg83
Nsg76
(lp274
g69
(g85
g71
NtRp275
(dp276
g74
(dp277
sg83
g271
sg76
(lp278
g69
(g90
g71
NtRp279
(dp280
g74
(dp281
g94
g95
ssg83
g275
sg76
(lp282
S'comment'
p283
asbag69
(g90
g71
NtRp284
(dp285
g74
(dp286
g101
g102
ssg83
g275
sg76
(lp287
S':'
asbag69
(g90
g71
NtRp288
(dp289
g74
(dp290
sg83
g275
sg76
(lp291
g69
(g70
g71
NtRp292
(dp293
g74
(dp294
g82
I3
ssg83
g288
sg76
(lp295
S''
asbasbasbag69
(g85
g71
NtRp296
(dp297
g74
(dp298
sg83
g271
sg76
(lp299
g69
(g90
g71
NtRp300
(dp301
g74
(dp302
g94
g95
ssg83
g296
sg76
(lp303
S'domain'
p304
asbag69
(g90
g71
NtRp305
(dp306
g74
(dp307
g101
g102
ssg83
g296
sg76
(lp308
S':'
asbag69
(g90
g71
NtRp309
(dp310
g74
(dp311
sg83
g296
sg76
(lp312
g69
(g70
g71
NtRp313
(dp314
g74
(dp315
g82
I3
ssg83
g309
sg76
(lp316
S''
asbasbasbag69
(g85
g71
NtRp317
(dp318
g74
(dp319
sg83
g271
sg76
(lp320
g69
(g90
g71
NtRp321
(dp322
g74
(dp323
g94
g95
ssg83
g317
sg76
(lp324
S'expires'
p325
asbag69
(g90
g71
NtRp326
(dp327
g74
(dp328
g101
g102
ssg83
g317
sg76
(lp329
S':'
asbag69
(g90
g71
NtRp330
(dp331
g74
(dp332
sg83
g317
sg76
(lp333
g69
(g70
g71
NtRp334
(dp335
g74
(dp336
g82
I3
ssg83
g330
sg76
(lp337
S''
asbasbasbag69
(g85
g71
NtRp338
(dp339
g74
(dp340
sg83
g271
sg76
(lp341
g69
(g90
g71
NtRp342
(dp343
g74
(dp344
g94
g95
ssg83
g338
sg76
(lp345
S'httponly'
p346
asbag69
(g90
g71
NtRp347
(dp348
g74
(dp349
g101
g102
ssg83
g338
sg76
(lp350
S':'
asbag69
(g90
g71
NtRp351
(dp352
g74
(dp353
sg83
g338
sg76
(lp354
g69
(g70
g71
NtRp355
(dp356
g74
(dp357
g82
I3
ssg83
g351
sg76
(lp358
S''
asbasbasbag69
(g85
g71
NtRp359
(dp360
g74
(dp361
sg83
g271
sg76
(lp362
g69
(g90
g71
NtRp363
(dp364
g74
(dp365
g94
g95
ssg83
g359
sg76
(lp366
S'max-age'
p367
asbag69
(g90
g71
NtRp368
(dp369
g74
(dp370
g101
g102
ssg83
g359
sg76
(lp371
S':'
asbag69
(g90
g71
NtRp372
(dp373
g74
(dp374
sg83
g359
sg76
(lp375
g69
(g70
g71
NtRp376
(dp377
g74
(dp378
g82
I3
ssg83
g372
sg76
(lp379
S''
asbasbasbag69
(g85
g71
NtRp380
(dp381
g74
(dp382
sg83
g271
sg76
(lp383
g69
(g90
g71
NtRp384
(dp385
g74
(dp386
g94
g95
ssg83
g380
sg76
(lp387
S'path'
p388
asbag69
(g90
g71
NtRp389
(dp390
g74
(dp391
g101
g102
ssg83
g380
sg76
(lp392
S':'
asbag69
(g90
g71
NtRp393
(dp394
g74
(dp395
sg83
g380
sg76
(lp396
g69
(g70
g71
NtRp397
(dp398
g74
(dp399
g82
I3
ssg83
g393
sg76
(lp400
S''
asbasbasbag69
(g85
g71
NtRp401
(dp402
g74
(dp403
sg83
g271
sg76
(lp404
g69
(g90
g71
NtRp405
(dp406
g74
(dp407
g94
g95
ssg83
g401
sg76
(lp408
S'secure'
p409
asbag69
(g90
g71
NtRp410
(dp411
g74
(dp412
g101
g102
ssg83
g401
sg76
(lp413
S':'
asbag69
(g90
g71
NtRp414
(dp415
g74
(dp416
sg83
g401
sg76
(lp417
g69
(g70
g71
NtRp418
(dp419
g74
(dp420
g82
I3
ssg83
g414
sg76
(lp421
S''
asbasbasbag69
(g85
g71
NtRp422
(dp423
g74
(dp424
sg83
g271
sg76
(lp425
g69
(g90
g71
NtRp426
(dp427
g74
(dp428
g94
g95
ssg83
g422
sg76
(lp429
S'version'
p430
asbag69
(g90
g71
NtRp431
(dp432
g74
(dp433
g101
g102
ssg83
g422
sg76
(lp434
S':'
asbag69
(g90
g71
NtRp435
(dp436
g74
(dp437
sg83
g422
sg76
(lp438
g69
(g70
g71
NtRp439
(dp440
g74
(dp441
g82
I3
ssg83
g435
sg76
(lp442
S''
asbasbasbasbasbasbasbag69
(g85
g71
NtRp443
(dp444
g74
(dp445
sg83
g246
sg76
(lp446
g69
(g90
g71
NtRp447
(dp448
g74
(dp449
g94
g95
ssg83
g443
sg76
(lp450
S'session_id_bigvotes'
p451
asbag69
(g90
g71
NtRp452
(dp453
g74
(dp454
g101
g102
ssg83
g443
sg76
(lp455
S':'
asbag69
(g90
g71
NtRp456
(dp457
g74
(dp458
sg83
g443
sg76
(lp459
g69
(g70
g71
NtRp460
(dp461
g74
(dp462
g82
I4
ssg83
g456
sg76
(lp463
g69
(g78
g71
NtRp464
(dp465
g74
(dp466
g82
I3
ssg83
Nsg76
(lp467
g69
(g85
g71
NtRp468
(dp469
g74
(dp470
sg83
g464
sg76
(lp471
g69
(g90
g71
NtRp472
(dp473
g74
(dp474
g94
g95
ssg83
g468
sg76
(lp475
g283
asbag69
(g90
g71
NtRp476
(dp477
g74
(dp478
g101
g102
ssg83
g468
sg76
(lp479
S':'
asbag69
(g90
g71
NtRp480
(dp481
g74
(dp482
sg83
g468
sg76
(lp483
g69
(g70
g71
NtRp484
(dp485
g74
(dp486
g82
I3
ssg83
g480
sg76
(lp487
S''
asbasbasbag69
(g85
g71
NtRp488
(dp489
g74
(dp490
sg83
g464
sg76
(lp491
g69
(g90
g71
NtRp492
(dp493
g74
(dp494
g94
g95
ssg83
g488
sg76
(lp495
g304
asbag69
(g90
g71
NtRp496
(dp497
g74
(dp498
g101
g102
ssg83
g488
sg76
(lp499
S':'
asbag69
(g90
g71
NtRp500
(dp501
g74
(dp502
sg83
g488
sg76
(lp503
g69
(g70
g71
NtRp504
(dp505
g74
(dp506
g82
I3
ssg83
g500
sg76
(lp507
S''
asbasbasbag69
(g85
g71
NtRp508
(dp509
g74
(dp510
sg83
g464
sg76
(lp511
g69
(g90
g71
NtRp512
(dp513
g74
(dp514
g94
g95
ssg83
g508
sg76
(lp515
g325
asbag69
(g90
g71
NtRp516
(dp517
g74
(dp518
g101
g102
ssg83
g508
sg76
(lp519
S':'
asbag69
(g90
g71
NtRp520
(dp521
g74
(dp522
sg83
g508
sg76
(lp523
g69
(g70
g71
NtRp524
(dp525
g74
(dp526
g82
I3
ssg83
g520
sg76
(lp527
S''
asbasbasbag69
(g85
g71
NtRp528
(dp529
g74
(dp530
sg83
g464
sg76
(lp531
g69
(g90
g71
NtRp532
(dp533
g74
(dp534
g94
g95
ssg83
g528
sg76
(lp535
g346
asbag69
(g90
g71
NtRp536
(dp537
g74
(dp538
g101
g102
ssg83
g528
sg76
(lp539
S':'
asbag69
(g90
g71
NtRp540
(dp541
g74
(dp542
sg83
g528
sg76
(lp543
g69
(g70
g71
NtRp544
(dp545
g74
(dp546
g82
I3
ssg83
g540
sg76
(lp547
S''
asbasbasbag69
(g85
g71
NtRp548
(dp549
g74
(dp550
sg83
g464
sg76
(lp551
g69
(g90
g71
NtRp552
(dp553
g74
(dp554
g94
g95
ssg83
g548
sg76
(lp555
g367
asbag69
(g90
g71
NtRp556
(dp557
g74
(dp558
g101
g102
ssg83
g548
sg76
(lp559
S':'
asbag69
(g90
g71
NtRp560
(dp561
g74
(dp562
sg83
g548
sg76
(lp563
g69
(g70
g71
NtRp564
(dp565
g74
(dp566
g82
I3
ssg83
g560
sg76
(lp567
S''
asbasbasbag69
(g85
g71
NtRp568
(dp569
g74
(dp570
sg83
g464
sg76
(lp571
g69
(g90
g71
NtRp572
(dp573
g74
(dp574
g94
g95
ssg83
g568
sg76
(lp575
g388
asbag69
(g90
g71
NtRp576
(dp577
g74
(dp578
g101
g102
ssg83
g568
sg76
(lp579
S':'
asbag69
(g90
g71
NtRp580
(dp581
g74
(dp582
sg83
g568
sg76
(lp583
g69
(g70
g71
NtRp584
(dp585
g74
(dp586
g82
I3
ssg83
g580
sg76
(lp587
S''
asbasbasbag69
(g85
g71
NtRp588
(dp589
g74
(dp590
sg83
g464
sg76
(lp591
g69
(g90
g71
NtRp592
(dp593
g74
(dp594
g94
g95
ssg83
g588
sg76
(lp595
g409
asbag69
(g90
g71
NtRp596
(dp597
g74
(dp598
g101
g102
ssg83
g588
sg76
(lp599
S':'
asbag69
(g90
g71
NtRp600
(dp601
g74
(dp602
sg83
g588
sg76
(lp603
g69
(g70
g71
NtRp604
(dp605
g74
(dp606
g82
I3
ssg83
g600
sg76
(lp607
S''
asbasbasbag69
(g85
g71
NtRp608
(dp609
g74
(dp610
sg83
g464
sg76
(lp611
g69
(g90
g71
NtRp612
(dp613
g74
(dp614
g94
g95
ssg83
g608
sg76
(lp615
g430
asbag69
(g90
g71
NtRp616
(dp617
g74
(dp618
g101
g102
ssg83
g608
sg76
(lp619
S':'
asbag69
(g90
g71
NtRp620
(dp621
g74
(dp622
sg83
g608
sg76
(lp623
g69
(g70
g71
NtRp624
(dp625
g74
(dp626
g82
I3
ssg83
g620
sg76
(lp627
S''
asbasbasbasbasbasbasbag69
(g85
g71
NtRp628
(dp629
g74
(dp630
sg83
g246
sg76
(lp631
g69
(g90
g71
NtRp632
(dp633
g74
(dp634
g94
g95
ssg83
g628
sg76
(lp635
S'session_id_welcome'
p636
asbag69
(g90
g71
NtRp637
(dp638
g74
(dp639
g101
g102
ssg83
g628
sg76
(lp640
S':'
asbag69
(g90
g71
NtRp641
(dp642
g74
(dp643
sg83
g628
sg76
(lp644
g69
(g70
g71
NtRp645
(dp646
g74
(dp647
g82
I4
ssg83
g641
sg76
(lp648
g69
(g78
g71
NtRp649
(dp650
g74
(dp651
g82
I3
ssg83
Nsg76
(lp652
g69
(g85
g71
NtRp653
(dp654
g74
(dp655
sg83
g649
sg76
(lp656
g69
(g90
g71
NtRp657
(dp658
g74
(dp659
g94
g95
ssg83
g653
sg76
(lp660
g283
asbag69
(g90
g71
NtRp661
(dp662
g74
(dp663
g101
g102
ssg83
g653
sg76
(lp664
S':'
asbag69
(g90
g71
NtRp665
(dp666
g74
(dp667
sg83
g653
sg76
(lp668
g69
(g70
g71
NtRp669
(dp670
g74
(dp671
g82
I3
ssg83
g665
sg76
(lp672
S''
asbasbasbag69
(g85
g71
NtRp673
(dp674
g74
(dp675
sg83
g649
sg76
(lp676
g69
(g90
g71
NtRp677
(dp678
g74
(dp679
g94
g95
ssg83
g673
sg76
(lp680
g304
asbag69
(g90
g71
NtRp681
(dp682
g74
(dp683
g101
g102
ssg83
g673
sg76
(lp684
S':'
asbag69
(g90
g71
NtRp685
(dp686
g74
(dp687
sg83
g673
sg76
(lp688
g69
(g70
g71
NtRp689
(dp690
g74
(dp691
g82
I3
ssg83
g685
sg76
(lp692
S''
asbasbasbag69
(g85
g71
NtRp693
(dp694
g74
(dp695
sg83
g649
sg76
(lp696
g69
(g90
g71
NtRp697
(dp698
g74
(dp699
g94
g95
ssg83
g693
sg76
(lp700
g325
asbag69
(g90
g71
NtRp701
(dp702
g74
(dp703
g101
g102
ssg83
g693
sg76
(lp704
S':'
asbag69
(g90
g71
NtRp705
(dp706
g74
(dp707
sg83
g693
sg76
(lp708
g69
(g70
g71
NtRp709
(dp710
g74
(dp711
g82
I3
ssg83
g705
sg76
(lp712
S''
asbasbasbag69
(g85
g71
NtRp713
(dp714
g74
(dp715
sg83
g649
sg76
(lp716
g69
(g90
g71
NtRp717
(dp718
g74
(dp719
g94
g95
ssg83
g713
sg76
(lp720
g346
asbag69
(g90
g71
NtRp721
(dp722
g74
(dp723
g101
g102
ssg83
g713
sg76
(lp724
S':'
asbag69
(g90
g71
NtRp725
(dp726
g74
(dp727
sg83
g713
sg76
(lp728
g69
(g70
g71
NtRp729
(dp730
g74
(dp731
g82
I3
ssg83
g725
sg76
(lp732
S''
asbasbasbag69
(g85
g71
NtRp733
(dp734
g74
(dp735
sg83
g649
sg76
(lp736
g69
(g90
g71
NtRp737
(dp738
g74
(dp739
g94
g95
ssg83
g733
sg76
(lp740
g367
asbag69
(g90
g71
NtRp741
(dp742
g74
(dp743
g101
g102
ssg83
g733
sg76
(lp744
S':'
asbag69
(g90
g71
NtRp745
(dp746
g74
(dp747
sg83
g733
sg76
(lp748
g69
(g70
g71
NtRp749
(dp750
g74
(dp751
g82
I3
ssg83
g745
sg76
(lp752
S''
asbasbasbag69
(g85
g71
NtRp753
(dp754
g74
(dp755
sg83
g649
sg76
(lp756
g69
(g90
g71
NtRp757
(dp758
g74
(dp759
g94
g95
ssg83
g753
sg76
(lp760
g388
asbag69
(g90
g71
NtRp761
(dp762
g74
(dp763
g101
g102
ssg83
g753
sg76
(lp764
S':'
asbag69
(g90
g71
NtRp765
(dp766
g74
(dp767
sg83
g753
sg76
(lp768
g69
(g70
g71
NtRp769
(dp770
g74
(dp771
g82
I3
ssg83
g765
sg76
(lp772
S''
asbasbasbag69
(g85
g71
NtRp773
(dp774
g74
(dp775
sg83
g649
sg76
(lp776
g69
(g90
g71
NtRp777
(dp778
g74
(dp779
g94
g95
ssg83
g773
sg76
(lp780
g409
asbag69
(g90
g71
NtRp781
(dp782
g74
(dp783
g101
g102
ssg83
g773
sg76
(lp784
S':'
asbag69
(g90
g71
NtRp785
(dp786
g74
(dp787
sg83
g773
sg76
(lp788
g69
(g70
g71
NtRp789
(dp790
g74
(dp791
g82
I3
ssg83
g785
sg76
(lp792
S''
asbasbasbag69
(g85
g71
NtRp793
(dp794
g74
(dp795
sg83
g649
sg76
(lp796
g69
(g90
g71
NtRp797
(dp798
g74
(dp799
g94
g95
ssg83
g793
sg76
(lp800
g430
asbag69
(g90
g71
NtRp801
(dp802
g74
(dp803
g101
g102
ssg83
g793
sg76
(lp804
S':'
asbag69
(g90
g71
NtRp805
(dp806
g74
(dp807
sg83
g793
sg76
(lp808
g69
(g70
g71
NtRp809
(dp810
g74
(dp811
g82
I3
ssg83
g805
sg76
(lp812
S''
asbasbasbasbasbasbasbasbasbasbasbag69
(g85
g71
NtRp813
(dp814
g74
(dp815
sg83
g79
sg76
(lp816
g69
(g90
g71
NtRp817
(dp818
g74
(dp819
g94
g95
ssg83
g813
sg76
(lp820
S'env'
p821
asbag69
(g90
g71
NtRp822
(dp823
g74
(dp824
g101
g102
ssg83
g813
sg76
(lp825
S':'
asbag69
(g90
g71
NtRp826
(dp827
g74
(dp828
sg83
g813
sg76
(lp829
g69
(g70
g71
NtRp830
(dp831
g74
(dp832
g82
I5
ssg83
g826
sg76
(lp833
g69
(g78
g71
NtRp834
(dp835
g74
(dp836
g82
I4
ssg83
Nsg76
(lp837
g69
(g85
g71
NtRp838
(dp839
g74
(dp840
sg83
g834
sg76
(lp841
g69
(g90
g71
NtRp842
(dp843
g74
(dp844
g94
g95
ssg83
g838
sg76
(lp845
S'app_folders'
p846
asbag69
(g90
g71
NtRp847
(dp848
g74
(dp849
g101
g102
ssg83
g838
sg76
(lp850
S':'
asbag69
(g90
g71
NtRp851
(dp852
g74
(dp853
sg83
g838
sg76
(lp854
g69
(g70
g71
NtRp855
(dp856
g74
(dp857
g82
I4
ssg83
g851
sg76
(lp858
S"set(['/home/kaique/Projects/web/big-votes/web2py/applications/bigvotes/', '/home/kaique/Projects/web/big-votes/web2py/applications/admin/'])"
p859
asbasbasbag69
(g85
g71
NtRp860
(dp861
g74
(dp862
sg83
g834
sg76
(lp863
g69
(g90
g71
NtRp864
(dp865
g74
(dp866
g94
g95
ssg83
g860
sg76
(lp867
S'applications_parent'
p868
asbag69
(g90
g71
NtRp869
(dp870
g74
(dp871
g101
g102
ssg83
g860
sg76
(lp872
S':'
asbag69
(g90
g71
NtRp873
(dp874
g74
(dp875
sg83
g860
sg76
(lp876
g69
(g70
g71
NtRp877
(dp878
g74
(dp879
g82
I4
ssg83
g873
sg76
(lp880
S'/home/kaique/Projects/web/big-votes/web2py'
p881
asbasbasbag69
(g85
g71
NtRp882
(dp883
g74
(dp884
sg83
g834
sg76
(lp885
g69
(g90
g71
NtRp886
(dp887
g74
(dp888
g94
g95
ssg83
g882
sg76
(lp889
S'cmd_args'
p890
asbag69
(g90
g71
NtRp891
(dp892
g74
(dp893
g101
g102
ssg83
g882
sg76
(lp894
S':'
asbag69
(g90
g71
NtRp895
(dp896
g74
(dp897
sg83
g882
sg76
(lp898
g69
(g70
g71
NtRp899
(dp900
g74
(dp901
g82
I4
ssg83
g895
sg76
(lp902
g69
(g78
g71
NtRp903
(dp904
g74
(dp905
g82
I3
ssg83
Nsg76
(lp906
sbasbasbasbag69
(g85
g71
NtRp907
(dp908
g74
(dp909
sg83
g834
sg76
(lp910
g69
(g90
g71
NtRp911
(dp912
g74
(dp913
g94
g95
ssg83
g907
sg76
(lp914
S'cmd_options'
p915
asbag69
(g90
g71
NtRp916
(dp917
g74
(dp918
g101
g102
ssg83
g907
sg76
(lp919
S':'
asbag69
(g90
g71
NtRp920
(dp921
g74
(dp922
sg83
g907
sg76
(lp923
g69
(g70
g71
NtRp924
(dp925
g74
(dp926
g82
I4
ssg83
g920
sg76
(lp927
S"<Values at 0xa236eec: {'verbose': False, 'ip': '127.0.0.1', 'shutdown_timeout': 5, 'taskbar': False, 'nocron': False, 'pid_filename': 'httpserver.pid', 'maxthreads': None, 'softcron': False, 'server_name': 'main', 'bpython': False, 'nogui': False, 'port': 8000, 'extcron': False, 'debuglevel': 30, 'test': None, 'folder': '/home/kaique/Projects/web/big-votes/web2py', 'config': '', 'import_models': False, 'winservice': '', 'shell': None, 'run': '', 'log_filename': 'httpserver.log', 'args': [''], 'socket_timeout': 5, 'ssl_ca_certificate': None, 'scheduler': None, 'profiler_filename': None, 'ssl_private_key': '', 'password': 'dev', 'request_queue_size': 5, 'ssl_certificate': '', 'cronjob': False, 'numthreads': None, 'quiet': False, 'interfaces': None, 'minthreads': None, 'timeout': 10, 'plain': False, 'nobanner': False}>"
p928
asbasbasbag69
(g85
g71
NtRp929
(dp930
g74
(dp931
sg83
g834
sg76
(lp932
g69
(g90
g71
NtRp933
(dp934
g74
(dp935
g94
g95
ssg83
g929
sg76
(lp936
S'db_sessions'
p937
asbag69
(g90
g71
NtRp938
(dp939
g74
(dp940
g101
g102
ssg83
g929
sg76
(lp941
S':'
asbag69
(g90
g71
NtRp942
(dp943
g74
(dp944
sg83
g929
sg76
(lp945
g69
(g70
g71
NtRp946
(dp947
g74
(dp948
g82
I4
ssg83
g942
sg76
(lp949
S'set([])'
p950
asbasbasbag69
(g85
g71
NtRp951
(dp952
g74
(dp953
sg83
g834
sg76
(lp954
g69
(g90
g71
NtRp955
(dp956
g74
(dp957
g94
g95
ssg83
g951
sg76
(lp958
S'debugging'
p959
asbag69
(g90
g71
NtRp960
(dp961
g74
(dp962
g101
g102
ssg83
g951
sg76
(lp963
S':'
asbag69
(g90
g71
NtRp964
(dp965
g74
(dp966
sg83
g951
sg76
(lp967
g69
(g70
g71
NtRp968
(dp969
g74
(dp970
g82
I4
ssg83
g964
sg76
(lp971
g112
asbasbasbag69
(g85
g71
NtRp972
(dp973
g74
(dp974
sg83
g834
sg76
(lp975
g69
(g90
g71
NtRp976
(dp977
g74
(dp978
g94
g95
ssg83
g972
sg76
(lp979
S'gluon_parent'
p980
asbag69
(g90
g71
NtRp981
(dp982
g74
(dp983
g101
g102
ssg83
g972
sg76
(lp984
S':'
asbag69
(g90
g71
NtRp985
(dp986
g74
(dp987
sg83
g972
sg76
(lp988
g69
(g70
g71
NtRp989
(dp990
g74
(dp991
g82
I4
ssg83
g985
sg76
(lp992
S'/home/kaique/Projects/web/big-votes/web2py'
p993
asbasbasbag69
(g85
g71
NtRp994
(dp995
g74
(dp996
sg83
g834
sg76
(lp997
g69
(g90
g71
NtRp998
(dp999
g74
(dp1000
g94
g95
ssg83
g994
sg76
(lp1001
S'http_accept'
p1002
asbag69
(g90
g71
NtRp1003
(dp1004
g74
(dp1005
g101
g102
ssg83
g994
sg76
(lp1006
S':'
asbag69
(g90
g71
NtRp1007
(dp1008
g74
(dp1009
sg83
g994
sg76
(lp1010
g69
(g70
g71
NtRp1011
(dp1012
g74
(dp1013
g82
I4
ssg83
g1007
sg76
(lp1014
S'text/html,application/xhtml+xml,application/xml;q=0.9,*/*;q=0.8'
p1015
asbasbasbag69
(g85
g71
NtRp1016
(dp1017
g74
(dp1018
sg83
g834
sg76
(lp1019
g69
(g90
g71
NtRp1020
(dp1021
g74
(dp1022
g94
g95
ssg83
g1016
sg76
(lp1023
S'http_accept_encoding'
p1024
asbag69
(g90
g71
NtRp1025
(dp1026
g74
(dp1027
g101
g102
ssg83
g1016
sg76
(lp1028
S':'
asbag69
(g90
g71
NtRp1029
(dp1030
g74
(dp1031
sg83
g1016
sg76
(lp1032
g69
(g70
g71
NtRp1033
(dp1034
g74
(dp1035
g82
I4
ssg83
g1029
sg76
(lp1036
S'gzip, deflate'
p1037
asbasbasbag69
(g85
g71
NtRp1038
(dp1039
g74
(dp1040
sg83
g834
sg76
(lp1041
g69
(g90
g71
NtRp1042
(dp1043
g74
(dp1044
g94
g95
ssg83
g1038
sg76
(lp1045
S'http_accept_language'
p1046
asbag69
(g90
g71
NtRp1047
(dp1048
g74
(dp1049
g101
g102
ssg83
g1038
sg76
(lp1050
S':'
asbag69
(g90
g71
NtRp1051
(dp1052
g74
(dp1053
sg83
g1038
sg76
(lp1054
g69
(g70
g71
NtRp1055
(dp1056
g74
(dp1057
g82
I4
ssg83
g1051
sg76
(lp1058
S'en-us,en;q=0.5'
p1059
asbasbasbag69
(g85
g71
NtRp1060
(dp1061
g74
(dp1062
sg83
g834
sg76
(lp1063
g69
(g90
g71
NtRp1064
(dp1065
g74
(dp1066
g94
g95
ssg83
g1060
sg76
(lp1067
S'http_connection'
p1068
asbag69
(g90
g71
NtRp1069
(dp1070
g74
(dp1071
g101
g102
ssg83
g1060
sg76
(lp1072
S':'
asbag69
(g90
g71
NtRp1073
(dp1074
g74
(dp1075
sg83
g1060
sg76
(lp1076
g69
(g70
g71
NtRp1077
(dp1078
g74
(dp1079
g82
I4
ssg83
g1073
sg76
(lp1080
S'keep-alive'
p1081
asbasbasbag69
(g85
g71
NtRp1082
(dp1083
g74
(dp1084
sg83
g834
sg76
(lp1085
g69
(g90
g71
NtRp1086
(dp1087
g74
(dp1088
g94
g95
ssg83
g1082
sg76
(lp1089
S'http_cookie'
p1090
asbag69
(g90
g71
NtRp1091
(dp1092
g74
(dp1093
g101
g102
ssg83
g1082
sg76
(lp1094
S':'
asbag69
(g90
g71
NtRp1095
(dp1096
g74
(dp1097
sg83
g1082
sg76
(lp1098
g69
(g70
g71
NtRp1099
(dp1100
g74
(dp1101
g82
I4
ssg83
g1095
sg76
(lp1102
S'session_id_welcome=127.0.0.1-2ecfa9c2-5112-46c3-a61d-d3ed2a022cb8; session_id_admin=127.0.0.1-bbb3d6a0-08e9-48b9-b2e9-87a0603316cc; session_id_bigvotes=127.0.0.1-72286364-99c3-4aae-95dc-f33a83b4d6f1'
p1103
asbasbasbag69
(g85
g71
NtRp1104
(dp1105
g74
(dp1106
sg83
g834
sg76
(lp1107
g69
(g90
g71
NtRp1108
(dp1109
g74
(dp1110
g94
g95
ssg83
g1104
sg76
(lp1111
S'http_host'
p1112
asbag69
(g90
g71
NtRp1113
(dp1114
g74
(dp1115
g101
g102
ssg83
g1104
sg76
(lp1116
S':'
asbag69
(g90
g71
NtRp1117
(dp1118
g74
(dp1119
sg83
g1104
sg76
(lp1120
g69
(g70
g71
NtRp1121
(dp1122
g74
(dp1123
g82
I4
ssg83
g1117
sg76
(lp1124
S'localhost:8000'
p1125
asbasbasbag69
(g85
g71
NtRp1126
(dp1127
g74
(dp1128
sg83
g834
sg76
(lp1129
g69
(g90
g71
NtRp1130
(dp1131
g74
(dp1132
g94
g95
ssg83
g1126
sg76
(lp1133
S'http_referer'
p1134
asbag69
(g90
g71
NtRp1135
(dp1136
g74
(dp1137
g101
g102
ssg83
g1126
sg76
(lp1138
S':'
asbag69
(g90
g71
NtRp1139
(dp1140
g74
(dp1141
sg83
g1126
sg76
(lp1142
g69
(g70
g71
NtRp1143
(dp1144
g74
(dp1145
g82
I4
ssg83
g1139
sg76
(lp1146
S'http://localhost:8000/bigvotes/vote/index/1/1'
p1147
asbasbasbag69
(g85
g71
NtRp1148
(dp1149
g74
(dp1150
sg83
g834
sg76
(lp1151
g69
(g90
g71
NtRp1152
(dp1153
g74
(dp1154
g94
g95
ssg83
g1148
sg76
(lp1155
S'http_user_agent'
p1156
asbag69
(g90
g71
NtRp1157
(dp1158
g74
(dp1159
g101
g102
ssg83
g1148
sg76
(lp1160
S':'
asbag69
(g90
g71
NtRp1161
(dp1162
g74
(dp1163
sg83
g1148
sg76
(lp1164
g69
(g70
g71
NtRp1165
(dp1166
g74
(dp1167
g82
I4
ssg83
g1161
sg76
(lp1168
S'Mozilla/5.0 (X11; Linux i686; rv:12.0) Gecko/20100101 Firefox/12.0'
p1169
asbasbasbag69
(g85
g71
NtRp1170
(dp1171
g74
(dp1172
sg83
g834
sg76
(lp1173
g69
(g90
g71
NtRp1174
(dp1175
g74
(dp1176
g94
g95
ssg83
g1170
sg76
(lp1177
S'is_jython'
p1178
asbag69
(g90
g71
NtRp1179
(dp1180
g74
(dp1181
g101
g102
ssg83
g1170
sg76
(lp1182
S':'
asbag69
(g90
g71
NtRp1183
(dp1184
g74
(dp1185
sg83
g1170
sg76
(lp1186
g69
(g70
g71
NtRp1187
(dp1188
g74
(dp1189
g82
I4
ssg83
g1183
sg76
(lp1190
g112
asbasbasbag69
(g85
g71
NtRp1191
(dp1192
g74
(dp1193
sg83
g834
sg76
(lp1194
g69
(g90
g71
NtRp1195
(dp1196
g74
(dp1197
g94
g95
ssg83
g1191
sg76
(lp1198
S'is_pypy'
p1199
asbag69
(g90
g71
NtRp1200
(dp1201
g74
(dp1202
g101
g102
ssg83
g1191
sg76
(lp1203
S':'
asbag69
(g90
g71
NtRp1204
(dp1205
g74
(dp1206
sg83
g1191
sg76
(lp1207
g69
(g70
g71
NtRp1208
(dp1209
g74
(dp1210
g82
I4
ssg83
g1204
sg76
(lp1211
g112
asbasbasbag69
(g85
g71
NtRp1212
(dp1213
g74
(dp1214
sg83
g834
sg76
(lp1215
g69
(g90
g71
NtRp1216
(dp1217
g74
(dp1218
g94
g95
ssg83
g1212
sg76
(lp1219
S'path_info'
p1220
asbag69
(g90
g71
NtRp1221
(dp1222
g74
(dp1223
g101
g102
ssg83
g1212
sg76
(lp1224
S':'
asbag69
(g90
g71
NtRp1225
(dp1226
g74
(dp1227
sg83
g1212
sg76
(lp1228
g69
(g70
g71
NtRp1229
(dp1230
g74
(dp1231
g82
I4
ssg83
g1225
sg76
(lp1232
S'/bigvotes/default/index'
p1233
asbasbasbag69
(g85
g71
NtRp1234
(dp1235
g74
(dp1236
sg83
g834
sg76
(lp1237
g69
(g90
g71
NtRp1238
(dp1239
g74
(dp1240
g94
g95
ssg83
g1234
sg76
(lp1241
S'query_string'
p1242
asbag69
(g90
g71
NtRp1243
(dp1244
g74
(dp1245
g101
g102
ssg83
g1234
sg76
(lp1246
S':'
asbag69
(g90
g71
NtRp1247
(dp1248
g74
(dp1249
sg83
g1234
sg76
(lp1250
g69
(g70
g71
NtRp1251
(dp1252
g74
(dp1253
g82
I4
ssg83
g1247
sg76
(lp1254
S''
asbasbasbag69
(g85
g71
NtRp1255
(dp1256
g74
(dp1257
sg83
g834
sg76
(lp1258
g69
(g90
g71
NtRp1259
(dp1260
g74
(dp1261
g94
g95
ssg83
g1255
sg76
(lp1262
S'remote_addr'
p1263
asbag69
(g90
g71
NtRp1264
(dp1265
g74
(dp1266
g101
g102
ssg83
g1255
sg76
(lp1267
S':'
asbag69
(g90
g71
NtRp1268
(dp1269
g74
(dp1270
sg83
g1255
sg76
(lp1271
g69
(g70
g71
NtRp1272
(dp1273
g74
(dp1274
g82
I4
ssg83
g1268
sg76
(lp1275
g202
asbasbasbag69
(g85
g71
NtRp1276
(dp1277
g74
(dp1278
sg83
g834
sg76
(lp1279
g69
(g90
g71
NtRp1280
(dp1281
g74
(dp1282
g94
g95
ssg83
g1276
sg76
(lp1283
S'remote_port'
p1284
asbag69
(g90
g71
NtRp1285
(dp1286
g74
(dp1287
g101
g102
ssg83
g1276
sg76
(lp1288
S':'
asbag69
(g90
g71
NtRp1289
(dp1290
g74
(dp1291
sg83
g1276
sg76
(lp1292
g69
(g70
g71
NtRp1293
(dp1294
g74
(dp1295
g82
I4
ssg83
g1289
sg76
(lp1296
S'59523'
p1297
asbasbasbag69
(g85
g71
NtRp1298
(dp1299
g74
(dp1300
sg83
g834
sg76
(lp1301
g69
(g90
g71
NtRp1302
(dp1303
g74
(dp1304
g94
g95
ssg83
g1298
sg76
(lp1305
S'request_method'
p1306
asbag69
(g90
g71
NtRp1307
(dp1308
g74
(dp1309
g101
g102
ssg83
g1298
sg76
(lp1310
S':'
asbag69
(g90
g71
NtRp1311
(dp1312
g74
(dp1313
sg83
g1298
sg76
(lp1314
g69
(g70
g71
NtRp1315
(dp1316
g74
(dp1317
g82
I4
ssg83
g1311
sg76
(lp1318
S'GET'
p1319
asbasbasbag69
(g85
g71
NtRp1320
(dp1321
g74
(dp1322
sg83
g834
sg76
(lp1323
g69
(g90
g71
NtRp1324
(dp1325
g74
(dp1326
g94
g95
ssg83
g1320
sg76
(lp1327
S'request_uri'
p1328
asbag69
(g90
g71
NtRp1329
(dp1330
g74
(dp1331
g101
g102
ssg83
g1320
sg76
(lp1332
S':'
asbag69
(g90
g71
NtRp1333
(dp1334
g74
(dp1335
sg83
g1320
sg76
(lp1336
g69
(g70
g71
NtRp1337
(dp1338
g74
(dp1339
g82
I4
ssg83
g1333
sg76
(lp1340
g1233
asbasbasbag69
(g85
g71
NtRp1341
(dp1342
g74
(dp1343
sg83
g834
sg76
(lp1344
g69
(g90
g71
NtRp1345
(dp1346
g74
(dp1347
g94
g95
ssg83
g1341
sg76
(lp1348
S'script_name'
p1349
asbag69
(g90
g71
NtRp1350
(dp1351
g74
(dp1352
g101
g102
ssg83
g1341
sg76
(lp1353
S':'
asbag69
(g90
g71
NtRp1354
(dp1355
g74
(dp1356
sg83
g1341
sg76
(lp1357
g69
(g70
g71
NtRp1358
(dp1359
g74
(dp1360
g82
I4
ssg83
g1354
sg76
(lp1361
S''
asbasbasbag69
(g85
g71
NtRp1362
(dp1363
g74
(dp1364
sg83
g834
sg76
(lp1365
g69
(g90
g71
NtRp1366
(dp1367
g74
(dp1368
g94
g95
ssg83
g1362
sg76
(lp1369
S'server_name'
p1370
asbag69
(g90
g71
NtRp1371
(dp1372
g74
(dp1373
g101
g102
ssg83
g1362
sg76
(lp1374
S':'
asbag69
(g90
g71
NtRp1375
(dp1376
g74
(dp1377
sg83
g1362
sg76
(lp1378
g69
(g70
g71
NtRp1379
(dp1380
g74
(dp1381
g82
I4
ssg83
g1375
sg76
(lp1382
S'main'
p1383
asbasbasbag69
(g85
g71
NtRp1384
(dp1385
g74
(dp1386
sg83
g834
sg76
(lp1387
g69
(g90
g71
NtRp1388
(dp1389
g74
(dp1390
g94
g95
ssg83
g1384
sg76
(lp1391
S'server_port'
p1392
asbag69
(g90
g71
NtRp1393
(dp1394
g74
(dp1395
g101
g102
ssg83
g1384
sg76
(lp1396
S':'
asbag69
(g90
g71
NtRp1397
(dp1398
g74
(dp1399
sg83
g1384
sg76
(lp1400
g69
(g70
g71
NtRp1401
(dp1402
g74
(dp1403
g82
I4
ssg83
g1397
sg76
(lp1404
S'8000'
p1405
asbasbasbag69
(g85
g71
NtRp1406
(dp1407
g74
(dp1408
sg83
g834
sg76
(lp1409
g69
(g90
g71
NtRp1410
(dp1411
g74
(dp1412
g94
g95
ssg83
g1406
sg76
(lp1413
S'server_protocol'
p1414
asbag69
(g90
g71
NtRp1415
(dp1416
g74
(dp1417
g101
g102
ssg83
g1406
sg76
(lp1418
S':'
asbag69
(g90
g71
NtRp1419
(dp1420
g74
(dp1421
sg83
g1406
sg76
(lp1422
g69
(g70
g71
NtRp1423
(dp1424
g74
(dp1425
g82
I4
ssg83
g1419
sg76
(lp1426
S'HTTP/1.1'
p1427
asbasbasbag69
(g85
g71
NtRp1428
(dp1429
g74
(dp1430
sg83
g834
sg76
(lp1431
g69
(g90
g71
NtRp1432
(dp1433
g74
(dp1434
g94
g95
ssg83
g1428
sg76
(lp1435
S'server_software'
p1436
asbag69
(g90
g71
NtRp1437
(dp1438
g74
(dp1439
g101
g102
ssg83
g1428
sg76
(lp1440
S':'
asbag69
(g90
g71
NtRp1441
(dp1442
g74
(dp1443
sg83
g1428
sg76
(lp1444
g69
(g70
g71
NtRp1445
(dp1446
g74
(dp1447
g82
I4
ssg83
g1441
sg76
(lp1448
S'Rocket 1.2.4'
p1449
asbasbasbag69
(g85
g71
NtRp1450
(dp1451
g74
(dp1452
sg83
g834
sg76
(lp1453
g69
(g90
g71
NtRp1454
(dp1455
g74
(dp1456
g94
g95
ssg83
g1450
sg76
(lp1457
S'web2py_crontype'
p1458
asbag69
(g90
g71
NtRp1459
(dp1460
g74
(dp1461
g101
g102
ssg83
g1450
sg76
(lp1462
S':'
asbag69
(g90
g71
NtRp1463
(dp1464
g74
(dp1465
sg83
g1450
sg76
(lp1466
g69
(g70
g71
NtRp1467
(dp1468
g74
(dp1469
g82
I4
ssg83
g1463
sg76
(lp1470
S'hard'
p1471
asbasbasbag69
(g85
g71
NtRp1472
(dp1473
g74
(dp1474
sg83
g834
sg76
(lp1475
g69
(g90
g71
NtRp1476
(dp1477
g74
(dp1478
g94
g95
ssg83
g1472
sg76
(lp1479
S'web2py_original_uri'
p1480
asbag69
(g90
g71
NtRp1481
(dp1482
g74
(dp1483
g101
g102
ssg83
g1472
sg76
(lp1484
S':'
asbag69
(g90
g71
NtRp1485
(dp1486
g74
(dp1487
sg83
g1472
sg76
(lp1488
g69
(g70
g71
NtRp1489
(dp1490
g74
(dp1491
g82
I4
ssg83
g1485
sg76
(lp1492
g1233
asbasbasbag69
(g85
g71
NtRp1493
(dp1494
g74
(dp1495
sg83
g834
sg76
(lp1496
g69
(g90
g71
NtRp1497
(dp1498
g74
(dp1499
g94
g95
ssg83
g1493
sg76
(lp1500
S'web2py_path'
p1501
asbag69
(g90
g71
NtRp1502
(dp1503
g74
(dp1504
g101
g102
ssg83
g1493
sg76
(lp1505
S':'
asbag69
(g90
g71
NtRp1506
(dp1507
g74
(dp1508
sg83
g1493
sg76
(lp1509
g69
(g70
g71
NtRp1510
(dp1511
g74
(dp1512
g82
I4
ssg83
g1506
sg76
(lp1513
g881
asbasbasbag69
(g85
g71
NtRp1514
(dp1515
g74
(dp1516
sg83
g834
sg76
(lp1517
g69
(g90
g71
NtRp1518
(dp1519
g74
(dp1520
g94
g95
ssg83
g1514
sg76
(lp1521
S'web2py_version'
p1522
asbag69
(g90
g71
NtRp1523
(dp1524
g74
(dp1525
g101
g102
ssg83
g1514
sg76
(lp1526
S':'
asbag69
(g90
g71
NtRp1527
(dp1528
g74
(dp1529
sg83
g1514
sg76
(lp1530
g69
(g70
g71
NtRp1531
(dp1532
g74
(dp1533
g82
I4
ssg83
g1527
sg76
(lp1534
g69
(g78
g71
NtRp1535
(dp1536
g74
(dp1537
g82
I3
ssg83
Nsg76
(lp1538
g69
(g85
g71
NtRp1539
(dp1540
g74
(dp1541
sg83
g1535
sg76
(lp1542
g69
(g90
g71
NtRp1543
(dp1544
g74
(dp1545
sg83
g1539
sg76
(lp1546
g69
(g70
g71
NtRp1547
(dp1548
g74
(dp1549
g82
I3
ssg83
g1543
sg76
(lp1550
S'1'
asbasbasbag69
(g85
g71
NtRp1551
(dp1552
g74
(dp1553
sg83
g1535
sg76
(lp1554
g69
(g90
g71
NtRp1555
(dp1556
g74
(dp1557
sg83
g1551
sg76
(lp1558
g69
(g70
g71
NtRp1559
(dp1560
g74
(dp1561
g82
I3
ssg83
g1555
sg76
(lp1562
S'99'
p1563
asbasbasbag69
(g85
g71
NtRp1564
(dp1565
g74
(dp1566
sg83
g1535
sg76
(lp1567
g69
(g90
g71
NtRp1568
(dp1569
g74
(dp1570
sg83
g1564
sg76
(lp1571
g69
(g70
g71
NtRp1572
(dp1573
g74
(dp1574
g82
I3
ssg83
g1568
sg76
(lp1575
S'7'
asbasbasbag69
(g85
g71
NtRp1576
(dp1577
g74
(dp1578
sg83
g1535
sg76
(lp1579
g69
(g90
g71
NtRp1580
(dp1581
g74
(dp1582
sg83
g1576
sg76
(lp1583
g69
(g70
g71
NtRp1584
(dp1585
g74
(dp1586
g82
I3
ssg83
g1580
sg76
(lp1587
S'datetime.datetime(2012, 3, 4, 22, 12, 8)'
p1588
asbasbasbag69
(g85
g71
NtRp1589
(dp1590
g74
(dp1591
sg83
g1535
sg76
(lp1592
g69
(g90
g71
NtRp1593
(dp1594
g74
(dp1595
sg83
g1589
sg76
(lp1596
g69
(g70
g71
NtRp1597
(dp1598
g74
(dp1599
g82
I3
ssg83
g1593
sg76
(lp1600
S'stable'
p1601
asbasbasbasbasbasbasbag69
(g85
g71
NtRp1602
(dp1603
g74
(dp1604
sg83
g834
sg76
(lp1605
g69
(g90
g71
NtRp1606
(dp1607
g74
(dp1608
g94
g95
ssg83
g1602
sg76
(lp1609
S'wsgi_errors'
p1610
asbag69
(g90
g71
NtRp1611
(dp1612
g74
(dp1613
g101
g102
ssg83
g1602
sg76
(lp1614
S':'
asbag69
(g90
g71
NtRp1615
(dp1616
g74
(dp1617
sg83
g1602
sg76
(lp1618
g69
(g70
g71
NtRp1619
(dp1620
g74
(dp1621
g82
I4
ssg83
g1615
sg76
(lp1622
S"<open file '<stderr>', mode 'w' at 0xb77e20d0>"
p1623
asbasbasbag69
(g85
g71
NtRp1624
(dp1625
g74
(dp1626
sg83
g834
sg76
(lp1627
g69
(g90
g71
NtRp1628
(dp1629
g74
(dp1630
g94
g95
ssg83
g1624
sg76
(lp1631
S'wsgi_file_wrapper'
p1632
asbag69
(g90
g71
NtRp1633
(dp1634
g74
(dp1635
g101
g102
ssg83
g1624
sg76
(lp1636
S':'
asbag69
(g90
g71
NtRp1637
(dp1638
g74
(dp1639
sg83
g1624
sg76
(lp1640
g69
(g70
g71
NtRp1641
(dp1642
g74
(dp1643
g82
I4
ssg83
g1637
sg76
(lp1644
S'<class wsgiref.util.FileWrapper at 0xa054efc>'
p1645
asbasbasbag69
(g85
g71
NtRp1646
(dp1647
g74
(dp1648
sg83
g834
sg76
(lp1649
g69
(g90
g71
NtRp1650
(dp1651
g74
(dp1652
g94
g95
ssg83
g1646
sg76
(lp1653
S'wsgi_input'
p1654
asbag69
(g90
g71
NtRp1655
(dp1656
g74
(dp1657
g101
g102
ssg83
g1646
sg76
(lp1658
S':'
asbag69
(g90
g71
NtRp1659
(dp1660
g74
(dp1661
sg83
g1646
sg76
(lp1662
g69
(g70
g71
NtRp1663
(dp1664
g74
(dp1665
g82
I4
ssg83
g1659
sg76
(lp1666
S'<socket._fileobject object at 0x9caccec>'
p1667
asbasbasbag69
(g85
g71
NtRp1668
(dp1669
g74
(dp1670
sg83
g834
sg76
(lp1671
g69
(g90
g71
NtRp1672
(dp1673
g74
(dp1674
g94
g95
ssg83
g1668
sg76
(lp1675
S'wsgi_multiprocess'
p1676
asbag69
(g90
g71
NtRp1677
(dp1678
g74
(dp1679
g101
g102
ssg83
g1668
sg76
(lp1680
S':'
asbag69
(g90
g71
NtRp1681
(dp1682
g74
(dp1683
sg83
g1668
sg76
(lp1684
g69
(g70
g71
NtRp1685
(dp1686
g74
(dp1687
g82
I4
ssg83
g1681
sg76
(lp1688
g112
asbasbasbag69
(g85
g71
NtRp1689
(dp1690
g74
(dp1691
sg83
g834
sg76
(lp1692
g69
(g90
g71
NtRp1693
(dp1694
g74
(dp1695
g94
g95
ssg83
g1689
sg76
(lp1696
S'wsgi_multithread'
p1697
asbag69
(g90
g71
NtRp1698
(dp1699
g74
(dp1700
g101
g102
ssg83
g1689
sg76
(lp1701
S':'
asbag69
(g90
g71
NtRp1702
(dp1703
g74
(dp1704
sg83
g1689
sg76
(lp1705
g69
(g70
g71
NtRp1706
(dp1707
g74
(dp1708
g82
I4
ssg83
g1702
sg76
(lp1709
S'True'
p1710
asbasbasbag69
(g85
g71
NtRp1711
(dp1712
g74
(dp1713
sg83
g834
sg76
(lp1714
g69
(g90
g71
NtRp1715
(dp1716
g74
(dp1717
g94
g95
ssg83
g1711
sg76
(lp1718
S'wsgi_run_once'
p1719
asbag69
(g90
g71
NtRp1720
(dp1721
g74
(dp1722
g101
g102
ssg83
g1711
sg76
(lp1723
S':'
asbag69
(g90
g71
NtRp1724
(dp1725
g74
(dp1726
sg83
g1711
sg76
(lp1727
g69
(g70
g71
NtRp1728
(dp1729
g74
(dp1730
g82
I4
ssg83
g1724
sg76
(lp1731
g112
asbasbasbag69
(g85
g71
NtRp1732
(dp1733
g74
(dp1734
sg83
g834
sg76
(lp1735
g69
(g90
g71
NtRp1736
(dp1737
g74
(dp1738
g94
g95
ssg83
g1732
sg76
(lp1739
S'wsgi_url_scheme'
p1740
asbag69
(g90
g71
NtRp1741
(dp1742
g74
(dp1743
g101
g102
ssg83
g1732
sg76
(lp1744
S':'
asbag69
(g90
g71
NtRp1745
(dp1746
g74
(dp1747
sg83
g1732
sg76
(lp1748
g69
(g70
g71
NtRp1749
(dp1750
g74
(dp1751
g82
I4
ssg83
g1745
sg76
(lp1752
S'http'
p1753
asbasbasbag69
(g85
g71
NtRp1754
(dp1755
g74
(dp1756
sg83
g834
sg76
(lp1757
g69
(g90
g71
NtRp1758
(dp1759
g74
(dp1760
g94
g95
ssg83
g1754
sg76
(lp1761
S'wsgi_version'
p1762
asbag69
(g90
g71
NtRp1763
(dp1764
g74
(dp1765
g101
g102
ssg83
g1754
sg76
(lp1766
S':'
asbag69
(g90
g71
NtRp1767
(dp1768
g74
(dp1769
sg83
g1754
sg76
(lp1770
g69
(g70
g71
NtRp1771
(dp1772
g74
(dp1773
g82
I4
ssg83
g1767
sg76
(lp1774
g69
(g78
g71
NtRp1775
(dp1776
g74
(dp1777
g82
I3
ssg83
Nsg76
(lp1778
g69
(g85
g71
NtRp1779
(dp1780
g74
(dp1781
sg83
g1775
sg76
(lp1782
g69
(g90
g71
NtRp1783
(dp1784
g74
(dp1785
sg83
g1779
sg76
(lp1786
g69
(g70
g71
NtRp1787
(dp1788
g74
(dp1789
g82
I3
ssg83
g1783
sg76
(lp1790
S'1'
asbasbasbag69
(g85
g71
NtRp1791
(dp1792
g74
(dp1793
sg83
g1775
sg76
(lp1794
g69
(g90
g71
NtRp1795
(dp1796
g74
(dp1797
sg83
g1791
sg76
(lp1798
g69
(g70
g71
NtRp1799
(dp1800
g74
(dp1801
g82
I3
ssg83
g1795
sg76
(lp1802
S'0'
asbasbasbasbasbasbasbasbasbasbasbag69
(g85
g71
NtRp1803
(dp1804
g74
(dp1805
sg83
g79
sg76
(lp1806
g69
(g90
g71
NtRp1807
(dp1808
g74
(dp1809
g94
g95
ssg83
g1803
sg76
(lp1810
S'extension'
p1811
asbag69
(g90
g71
NtRp1812
(dp1813
g74
(dp1814
g101
g102
ssg83
g1803
sg76
(lp1815
S':'
asbag69
(g90
g71
NtRp1816
(dp1817
g74
(dp1818
sg83
g1803
sg76
(lp1819
g69
(g70
g71
NtRp1820
(dp1821
g74
(dp1822
g82
I5
ssg83
g1816
sg76
(lp1823
S'html'
p1824
asbasbasbag69
(g85
g71
NtRp1825
(dp1826
g74
(dp1827
sg83
g79
sg76
(lp1828
g69
(g90
g71
NtRp1829
(dp1830
g74
(dp1831
g94
g95
ssg83
g1825
sg76
(lp1832
S'folder'
p1833
asbag69
(g90
g71
NtRp1834
(dp1835
g74
(dp1836
g101
g102
ssg83
g1825
sg76
(lp1837
S':'
asbag69
(g90
g71
NtRp1838
(dp1839
g74
(dp1840
sg83
g1825
sg76
(lp1841
g69
(g70
g71
NtRp1842
(dp1843
g74
(dp1844
g82
I5
ssg83
g1838
sg76
(lp1845
S'/home/kaique/Projects/web/big-votes/web2py/applications/bigvotes/'
p1846
asbasbasbag69
(g85
g71
NtRp1847
(dp1848
g74
(dp1849
sg83
g79
sg76
(lp1850
g69
(g90
g71
NtRp1851
(dp1852
g74
(dp1853
g94
g95
ssg83
g1847
sg76
(lp1854
S'function'
p1855
asbag69
(g90
g71
NtRp1856
(dp1857
g74
(dp1858
g101
g102
ssg83
g1847
sg76
(lp1859
S':'
asbag69
(g90
g71
NtRp1860
(dp1861
g74
(dp1862
sg83
g1847
sg76
(lp1863
g69
(g70
g71
NtRp1864
(dp1865
g74
(dp1866
g82
I5
ssg83
g1860
sg76
(lp1867
S'index'
p1868
asbasbasbag69
(g85
g71
NtRp1869
(dp1870
g74
(dp1871
sg83
g79
sg76
(lp1872
g69
(g90
g71
NtRp1873
(dp1874
g74
(dp1875
g94
g95
ssg83
g1869
sg76
(lp1876
S'get_vars'
p1877
asbag69
(g90
g71
NtRp1878
(dp1879
g74
(dp1880
g101
g102
ssg83
g1869
sg76
(lp1881
S':'
asbag69
(g90
g71
NtRp1882
(dp1883
g74
(dp1884
sg83
g1869
sg76
(lp1885
g69
(g70
g71
NtRp1886
(dp1887
g74
(dp1888
g82
I5
ssg83
g1882
sg76
(lp1889
g69
(g78
g71
NtRp1890
(dp1891
g74
(dp1892
g82
I4
ssg83
Nsg76
(lp1893
sbasbasbasbag69
(g85
g71
NtRp1894
(dp1895
g74
(dp1896
sg83
g79
sg76
(lp1897
g69
(g90
g71
NtRp1898
(dp1899
g74
(dp1900
g94
g95
ssg83
g1894
sg76
(lp1901
S'global_settings'
p1902
asbag69
(g90
g71
NtRp1903
(dp1904
g74
(dp1905
g101
g102
ssg83
g1894
sg76
(lp1906
S':'
asbag69
(g90
g71
NtRp1907
(dp1908
g74
(dp1909
sg83
g1894
sg76
(lp1910
g69
(g70
g71
NtRp1911
(dp1912
g74
(dp1913
g82
I5
ssg83
g1907
sg76
(lp1914
g69
(g78
g71
NtRp1915
(dp1916
g74
(dp1917
g82
I4
ssg83
Nsg76
(lp1918
g69
(g85
g71
NtRp1919
(dp1920
g74
(dp1921
sg83
g1915
sg76
(lp1922
g69
(g90
g71
NtRp1923
(dp1924
g74
(dp1925
g94
g95
ssg83
g1919
sg76
(lp1926
g846
asbag69
(g90
g71
NtRp1927
(dp1928
g74
(dp1929
g101
g102
ssg83
g1919
sg76
(lp1930
S':'
asbag69
(g90
g71
NtRp1931
(dp1932
g74
(dp1933
sg83
g1919
sg76
(lp1934
g69
(g70
g71
NtRp1935
(dp1936
g74
(dp1937
g82
I4
ssg83
g1931
sg76
(lp1938
S"set(['/home/kaique/Projects/web/big-votes/web2py/applications/bigvotes/', '/home/kaique/Projects/web/big-votes/web2py/applications/admin/'])"
p1939
asbasbasbag69
(g85
g71
NtRp1940
(dp1941
g74
(dp1942
sg83
g1915
sg76
(lp1943
g69
(g90
g71
NtRp1944
(dp1945
g74
(dp1946
g94
g95
ssg83
g1940
sg76
(lp1947
g868
asbag69
(g90
g71
NtRp1948
(dp1949
g74
(dp1950
g101
g102
ssg83
g1940
sg76
(lp1951
S':'
asbag69
(g90
g71
NtRp1952
(dp1953
g74
(dp1954
sg83
g1940
sg76
(lp1955
g69
(g70
g71
NtRp1956
(dp1957
g74
(dp1958
g82
I4
ssg83
g1952
sg76
(lp1959
g881
asbasbasbag69
(g85
g71
NtRp1960
(dp1961
g74
(dp1962
sg83
g1915
sg76
(lp1963
g69
(g90
g71
NtRp1964
(dp1965
g74
(dp1966
g94
g95
ssg83
g1960
sg76
(lp1967
g890
asbag69
(g90
g71
NtRp1968
(dp1969
g74
(dp1970
g101
g102
ssg83
g1960
sg76
(lp1971
S':'
asbag69
(g90
g71
NtRp1972
(dp1973
g74
(dp1974
sg83
g1960
sg76
(lp1975
g69
(g70
g71
NtRp1976
(dp1977
g74
(dp1978
g82
I4
ssg83
g1972
sg76
(lp1979
g69
(g78
g71
NtRp1980
(dp1981
g74
(dp1982
g82
I3
ssg83
Nsg76
(lp1983
sbasbasbasbag69
(g85
g71
NtRp1984
(dp1985
g74
(dp1986
sg83
g1915
sg76
(lp1987
g69
(g90
g71
NtRp1988
(dp1989
g74
(dp1990
g94
g95
ssg83
g1984
sg76
(lp1991
g915
asbag69
(g90
g71
NtRp1992
(dp1993
g74
(dp1994
g101
g102
ssg83
g1984
sg76
(lp1995
S':'
asbag69
(g90
g71
NtRp1996
(dp1997
g74
(dp1998
sg83
g1984
sg76
(lp1999
g69
(g70
g71
NtRp2000
(dp2001
g74
(dp2002
g82
I4
ssg83
g1996
sg76
(lp2003
S"<Values at 0xa236eec: {'verbose': False, 'ip': '127.0.0.1', 'shutdown_timeout': 5, 'taskbar': False, 'nocron': False, 'pid_filename': 'httpserver.pid', 'maxthreads': None, 'softcron': False, 'server_name': 'main', 'bpython': False, 'nogui': False, 'port': 8000, 'extcron': False, 'debuglevel': 30, 'test': None, 'folder': '/home/kaique/Projects/web/big-votes/web2py', 'config': '', 'import_models': False, 'winservice': '', 'shell': None, 'run': '', 'log_filename': 'httpserver.log', 'args': [''], 'socket_timeout': 5, 'ssl_ca_certificate': None, 'scheduler': None, 'profiler_filename': None, 'ssl_private_key': '', 'password': 'dev', 'request_queue_size': 5, 'ssl_certificate': '', 'cronjob': False, 'numthreads': None, 'quiet': False, 'interfaces': None, 'minthreads': None, 'timeout': 10, 'plain': False, 'nobanner': False}>"
p2004
asbasbasbag69
(g85
g71
NtRp2005
(dp2006
g74
(dp2007
sg83
g1915
sg76
(lp2008
g69
(g90
g71
NtRp2009
(dp2010
g74
(dp2011
g94
g95
ssg83
g2005
sg76
(lp2012
g937
asbag69
(g90
g71
NtRp2013
(dp2014
g74
(dp2015
g101
g102
ssg83
g2005
sg76
(lp2016
S':'
asbag69
(g90
g71
NtRp2017
(dp2018
g74
(dp2019
sg83
g2005
sg76
(lp2020
g69
(g70
g71
NtRp2021
(dp2022
g74
(dp2023
g82
I4
ssg83
g2017
sg76
(lp2024
S'set([])'
p2025
asbasbasbag69
(g85
g71
NtRp2026
(dp2027
g74
(dp2028
sg83
g1915
sg76
(lp2029
g69
(g90
g71
NtRp2030
(dp2031
g74
(dp2032
g94
g95
ssg83
g2026
sg76
(lp2033
g959
asbag69
(g90
g71
NtRp2034
(dp2035
g74
(dp2036
g101
g102
ssg83
g2026
sg76
(lp2037
S':'
asbag69
(g90
g71
NtRp2038
(dp2039
g74
(dp2040
sg83
g2026
sg76
(lp2041
g69
(g70
g71
NtRp2042
(dp2043
g74
(dp2044
g82
I4
ssg83
g2038
sg76
(lp2045
g112
asbasbasbag69
(g85
g71
NtRp2046
(dp2047
g74
(dp2048
sg83
g1915
sg76
(lp2049
g69
(g90
g71
NtRp2050
(dp2051
g74
(dp2052
g94
g95
ssg83
g2046
sg76
(lp2053
g980
asbag69
(g90
g71
NtRp2054
(dp2055
g74
(dp2056
g101
g102
ssg83
g2046
sg76
(lp2057
S':'
asbag69
(g90
g71
NtRp2058
(dp2059
g74
(dp2060
sg83
g2046
sg76
(lp2061
g69
(g70
g71
NtRp2062
(dp2063
g74
(dp2064
g82
I4
ssg83
g2058
sg76
(lp2065
g993
asbasbasbag69
(g85
g71
NtRp2066
(dp2067
g74
(dp2068
sg83
g1915
sg76
(lp2069
g69
(g90
g71
NtRp2070
(dp2071
g74
(dp2072
g94
g95
ssg83
g2066
sg76
(lp2073
g1178
asbag69
(g90
g71
NtRp2074
(dp2075
g74
(dp2076
g101
g102
ssg83
g2066
sg76
(lp2077
S':'
asbag69
(g90
g71
NtRp2078
(dp2079
g74
(dp2080
sg83
g2066
sg76
(lp2081
g69
(g70
g71
NtRp2082
(dp2083
g74
(dp2084
g82
I4
ssg83
g2078
sg76
(lp2085
g112
asbasbasbag69
(g85
g71
NtRp2086
(dp2087
g74
(dp2088
sg83
g1915
sg76
(lp2089
g69
(g90
g71
NtRp2090
(dp2091
g74
(dp2092
g94
g95
ssg83
g2086
sg76
(lp2093
g1199
asbag69
(g90
g71
NtRp2094
(dp2095
g74
(dp2096
g101
g102
ssg83
g2086
sg76
(lp2097
S':'
asbag69
(g90
g71
NtRp2098
(dp2099
g74
(dp2100
sg83
g2086
sg76
(lp2101
g69
(g70
g71
NtRp2102
(dp2103
g74
(dp2104
g82
I4
ssg83
g2098
sg76
(lp2105
g112
asbasbasbag69
(g85
g71
NtRp2106
(dp2107
g74
(dp2108
sg83
g1915
sg76
(lp2109
g69
(g90
g71
NtRp2110
(dp2111
g74
(dp2112
g94
g95
ssg83
g2106
sg76
(lp2113
g1458
asbag69
(g90
g71
NtRp2114
(dp2115
g74
(dp2116
g101
g102
ssg83
g2106
sg76
(lp2117
S':'
asbag69
(g90
g71
NtRp2118
(dp2119
g74
(dp2120
sg83
g2106
sg76
(lp2121
g69
(g70
g71
NtRp2122
(dp2123
g74
(dp2124
g82
I4
ssg83
g2118
sg76
(lp2125
g1471
asbasbasbag69
(g85
g71
NtRp2126
(dp2127
g74
(dp2128
sg83
g1915
sg76
(lp2129
g69
(g90
g71
NtRp2130
(dp2131
g74
(dp2132
g94
g95
ssg83
g2126
sg76
(lp2133
g1522
asbag69
(g90
g71
NtRp2134
(dp2135
g74
(dp2136
g101
g102
ssg83
g2126
sg76
(lp2137
S':'
asbag69
(g90
g71
NtRp2138
(dp2139
g74
(dp2140
sg83
g2126
sg76
(lp2141
g69
(g70
g71
NtRp2142
(dp2143
g74
(dp2144
g82
I4
ssg83
g2138
sg76
(lp2145
g69
(g78
g71
NtRp2146
(dp2147
g74
(dp2148
g82
I3
ssg83
Nsg76
(lp2149
g69
(g85
g71
NtRp2150
(dp2151
g74
(dp2152
sg83
g2146
sg76
(lp2153
g69
(g90
g71
NtRp2154
(dp2155
g74
(dp2156
sg83
g2150
sg76
(lp2157
g69
(g70
g71
NtRp2158
(dp2159
g74
(dp2160
g82
I3
ssg83
g2154
sg76
(lp2161
S'1'
asbasbasbag69
(g85
g71
NtRp2162
(dp2163
g74
(dp2164
sg83
g2146
sg76
(lp2165
g69
(g90
g71
NtRp2166
(dp2167
g74
(dp2168
sg83
g2162
sg76
(lp2169
g69
(g70
g71
NtRp2170
(dp2171
g74
(dp2172
g82
I3
ssg83
g2166
sg76
(lp2173
S'99'
p2174
asbasbasbag69
(g85
g71
NtRp2175
(dp2176
g74
(dp2177
sg83
g2146
sg76
(lp2178
g69
(g90
g71
NtRp2179
(dp2180
g74
(dp2181
sg83
g2175
sg76
(lp2182
g69
(g70
g71
NtRp2183
(dp2184
g74
(dp2185
g82
I3
ssg83
g2179
sg76
(lp2186
S'7'
asbasbasbag69
(g85
g71
NtRp2187
(dp2188
g74
(dp2189
sg83
g2146
sg76
(lp2190
g69
(g90
g71
NtRp2191
(dp2192
g74
(dp2193
sg83
g2187
sg76
(lp2194
g69
(g70
g71
NtRp2195
(dp2196
g74
(dp2197
g82
I3
ssg83
g2191
sg76
(lp2198
S'datetime.datetime(2012, 3, 4, 22, 12, 8)'
p2199
asbasbasbag69
(g85
g71
NtRp2200
(dp2201
g74
(dp2202
sg83
g2146
sg76
(lp2203
g69
(g90
g71
NtRp2204
(dp2205
g74
(dp2206
sg83
g2200
sg76
(lp2207
g69
(g70
g71
NtRp2208
(dp2209
g74
(dp2210
g82
I3
ssg83
g2204
sg76
(lp2211
g1601
asbasbasbasbasbasbasbasbasbasbasbag69
(g85
g71
NtRp2212
(dp2213
g74
(dp2214
sg83
g79
sg76
(lp2215
g69
(g90
g71
NtRp2216
(dp2217
g74
(dp2218
g94
g95
ssg83
g2212
sg76
(lp2219
S'is_https'
p2220
asbag69
(g90
g71
NtRp2221
(dp2222
g74
(dp2223
g101
g102
ssg83
g2212
sg76
(lp2224
S':'
asbag69
(g90
g71
NtRp2225
(dp2226
g74
(dp2227
sg83
g2212
sg76
(lp2228
g69
(g70
g71
NtRp2229
(dp2230
g74
(dp2231
g82
I5
ssg83
g2225
sg76
(lp2232
g112
asbasbasbag69
(g85
g71
NtRp2233
(dp2234
g74
(dp2235
sg83
g79
sg76
(lp2236
g69
(g90
g71
NtRp2237
(dp2238
g74
(dp2239
g94
g95
ssg83
g2233
sg76
(lp2240
S'is_local'
p2241
asbag69
(g90
g71
NtRp2242
(dp2243
g74
(dp2244
g101
g102
ssg83
g2233
sg76
(lp2245
S':'
asbag69
(g90
g71
NtRp2246
(dp2247
g74
(dp2248
sg83
g2233
sg76
(lp2249
g69
(g70
g71
NtRp2250
(dp2251
g74
(dp2252
g82
I5
ssg83
g2246
sg76
(lp2253
g1710
asbasbasbag69
(g85
g71
NtRp2254
(dp2255
g74
(dp2256
sg83
g79
sg76
(lp2257
g69
(g90
g71
NtRp2258
(dp2259
g74
(dp2260
g94
g95
ssg83
g2254
sg76
(lp2261
S'is_restful'
p2262
asbag69
(g90
g71
NtRp2263
(dp2264
g74
(dp2265
g101
g102
ssg83
g2254
sg76
(lp2266
S':'
asbag69
(g90
g71
NtRp2267
(dp2268
g74
(dp2269
sg83
g2254
sg76
(lp2270
g69
(g70
g71
NtRp2271
(dp2272
g74
(dp2273
g82
I5
ssg83
g2267
sg76
(lp2274
g112
asbasbasbag69
(g85
g71
NtRp2275
(dp2276
g74
(dp2277
sg83
g79
sg76
(lp2278
g69
(g90
g71
NtRp2279
(dp2280
g74
(dp2281
g94
g95
ssg83
g2275
sg76
(lp2282
S'now'
p2283
asbag69
(g90
g71
NtRp2284
(dp2285
g74
(dp2286
g101
g102
ssg83
g2275
sg76
(lp2287
S':'
asbag69
(g90
g71
NtRp2288
(dp2289
g74
(dp2290
sg83
g2275
sg76
(lp2291
g69
(g70
g71
NtRp2292
(dp2293
g74
(dp2294
g82
I5
ssg83
g2288
sg76
(lp2295
S'datetime.datetime(2012, 5, 21, 22, 47, 30, 583363)'
p2296
asbasbasbag69
(g85
g71
NtRp2297
(dp2298
g74
(dp2299
sg83
g79
sg76
(lp2300
g69
(g90
g71
NtRp2301
(dp2302
g74
(dp2303
g94
g95
ssg83
g2297
sg76
(lp2304
S'post_vars'
p2305
asbag69
(g90
g71
NtRp2306
(dp2307
g74
(dp2308
g101
g102
ssg83
g2297
sg76
(lp2309
S':'
asbag69
(g90
g71
NtRp2310
(dp2311
g74
(dp2312
sg83
g2297
sg76
(lp2313
g69
(g70
g71
NtRp2314
(dp2315
g74
(dp2316
g82
I5
ssg83
g2310
sg76
(lp2317
g69
(g78
g71
NtRp2318
(dp2319
g74
(dp2320
g82
I4
ssg83
Nsg76
(lp2321
sbasbasbasbag69
(g85
g71
NtRp2322
(dp2323
g74
(dp2324
sg83
g79
sg76
(lp2325
g69
(g90
g71
NtRp2326
(dp2327
g74
(dp2328
g94
g95
ssg83
g2322
sg76
(lp2329
S'url'
p2330
asbag69
(g90
g71
NtRp2331
(dp2332
g74
(dp2333
g101
g102
ssg83
g2322
sg76
(lp2334
S':'
asbag69
(g90
g71
NtRp2335
(dp2336
g74
(dp2337
sg83
g2322
sg76
(lp2338
g69
(g70
g71
NtRp2339
(dp2340
g74
(dp2341
g82
I5
ssg83
g2335
sg76
(lp2342
S'/bigvotes/default/index'
p2343
asbasbasbag69
(g85
g71
NtRp2344
(dp2345
g74
(dp2346
sg83
g79
sg76
(lp2347
g69
(g90
g71
NtRp2348
(dp2349
g74
(dp2350
g94
g95
ssg83
g2344
sg76
(lp2351
S'utcnow'
p2352
asbag69
(g90
g71
NtRp2353
(dp2354
g74
(dp2355
g101
g102
ssg83
g2344
sg76
(lp2356
S':'
asbag69
(g90
g71
NtRp2357
(dp2358
g74
(dp2359
sg83
g2344
sg76
(lp2360
g69
(g70
g71
NtRp2361
(dp2362
g74
(dp2363
g82
I5
ssg83
g2357
sg76
(lp2364
S'datetime.datetime(2012, 5, 22, 1, 47, 30, 583399)'
p2365
asbasbasbag69
(g85
g71
NtRp2366
(dp2367
g74
(dp2368
sg83
g79
sg76
(lp2369
g69
(g90
g71
NtRp2370
(dp2371
g74
(dp2372
g94
g95
ssg83
g2366
sg76
(lp2373
S'uuid'
p2374
asbag69
(g90
g71
NtRp2375
(dp2376
g74
(dp2377
g101
g102
ssg83
g2366
sg76
(lp2378
S':'
asbag69
(g90
g71
NtRp2379
(dp2380
g74
(dp2381
sg83
g2366
sg76
(lp2382
g69
(g70
g71
NtRp2383
(dp2384
g74
(dp2385
g82
I5
ssg83
g2379
sg76
(lp2386
S'bigvotes/127.0.0.1.2012-05-21.22-47-30.feb36af7-0812-4783-a435-e199754490f5'
p2387
asbasbasbag69
(g85
g71
NtRp2388
(dp2389
g74
(dp2390
sg83
g79
sg76
(lp2391
g69
(g90
g71
NtRp2392
(dp2393
g74
(dp2394
g94
g95
ssg83
g2388
sg76
(lp2395
S'vars'
p2396
asbag69
(g90
g71
NtRp2397
(dp2398
g74
(dp2399
g101
g102
ssg83
g2388
sg76
(lp2400
S':'
asbag69
(g90
g71
NtRp2401
(dp2402
g74
(dp2403
sg83
g2388
sg76
(lp2404
g69
(g70
g71
NtRp2405
(dp2406
g74
(dp2407
g82
I5
ssg83
g2401
sg76
(lp2408
g69
(g78
g71
NtRp2409
(dp2410
g74
(dp2411
g82
I4
ssg83
Nsg76
(lp2412
sbasbasbasbag69
(g85
g71
NtRp2413
(dp2414
g74
(dp2415
sg83
g79
sg76
(lp2416
g69
(g90
g71
NtRp2417
(dp2418
g74
(dp2419
g94
g95
ssg83
g2413
sg76
(lp2420
S'wsgi'
p2421
asbag69
(g90
g71
NtRp2422
(dp2423
g74
(dp2424
g101
g102
ssg83
g2413
sg76
(lp2425
S':'
asbag69
(g90
g71
NtRp2426
(dp2427
g74
(dp2428
sg83
g2413
sg76
(lp2429
g69
(g70
g71
NtRp2430
(dp2431
g74
(dp2432
g82
I5
ssg83
g2426
sg76
(lp2433
g69
(g78
g71
NtRp2434
(dp2435
g74
(dp2436
g82
I4
ssg83
Nsg76
(lp2437
g69
(g85
g71
NtRp2438
(dp2439
g74
(dp2440
sg83
g2434
sg76
(lp2441
g69
(g90
g71
NtRp2442
(dp2443
g74
(dp2444
g94
g95
ssg83
g2438
sg76
(lp2445
S'environ'
p2446
asbag69
(g90
g71
NtRp2447
(dp2448
g74
(dp2449
g101
g102
ssg83
g2438
sg76
(lp2450
S':'
asbag69
(g90
g71
NtRp2451
(dp2452
g74
(dp2453
sg83
g2438
sg76
(lp2454
g69
(g70
g71
NtRp2455
(dp2456
g74
(dp2457
g82
I4
ssg83
g2451
sg76
(lp2458
g69
(g78
g71
NtRp2459
(dp2460
g74
(dp2461
g82
I3
ssg83
Nsg76
(lp2462
g69
(g85
g71
NtRp2463
(dp2464
g74
(dp2465
sg83
g2459
sg76
(lp2466
g69
(g90
g71
NtRp2467
(dp2468
g74
(dp2469
g94
g95
ssg83
g2463
sg76
(lp2470
S'HTTP_ACCEPT'
p2471
asbag69
(g90
g71
NtRp2472
(dp2473
g74
(dp2474
g101
g102
ssg83
g2463
sg76
(lp2475
S':'
asbag69
(g90
g71
NtRp2476
(dp2477
g74
(dp2478
sg83
g2463
sg76
(lp2479
g69
(g70
g71
NtRp2480
(dp2481
g74
(dp2482
g82
I3
ssg83
g2476
sg76
(lp2483
g1015
asbasbasbag69
(g85
g71
NtRp2484
(dp2485
g74
(dp2486
sg83
g2459
sg76
(lp2487
g69
(g90
g71
NtRp2488
(dp2489
g74
(dp2490
g94
g95
ssg83
g2484
sg76
(lp2491
S'HTTP_ACCEPT_ENCODING'
p2492
asbag69
(g90
g71
NtRp2493
(dp2494
g74
(dp2495
g101
g102
ssg83
g2484
sg76
(lp2496
S':'
asbag69
(g90
g71
NtRp2497
(dp2498
g74
(dp2499
sg83
g2484
sg76
(lp2500
g69
(g70
g71
NtRp2501
(dp2502
g74
(dp2503
g82
I3
ssg83
g2497
sg76
(lp2504
g1037
asbasbasbag69
(g85
g71
NtRp2505
(dp2506
g74
(dp2507
sg83
g2459
sg76
(lp2508
g69
(g90
g71
NtRp2509
(dp2510
g74
(dp2511
g94
g95
ssg83
g2505
sg76
(lp2512
S'HTTP_ACCEPT_LANGUAGE'
p2513
asbag69
(g90
g71
NtRp2514
(dp2515
g74
(dp2516
g101
g102
ssg83
g2505
sg76
(lp2517
S':'
asbag69
(g90
g71
NtRp2518
(dp2519
g74
(dp2520
sg83
g2505
sg76
(lp2521
g69
(g70
g71
NtRp2522
(dp2523
g74
(dp2524
g82
I3
ssg83
g2518
sg76
(lp2525
g1059
asbasbasbag69
(g85
g71
NtRp2526
(dp2527
g74
(dp2528
sg83
g2459
sg76
(lp2529
g69
(g90
g71
NtRp2530
(dp2531
g74
(dp2532
g94
g95
ssg83
g2526
sg76
(lp2533
S'HTTP_CONNECTION'
p2534
asbag69
(g90
g71
NtRp2535
(dp2536
g74
(dp2537
g101
g102
ssg83
g2526
sg76
(lp2538
S':'
asbag69
(g90
g71
NtRp2539
(dp2540
g74
(dp2541
sg83
g2526
sg76
(lp2542
g69
(g70
g71
NtRp2543
(dp2544
g74
(dp2545
g82
I3
ssg83
g2539
sg76
(lp2546
g1081
asbasbasbag69
(g85
g71
NtRp2547
(dp2548
g74
(dp2549
sg83
g2459
sg76
(lp2550
g69
(g90
g71
NtRp2551
(dp2552
g74
(dp2553
g94
g95
ssg83
g2547
sg76
(lp2554
S'HTTP_COOKIE'
p2555
asbag69
(g90
g71
NtRp2556
(dp2557
g74
(dp2558
g101
g102
ssg83
g2547
sg76
(lp2559
S':'
asbag69
(g90
g71
NtRp2560
(dp2561
g74
(dp2562
sg83
g2547
sg76
(lp2563
g69
(g70
g71
NtRp2564
(dp2565
g74
(dp2566
g82
I3
ssg83
g2560
sg76
(lp2567
g1103
asbasbasbag69
(g85
g71
NtRp2568
(dp2569
g74
(dp2570
sg83
g2459
sg76
(lp2571
g69
(g90
g71
NtRp2572
(dp2573
g74
(dp2574
g94
g95
ssg83
g2568
sg76
(lp2575
S'HTTP_HOST'
p2576
asbag69
(g90
g71
NtRp2577
(dp2578
g74
(dp2579
g101
g102
ssg83
g2568
sg76
(lp2580
S':'
asbag69
(g90
g71
NtRp2581
(dp2582
g74
(dp2583
sg83
g2568
sg76
(lp2584
g69
(g70
g71
NtRp2585
(dp2586
g74
(dp2587
g82
I3
ssg83
g2581
sg76
(lp2588
g1125
asbasbasbag69
(g85
g71
NtRp2589
(dp2590
g74
(dp2591
sg83
g2459
sg76
(lp2592
g69
(g90
g71
NtRp2593
(dp2594
g74
(dp2595
g94
g95
ssg83
g2589
sg76
(lp2596
S'HTTP_REFERER'
p2597
asbag69
(g90
g71
NtRp2598
(dp2599
g74
(dp2600
g101
g102
ssg83
g2589
sg76
(lp2601
S':'
asbag69
(g90
g71
NtRp2602
(dp2603
g74
(dp2604
sg83
g2589
sg76
(lp2605
g69
(g70
g71
NtRp2606
(dp2607
g74
(dp2608
g82
I3
ssg83
g2602
sg76
(lp2609
g1147
asbasbasbag69
(g85
g71
NtRp2610
(dp2611
g74
(dp2612
sg83
g2459
sg76
(lp2613
g69
(g90
g71
NtRp2614
(dp2615
g74
(dp2616
g94
g95
ssg83
g2610
sg76
(lp2617
S'HTTP_USER_AGENT'
p2618
asbag69
(g90
g71
NtRp2619
(dp2620
g74
(dp2621
g101
g102
ssg83
g2610
sg76
(lp2622
S':'
asbag69
(g90
g71
NtRp2623
(dp2624
g74
(dp2625
sg83
g2610
sg76
(lp2626
g69
(g70
g71
NtRp2627
(dp2628
g74
(dp2629
g82
I3
ssg83
g2623
sg76
(lp2630
g1169
asbasbasbag69
(g85
g71
NtRp2631
(dp2632
g74
(dp2633
sg83
g2459
sg76
(lp2634
g69
(g90
g71
NtRp2635
(dp2636
g74
(dp2637
g94
g95
ssg83
g2631
sg76
(lp2638
S'PATH_INFO'
p2639
asbag69
(g90
g71
NtRp2640
(dp2641
g74
(dp2642
g101
g102
ssg83
g2631
sg76
(lp2643
S':'
asbag69
(g90
g71
NtRp2644
(dp2645
g74
(dp2646
sg83
g2631
sg76
(lp2647
g69
(g70
g71
NtRp2648
(dp2649
g74
(dp2650
g82
I3
ssg83
g2644
sg76
(lp2651
g1233
asbasbasbag69
(g85
g71
NtRp2652
(dp2653
g74
(dp2654
sg83
g2459
sg76
(lp2655
g69
(g90
g71
NtRp2656
(dp2657
g74
(dp2658
g94
g95
ssg83
g2652
sg76
(lp2659
S'QUERY_STRING'
p2660
asbag69
(g90
g71
NtRp2661
(dp2662
g74
(dp2663
g101
g102
ssg83
g2652
sg76
(lp2664
S':'
asbag69
(g90
g71
NtRp2665
(dp2666
g74
(dp2667
sg83
g2652
sg76
(lp2668
g69
(g70
g71
NtRp2669
(dp2670
g74
(dp2671
g82
I3
ssg83
g2665
sg76
(lp2672
S''
asbasbasbag69
(g85
g71
NtRp2673
(dp2674
g74
(dp2675
sg83
g2459
sg76
(lp2676
g69
(g90
g71
NtRp2677
(dp2678
g74
(dp2679
g94
g95
ssg83
g2673
sg76
(lp2680
S'REMOTE_ADDR'
p2681
asbag69
(g90
g71
NtRp2682
(dp2683
g74
(dp2684
g101
g102
ssg83
g2673
sg76
(lp2685
S':'
asbag69
(g90
g71
NtRp2686
(dp2687
g74
(dp2688
sg83
g2673
sg76
(lp2689
g69
(g70
g71
NtRp2690
(dp2691
g74
(dp2692
g82
I3
ssg83
g2686
sg76
(lp2693
g202
asbasbasbag69
(g85
g71
NtRp2694
(dp2695
g74
(dp2696
sg83
g2459
sg76
(lp2697
g69
(g90
g71
NtRp2698
(dp2699
g74
(dp2700
g94
g95
ssg83
g2694
sg76
(lp2701
S'REMOTE_PORT'
p2702
asbag69
(g90
g71
NtRp2703
(dp2704
g74
(dp2705
g101
g102
ssg83
g2694
sg76
(lp2706
S':'
asbag69
(g90
g71
NtRp2707
(dp2708
g74
(dp2709
sg83
g2694
sg76
(lp2710
g69
(g70
g71
NtRp2711
(dp2712
g74
(dp2713
g82
I3
ssg83
g2707
sg76
(lp2714
g1297
asbasbasbag69
(g85
g71
NtRp2715
(dp2716
g74
(dp2717
sg83
g2459
sg76
(lp2718
g69
(g90
g71
NtRp2719
(dp2720
g74
(dp2721
g94
g95
ssg83
g2715
sg76
(lp2722
S'REQUEST_METHOD'
p2723
asbag69
(g90
g71
NtRp2724
(dp2725
g74
(dp2726
g101
g102
ssg83
g2715
sg76
(lp2727
S':'
asbag69
(g90
g71
NtRp2728
(dp2729
g74
(dp2730
sg83
g2715
sg76
(lp2731
g69
(g70
g71
NtRp2732
(dp2733
g74
(dp2734
g82
I3
ssg83
g2728
sg76
(lp2735
g1319
asbasbasbag69
(g85
g71
NtRp2736
(dp2737
g74
(dp2738
sg83
g2459
sg76
(lp2739
g69
(g90
g71
NtRp2740
(dp2741
g74
(dp2742
g94
g95
ssg83
g2736
sg76
(lp2743
S'REQUEST_URI'
p2744
asbag69
(g90
g71
NtRp2745
(dp2746
g74
(dp2747
g101
g102
ssg83
g2736
sg76
(lp2748
S':'
asbag69
(g90
g71
NtRp2749
(dp2750
g74
(dp2751
sg83
g2736
sg76
(lp2752
g69
(g70
g71
NtRp2753
(dp2754
g74
(dp2755
g82
I3
ssg83
g2749
sg76
(lp2756
g1233
asbasbasbag69
(g85
g71
NtRp2757
(dp2758
g74
(dp2759
sg83
g2459
sg76
(lp2760
g69
(g90
g71
NtRp2761
(dp2762
g74
(dp2763
g94
g95
ssg83
g2757
sg76
(lp2764
S'SCRIPT_NAME'
p2765
asbag69
(g90
g71
NtRp2766
(dp2767
g74
(dp2768
g101
g102
ssg83
g2757
sg76
(lp2769
S':'
asbag69
(g90
g71
NtRp2770
(dp2771
g74
(dp2772
sg83
g2757
sg76
(lp2773
g69
(g70
g71
NtRp2774
(dp2775
g74
(dp2776
g82
I3
ssg83
g2770
sg76
(lp2777
S''
asbasbasbag69
(g85
g71
NtRp2778
(dp2779
g74
(dp2780
sg83
g2459
sg76
(lp2781
g69
(g90
g71
NtRp2782
(dp2783
g74
(dp2784
g94
g95
ssg83
g2778
sg76
(lp2785
S'SERVER_NAME'
p2786
asbag69
(g90
g71
NtRp2787
(dp2788
g74
(dp2789
g101
g102
ssg83
g2778
sg76
(lp2790
S':'
asbag69
(g90
g71
NtRp2791
(dp2792
g74
(dp2793
sg83
g2778
sg76
(lp2794
g69
(g70
g71
NtRp2795
(dp2796
g74
(dp2797
g82
I3
ssg83
g2791
sg76
(lp2798
g1383
asbasbasbag69
(g85
g71
NtRp2799
(dp2800
g74
(dp2801
sg83
g2459
sg76
(lp2802
g69
(g90
g71
NtRp2803
(dp2804
g74
(dp2805
g94
g95
ssg83
g2799
sg76
(lp2806
S'SERVER_PORT'
p2807
asbag69
(g90
g71
NtRp2808
(dp2809
g74
(dp2810
g101
g102
ssg83
g2799
sg76
(lp2811
S':'
asbag69
(g90
g71
NtRp2812
(dp2813
g74
(dp2814
sg83
g2799
sg76
(lp2815
g69
(g70
g71
NtRp2816
(dp2817
g74
(dp2818
g82
I3
ssg83
g2812
sg76
(lp2819
g1405
asbasbasbag69
(g85
g71
NtRp2820
(dp2821
g74
(dp2822
sg83
g2459
sg76
(lp2823
g69
(g90
g71
NtRp2824
(dp2825
g74
(dp2826
g94
g95
ssg83
g2820
sg76
(lp2827
S'SERVER_PROTOCOL'
p2828
asbag69
(g90
g71
NtRp2829
(dp2830
g74
(dp2831
g101
g102
ssg83
g2820
sg76
(lp2832
S':'
asbag69
(g90
g71
NtRp2833
(dp2834
g74
(dp2835
sg83
g2820
sg76
(lp2836
g69
(g70
g71
NtRp2837
(dp2838
g74
(dp2839
g82
I3
ssg83
g2833
sg76
(lp2840
g1427
asbasbasbag69
(g85
g71
NtRp2841
(dp2842
g74
(dp2843
sg83
g2459
sg76
(lp2844
g69
(g90
g71
NtRp2845
(dp2846
g74
(dp2847
g94
g95
ssg83
g2841
sg76
(lp2848
S'SERVER_SOFTWARE'
p2849
asbag69
(g90
g71
NtRp2850
(dp2851
g74
(dp2852
g101
g102
ssg83
g2841
sg76
(lp2853
S':'
asbag69
(g90
g71
NtRp2854
(dp2855
g74
(dp2856
sg83
g2841
sg76
(lp2857
g69
(g70
g71
NtRp2858
(dp2859
g74
(dp2860
g82
I3
ssg83
g2854
sg76
(lp2861
g1449
asbasbasbag69
(g85
g71
NtRp2862
(dp2863
g74
(dp2864
sg83
g2459
sg76
(lp2865
g69
(g90
g71
NtRp2866
(dp2867
g74
(dp2868
g94
g95
ssg83
g2862
sg76
(lp2869
S'WEB2PY_ORIGINAL_URI'
p2870
asbag69
(g90
g71
NtRp2871
(dp2872
g74
(dp2873
g101
g102
ssg83
g2862
sg76
(lp2874
S':'
asbag69
(g90
g71
NtRp2875
(dp2876
g74
(dp2877
sg83
g2862
sg76
(lp2878
g69
(g70
g71
NtRp2879
(dp2880
g74
(dp2881
g82
I3
ssg83
g2875
sg76
(lp2882
g1233
asbasbasbag69
(g85
g71
NtRp2883
(dp2884
g74
(dp2885
sg83
g2459
sg76
(lp2886
g69
(g90
g71
NtRp2887
(dp2888
g74
(dp2889
g94
g95
ssg83
g2883
sg76
(lp2890
S'wsgi.errors'
p2891
asbag69
(g90
g71
NtRp2892
(dp2893
g74
(dp2894
g101
g102
ssg83
g2883
sg76
(lp2895
S':'
asbag69
(g90
g71
NtRp2896
(dp2897
g74
(dp2898
sg83
g2883
sg76
(lp2899
g69
(g70
g71
NtRp2900
(dp2901
g74
(dp2902
g82
I3
ssg83
g2896
sg76
(lp2903
S"<open file '<stderr>', mode 'w' at 0xb77e20d0>"
p2904
asbasbasbag69
(g85
g71
NtRp2905
(dp2906
g74
(dp2907
sg83
g2459
sg76
(lp2908
g69
(g90
g71
NtRp2909
(dp2910
g74
(dp2911
g94
g95
ssg83
g2905
sg76
(lp2912
S'wsgi.file_wrapper'
p2913
asbag69
(g90
g71
NtRp2914
(dp2915
g74
(dp2916
g101
g102
ssg83
g2905
sg76
(lp2917
S':'
asbag69
(g90
g71
NtRp2918
(dp2919
g74
(dp2920
sg83
g2905
sg76
(lp2921
g69
(g70
g71
NtRp2922
(dp2923
g74
(dp2924
g82
I3
ssg83
g2918
sg76
(lp2925
S'<class wsgiref.util.FileWrapper at 0xa054efc>'
p2926
asbasbasbag69
(g85
g71
NtRp2927
(dp2928
g74
(dp2929
sg83
g2459
sg76
(lp2930
g69
(g90
g71
NtRp2931
(dp2932
g74
(dp2933
g94
g95
ssg83
g2927
sg76
(lp2934
S'wsgi.input'
p2935
asbag69
(g90
g71
NtRp2936
(dp2937
g74
(dp2938
g101
g102
ssg83
g2927
sg76
(lp2939
S':'
asbag69
(g90
g71
NtRp2940
(dp2941
g74
(dp2942
sg83
g2927
sg76
(lp2943
g69
(g70
g71
NtRp2944
(dp2945
g74
(dp2946
g82
I3
ssg83
g2940
sg76
(lp2947
S'<cStringIO.StringO object at 0xb041d040>'
p2948
asbasbasbag69
(g85
g71
NtRp2949
(dp2950
g74
(dp2951
sg83
g2459
sg76
(lp2952
g69
(g90
g71
NtRp2953
(dp2954
g74
(dp2955
g94
g95
ssg83
g2949
sg76
(lp2956
S'wsgi.multiprocess'
p2957
asbag69
(g90
g71
NtRp2958
(dp2959
g74
(dp2960
g101
g102
ssg83
g2949
sg76
(lp2961
S':'
asbag69
(g90
g71
NtRp2962
(dp2963
g74
(dp2964
sg83
g2949
sg76
(lp2965
g69
(g70
g71
NtRp2966
(dp2967
g74
(dp2968
g82
I3
ssg83
g2962
sg76
(lp2969
g112
asbasbasbag69
(g85
g71
NtRp2970
(dp2971
g74
(dp2972
sg83
g2459
sg76
(lp2973
g69
(g90
g71
NtRp2974
(dp2975
g74
(dp2976
g94
g95
ssg83
g2970
sg76
(lp2977
S'wsgi.multithread'
p2978
asbag69
(g90
g71
NtRp2979
(dp2980
g74
(dp2981
g101
g102
ssg83
g2970
sg76
(lp2982
S':'
asbag69
(g90
g71
NtRp2983
(dp2984
g74
(dp2985
sg83
g2970
sg76
(lp2986
g69
(g70
g71
NtRp2987
(dp2988
g74
(dp2989
g82
I3
ssg83
g2983
sg76
(lp2990
g1710
asbasbasbag69
(g85
g71
NtRp2991
(dp2992
g74
(dp2993
sg83
g2459
sg76
(lp2994
g69
(g90
g71
NtRp2995
(dp2996
g74
(dp2997
g94
g95
ssg83
g2991
sg76
(lp2998
S'wsgi.run_once'
p2999
asbag69
(g90
g71
NtRp3000
(dp3001
g74
(dp3002
g101
g102
ssg83
g2991
sg76
(lp3003
S':'
asbag69
(g90
g71
NtRp3004
(dp3005
g74
(dp3006
sg83
g2991
sg76
(lp3007
g69
(g70
g71
NtRp3008
(dp3009
g74
(dp3010
g82
I3
ssg83
g3004
sg76
(lp3011
g112
asbasbasbag69
(g85
g71
NtRp3012
(dp3013
g74
(dp3014
sg83
g2459
sg76
(lp3015
g69
(g90
g71
NtRp3016
(dp3017
g74
(dp3018
g94
g95
ssg83
g3012
sg76
(lp3019
S'wsgi.url_scheme'
p3020
asbag69
(g90
g71
NtRp3021
(dp3022
g74
(dp3023
g101
g102
ssg83
g3012
sg76
(lp3024
S':'
asbag69
(g90
g71
NtRp3025
(dp3026
g74
(dp3027
sg83
g3012
sg76
(lp3028
g69
(g70
g71
NtRp3029
(dp3030
g74
(dp3031
g82
I3
ssg83
g3025
sg76
(lp3032
g1753
asbasbasbag69
(g85
g71
NtRp3033
(dp3034
g74
(dp3035
sg83
g2459
sg76
(lp3036
g69
(g90
g71
NtRp3037
(dp3038
g74
(dp3039
g94
g95
ssg83
g3033
sg76
(lp3040
S'wsgi.version'
p3041
asbag69
(g90
g71
NtRp3042
(dp3043
g74
(dp3044
g101
g102
ssg83
g3033
sg76
(lp3045
S':'
asbag69
(g90
g71
NtRp3046
(dp3047
g74
(dp3048
sg83
g3033
sg76
(lp3049
g69
(g70
g71
NtRp3050
(dp3051
g74
(dp3052
g82
I3
ssg83
g3046
sg76
(lp3053
S'1'
asbasbasbasbasbasbasbasbasbasbasbasbasbsS'frames'
p3054
(lp3055
(dp3056
S'file'
p3057
S'/home/kaique/Projects/web/big-votes/web2py/gluon/restricted.py'
p3058
sS'dump'
p3059
(dp3060
S'code'
p3061
S'r"response.write(\'<!DOCTYPE html>\\n<!-- paulirish....ponse.write(\'\\n</body>\\n</html>\\n\', escape=False)"'
p3062
sS'layer'
p3063
S"'/home/kaique/Projects/web/big-votes/web2py/applications/bigvotes/views/default/index.html'"
p3064
sS'global compile2'
p3065
S'<function compile2>'
p3066
sS'ccode'
p3067
S'undefined'
p3068
ssS'lnum'
p3069
I204
sS'lines'
p3070
(dp3071
I199
S"    environment['__name__'] = '__restricted__'"
p3072
sI200
S'    try:'
p3073
sI201
S'        if type(code) == types.CodeType:'
p3074
sI202
S'            ccode = code'
p3075
sI203
S'        else:'
p3076
sI204
S'            ccode = compile2(code,layer)'
p3077
sI205
S'        exec ccode in environment'
p3078
sI206
S'    except HTTP:'
p3079
sI207
S'        raise'
p3080
sI208
S'    except RestrictedError:'
p3081
ssS'call'
p3082
S'(code=r"response.write(\'<!DOCTYPE html>\\n<!-- paulirish....ponse.write(\'\\n</body>\\n</html>\\n\', escape=False)", environment={\'A\': <class \'gluon.html.A\'>, \'Auth\': <class \'gluon.tools.Auth\'>, \'B\': <class \'gluon.html.B\'>, \'BEAUTIFY\': <class \'gluon.html.BEAUTIFY\'>, \'BODY\': <class \'gluon.html.BODY\'>, \'BR\': <class \'gluon.html.BR\'>, \'BUTTON\': <class \'gluon.html.BUTTON\'>, \'CAT\': <class \'gluon.html.CAT\'>, \'CENTER\': <class \'gluon.html.CENTER\'>, \'CLEANUP\': <class \'gluon.validators.CLEANUP\'>, ...}, layer=\'/home/kaique/Projects/web/big-votes/web2py/applications/bigvotes/views/default/index.html\')'
p3083
sS'func'
p3084
S'restricted'
p3085
sa(dp3086
g3057
S'/home/kaique/Projects/web/big-votes/web2py/gluon/restricted.py'
p3087
sg3059
(dp3088
S'builtincompile'
p3089
S'<built-in function compile>'
p3090
sS'code'
p3091
S'r"response.write(\'<!DOCTYPE html>\\n<!-- paulirish....ponse.write(\'\\n</body>\\n</html>\\n\', escape=False)"'
p3092
sS'code.rstrip'
p3093
S'<built-in method rstrip of str object>'
p3094
sS').replace'
p3095
g3068
sS'layer'
p3096
S"'/home/kaique/Projects/web/big-votes/web2py/applications/bigvotes/views/default/index.html'"
p3097
ssg3069
I189
sg3070
(dp3098
I192
S'    """'
p3099
sI193
S'    runs code in environment and returns the output. if an exception occurs'
p3100
sI184
S''
sI185
S'def compile2(code,layer):'
p3101
sI186
S'    """'
p3102
sI187
S"    The +'\\n' is necessary else compile fails when code ends in a comment."
p3103
sI188
S'    """'
p3104
sI189
S"    return compile(code.rstrip().replace('\\r\\n','\\n')+'\\n', layer, 'exec')"
p3105
sI190
S''
sI191
S"def restricted(code, environment=None, layer='Unknown'):"
p3106
ssg3082
S'(code=r"response.write(\'<!DOCTYPE html>\\n<!-- paulirish....ponse.write(\'\\n</body>\\n</html>\\n\', escape=False)", layer=\'/home/kaique/Projects/web/big-votes/web2py/applications/bigvotes/views/default/index.html\')'
p3107
sg3084
S'compile2'
p3108
sasS'pyver'
p3109
S'Python 2.7.3: /usr/bin/python'
p3110
sS'session'
p3111
g69
(g70
g71
NtRp3112
(dp3113
g74
(dp3114
sg76
(lp3115
g69
(g78
g71
NtRp3116
(dp3117
g74
(dp3118
g82
I5
ssg83
Nsg76
(lp3119
g69
(g85
g71
NtRp3120
(dp3121
g74
(dp3122
sg83
g3116
sg76
(lp3123
g69
(g90
g71
NtRp3124
(dp3125
g74
(dp3126
g94
g95
ssg83
g3120
sg76
(lp3127
S'last_query'
p3128
asbag69
(g90
g71
NtRp3129
(dp3130
g74
(dp3131
g101
g102
ssg83
g3120
sg76
(lp3132
S':'
asbag69
(g90
g71
NtRp3133
(dp3134
g74
(dp3135
sg83
g3120
sg76
(lp3136
g69
(g70
g71
NtRp3137
(dp3138
g74
(dp3139
g82
I5
ssg83
g3133
sg76
(lp3140
S'db.voting.id>0'
p3141
asbasbasbasbasbsS'etype'
p3142
S"<type 'exceptions.SyntaxError'>"
p3143
sS'date'
p3144
S'Mon May 21 22:47:30 2012'
p3145
sS'response'
p3146
g69
(g70
g71
NtRp3147
(dp3148
g74
(dp3149
sg76
(lp3150
g69
(g78
g71
NtRp3151
(dp3152
g74
(dp3153
g82
I5
ssg83
Nsg76
(lp3154
g69
(g85
g71
NtRp3155
(dp3156
g74
(dp3157
sg83
g3151
sg76
(lp3158
g69
(g90
g71
NtRp3159
(dp3160
g74
(dp3161
g94
g95
ssg83
g3155
sg76
(lp3162
g167
asbag69
(g90
g71
NtRp3163
(dp3164
g74
(dp3165
g101
g102
ssg83
g3155
sg76
(lp3166
S':'
asbag69
(g90
g71
NtRp3167
(dp3168
g74
(dp3169
sg83
g3155
sg76
(lp3170
g69
(g70
g71
NtRp3171
(dp3172
g74
(dp3173
g82
I5
ssg83
g3167
sg76
(lp3174
S'<cStringIO.StringO object at 0x9edf640>'
p3175
asbasbasbag69
(g85
g71
NtRp3176
(dp3177
g74
(dp3178
sg83
g3151
sg76
(lp3179
g69
(g90
g71
NtRp3180
(dp3181
g74
(dp3182
g94
g95
ssg83
g3176
sg76
(lp3183
g233
asbag69
(g90
g71
NtRp3184
(dp3185
g74
(dp3186
g101
g102
ssg83
g3176
sg76
(lp3187
S':'
asbag69
(g90
g71
NtRp3188
(dp3189
g74
(dp3190
sg83
g3176
sg76
(lp3191
g69
(g70
g71
NtRp3192
(dp3193
g74
(dp3194
g82
I5
ssg83
g3188
sg76
(lp3195
g69
(g78
g71
NtRp3196
(dp3197
g74
(dp3198
g82
I4
ssg83
Nsg76
(lp3199
g69
(g85
g71
NtRp3200
(dp3201
g74
(dp3202
sg83
g3196
sg76
(lp3203
g69
(g90
g71
NtRp3204
(dp3205
g74
(dp3206
g94
g95
ssg83
g3200
sg76
(lp3207
S'session_id_bigvotes'
p3208
asbag69
(g90
g71
NtRp3209
(dp3210
g74
(dp3211
g101
g102
ssg83
g3200
sg76
(lp3212
S':'
asbag69
(g90
g71
NtRp3213
(dp3214
g74
(dp3215
sg83
g3200
sg76
(lp3216
g69
(g70
g71
NtRp3217
(dp3218
g74
(dp3219
g82
I4
ssg83
g3213
sg76
(lp3220
g69
(g78
g71
NtRp3221
(dp3222
g74
(dp3223
g82
I3
ssg83
Nsg76
(lp3224
g69
(g85
g71
NtRp3225
(dp3226
g74
(dp3227
sg83
g3221
sg76
(lp3228
g69
(g90
g71
NtRp3229
(dp3230
g74
(dp3231
g94
g95
ssg83
g3225
sg76
(lp3232
g283
asbag69
(g90
g71
NtRp3233
(dp3234
g74
(dp3235
g101
g102
ssg83
g3225
sg76
(lp3236
S':'
asbag69
(g90
g71
NtRp3237
(dp3238
g74
(dp3239
sg83
g3225
sg76
(lp3240
g69
(g70
g71
NtRp3241
(dp3242
g74
(dp3243
g82
I3
ssg83
g3237
sg76
(lp3244
S''
asbasbasbag69
(g85
g71
NtRp3245
(dp3246
g74
(dp3247
sg83
g3221
sg76
(lp3248
g69
(g90
g71
NtRp3249
(dp3250
g74
(dp3251
g94
g95
ssg83
g3245
sg76
(lp3252
g304
asbag69
(g90
g71
NtRp3253
(dp3254
g74
(dp3255
g101
g102
ssg83
g3245
sg76
(lp3256
S':'
asbag69
(g90
g71
NtRp3257
(dp3258
g74
(dp3259
sg83
g3245
sg76
(lp3260
g69
(g70
g71
NtRp3261
(dp3262
g74
(dp3263
g82
I3
ssg83
g3257
sg76
(lp3264
S''
asbasbasbag69
(g85
g71
NtRp3265
(dp3266
g74
(dp3267
sg83
g3221
sg76
(lp3268
g69
(g90
g71
NtRp3269
(dp3270
g74
(dp3271
g94
g95
ssg83
g3265
sg76
(lp3272
g325
asbag69
(g90
g71
NtRp3273
(dp3274
g74
(dp3275
g101
g102
ssg83
g3265
sg76
(lp3276
S':'
asbag69
(g90
g71
NtRp3277
(dp3278
g74
(dp3279
sg83
g3265
sg76
(lp3280
g69
(g70
g71
NtRp3281
(dp3282
g74
(dp3283
g82
I3
ssg83
g3277
sg76
(lp3284
S''
asbasbasbag69
(g85
g71
NtRp3285
(dp3286
g74
(dp3287
sg83
g3221
sg76
(lp3288
g69
(g90
g71
NtRp3289
(dp3290
g74
(dp3291
g94
g95
ssg83
g3285
sg76
(lp3292
g346
asbag69
(g90
g71
NtRp3293
(dp3294
g74
(dp3295
g101
g102
ssg83
g3285
sg76
(lp3296
S':'
asbag69
(g90
g71
NtRp3297
(dp3298
g74
(dp3299
sg83
g3285
sg76
(lp3300
g69
(g70
g71
NtRp3301
(dp3302
g74
(dp3303
g82
I3
ssg83
g3297
sg76
(lp3304
S''
asbasbasbag69
(g85
g71
NtRp3305
(dp3306
g74
(dp3307
sg83
g3221
sg76
(lp3308
g69
(g90
g71
NtRp3309
(dp3310
g74
(dp3311
g94
g95
ssg83
g3305
sg76
(lp3312
g367
asbag69
(g90
g71
NtRp3313
(dp3314
g74
(dp3315
g101
g102
ssg83
g3305
sg76
(lp3316
S':'
asbag69
(g90
g71
NtRp3317
(dp3318
g74
(dp3319
sg83
g3305
sg76
(lp3320
g69
(g70
g71
NtRp3321
(dp3322
g74
(dp3323
g82
I3
ssg83
g3317
sg76
(lp3324
S''
asbasbasbag69
(g85
g71
NtRp3325
(dp3326
g74
(dp3327
sg83
g3221
sg76
(lp3328
g69
(g90
g71
NtRp3329
(dp3330
g74
(dp3331
g94
g95
ssg83
g3325
sg76
(lp3332
g388
asbag69
(g90
g71
NtRp3333
(dp3334
g74
(dp3335
g101
g102
ssg83
g3325
sg76
(lp3336
S':'
asbag69
(g90
g71
NtRp3337
(dp3338
g74
(dp3339
sg83
g3325
sg76
(lp3340
g69
(g70
g71
NtRp3341
(dp3342
g74
(dp3343
g82
I3
ssg83
g3337
sg76
(lp3344
S'/'
asbasbasbag69
(g85
g71
NtRp3345
(dp3346
g74
(dp3347
sg83
g3221
sg76
(lp3348
g69
(g90
g71
NtRp3349
(dp3350
g74
(dp3351
g94
g95
ssg83
g3345
sg76
(lp3352
g409
asbag69
(g90
g71
NtRp3353
(dp3354
g74
(dp3355
g101
g102
ssg83
g3345
sg76
(lp3356
S':'
asbag69
(g90
g71
NtRp3357
(dp3358
g74
(dp3359
sg83
g3345
sg76
(lp3360
g69
(g70
g71
NtRp3361
(dp3362
g74
(dp3363
g82
I3
ssg83
g3357
sg76
(lp3364
S''
asbasbasbag69
(g85
g71
NtRp3365
(dp3366
g74
(dp3367
sg83
g3221
sg76
(lp3368
g69
(g90
g71
NtRp3369
(dp3370
g74
(dp3371
g94
g95
ssg83
g3365
sg76
(lp3372
g430
asbag69
(g90
g71
NtRp3373
(dp3374
g74
(dp3375
g101
g102
ssg83
g3365
sg76
(lp3376
S':'
asbag69
(g90
g71
NtRp3377
(dp3378
g74
(dp3379
sg83
g3365
sg76
(lp3380
g69
(g70
g71
NtRp3381
(dp3382
g74
(dp3383
g82
I3
ssg83
g3377
sg76
(lp3384
S''
asbasbasbasbasbasbasbasbasbasbasbag69
(g85
g71
NtRp3385
(dp3386
g74
(dp3387
sg83
g3151
sg76
(lp3388
g69
(g90
g71
NtRp3389
(dp3390
g74
(dp3391
g94
g95
ssg83
g3385
sg76
(lp3392
S'delimiters'
p3393
asbag69
(g90
g71
NtRp3394
(dp3395
g74
(dp3396
g101
g102
ssg83
g3385
sg76
(lp3397
S':'
asbag69
(g90
g71
NtRp3398
(dp3399
g74
(dp3400
sg83
g3385
sg76
(lp3401
g69
(g70
g71
NtRp3402
(dp3403
g74
(dp3404
g82
I5
ssg83
g3398
sg76
(lp3405
g69
(g78
g71
NtRp3406
(dp3407
g74
(dp3408
g82
I4
ssg83
Nsg76
(lp3409
g69
(g85
g71
NtRp3410
(dp3411
g74
(dp3412
sg83
g3406
sg76
(lp3413
g69
(g90
g71
NtRp3414
(dp3415
g74
(dp3416
sg83
g3410
sg76
(lp3417
g69
(g70
g71
NtRp3418
(dp3419
g74
(dp3420
g82
I4
ssg83
g3414
sg76
(lp3421
S'{{'
p3422
asbasbasbag69
(g85
g71
NtRp3423
(dp3424
g74
(dp3425
sg83
g3406
sg76
(lp3426
g69
(g90
g71
NtRp3427
(dp3428
g74
(dp3429
sg83
g3423
sg76
(lp3430
g69
(g70
g71
NtRp3431
(dp3432
g74
(dp3433
g82
I4
ssg83
g3427
sg76
(lp3434
S'}}'
p3435
asbasbasbasbasbasbasbag69
(g85
g71
NtRp3436
(dp3437
g74
(dp3438
sg83
g3151
sg76
(lp3439
g69
(g90
g71
NtRp3440
(dp3441
g74
(dp3442
g94
g95
ssg83
g3436
sg76
(lp3443
S'files'
p3444
asbag69
(g90
g71
NtRp3445
(dp3446
g74
(dp3447
g101
g102
ssg83
g3436
sg76
(lp3448
S':'
asbag69
(g90
g71
NtRp3449
(dp3450
g74
(dp3451
sg83
g3436
sg76
(lp3452
g69
(g70
g71
NtRp3453
(dp3454
g74
(dp3455
g82
I5
ssg83
g3449
sg76
(lp3456
g69
(g78
g71
NtRp3457
(dp3458
g74
(dp3459
g82
I4
ssg83
Nsg76
(lp3460
sbasbasbasbag69
(g85
g71
NtRp3461
(dp3462
g74
(dp3463
sg83
g3151
sg76
(lp3464
g69
(g90
g71
NtRp3465
(dp3466
g74
(dp3467
g94
g95
ssg83
g3461
sg76
(lp3468
S'flash'
p3469
asbag69
(g90
g71
NtRp3470
(dp3471
g74
(dp3472
g101
g102
ssg83
g3461
sg76
(lp3473
S':'
asbag69
(g90
g71
NtRp3474
(dp3475
g74
(dp3476
sg83
g3461
sg76
(lp3477
g69
(g70
g71
NtRp3478
(dp3479
g74
(dp3480
g82
I5
ssg83
g3474
sg76
(lp3481
S''
asbasbasbag69
(g85
g71
NtRp3482
(dp3483
g74
(dp3484
sg83
g3151
sg76
(lp3485
g69
(g90
g71
NtRp3486
(dp3487
g74
(dp3488
g94
g95
ssg83
g3482
sg76
(lp3489
S'generic_patterns'
p3490
asbag69
(g90
g71
NtRp3491
(dp3492
g74
(dp3493
g101
g102
ssg83
g3482
sg76
(lp3494
S':'
asbag69
(g90
g71
NtRp3495
(dp3496
g74
(dp3497
sg83
g3482
sg76
(lp3498
g69
(g70
g71
NtRp3499
(dp3500
g74
(dp3501
g82
I5
ssg83
g3495
sg76
(lp3502
g69
(g78
g71
NtRp3503
(dp3504
g74
(dp3505
g82
I4
ssg83
Nsg76
(lp3506
g69
(g85
g71
NtRp3507
(dp3508
g74
(dp3509
sg83
g3503
sg76
(lp3510
g69
(g90
g71
NtRp3511
(dp3512
g74
(dp3513
sg83
g3507
sg76
(lp3514
g69
(g70
g71
NtRp3515
(dp3516
g74
(dp3517
g82
I4
ssg83
g3511
sg76
(lp3518
S'*'
asbasbasbasbasbasbasbag69
(g85
g71
NtRp3519
(dp3520
g74
(dp3521
sg83
g3151
sg76
(lp3522
g69
(g90
g71
NtRp3523
(dp3524
g74
(dp3525
g94
g95
ssg83
g3519
sg76
(lp3526
S'headers'
p3527
asbag69
(g90
g71
NtRp3528
(dp3529
g74
(dp3530
g101
g102
ssg83
g3519
sg76
(lp3531
S':'
asbag69
(g90
g71
NtRp3532
(dp3533
g74
(dp3534
sg83
g3519
sg76
(lp3535
g69
(g70
g71
NtRp3536
(dp3537
g74
(dp3538
g82
I5
ssg83
g3532
sg76
(lp3539
g69
(g78
g71
NtRp3540
(dp3541
g74
(dp3542
g82
I4
ssg83
Nsg76
(lp3543
g69
(g85
g71
NtRp3544
(dp3545
g74
(dp3546
sg83
g3540
sg76
(lp3547
g69
(g90
g71
NtRp3548
(dp3549
g74
(dp3550
g94
g95
ssg83
g3544
sg76
(lp3551
S'Cache-Control'
p3552
asbag69
(g90
g71
NtRp3553
(dp3554
g74
(dp3555
g101
g102
ssg83
g3544
sg76
(lp3556
S':'
asbag69
(g90
g71
NtRp3557
(dp3558
g74
(dp3559
sg83
g3544
sg76
(lp3560
g69
(g70
g71
NtRp3561
(dp3562
g74
(dp3563
g82
I4
ssg83
g3557
sg76
(lp3564
S'no-store, no-cache, must-revalidate, post-check=0, pre-check=0'
p3565
asbasbasbag69
(g85
g71
NtRp3566
(dp3567
g74
(dp3568
sg83
g3540
sg76
(lp3569
g69
(g90
g71
NtRp3570
(dp3571
g74
(dp3572
g94
g95
ssg83
g3566
sg76
(lp3573
S'Content-Type'
p3574
asbag69
(g90
g71
NtRp3575
(dp3576
g74
(dp3577
g101
g102
ssg83
g3566
sg76
(lp3578
S':'
asbag69
(g90
g71
NtRp3579
(dp3580
g74
(dp3581
sg83
g3566
sg76
(lp3582
g69
(g70
g71
NtRp3583
(dp3584
g74
(dp3585
g82
I4
ssg83
g3579
sg76
(lp3586
S'text/html; charset=utf-8'
p3587
asbasbasbag69
(g85
g71
NtRp3588
(dp3589
g74
(dp3590
sg83
g3540
sg76
(lp3591
g69
(g90
g71
NtRp3592
(dp3593
g74
(dp3594
g94
g95
ssg83
g3588
sg76
(lp3595
S'Expires'
p3596
asbag69
(g90
g71
NtRp3597
(dp3598
g74
(dp3599
g101
g102
ssg83
g3588
sg76
(lp3600
S':'
asbag69
(g90
g71
NtRp3601
(dp3602
g74
(dp3603
sg83
g3588
sg76
(lp3604
g69
(g70
g71
NtRp3605
(dp3606
g74
(dp3607
g82
I4
ssg83
g3601
sg76
(lp3608
S'Tue, 22 May 2012 01:47:30 GMT'
p3609
asbasbasbag69
(g85
g71
NtRp3610
(dp3611
g74
(dp3612
sg83
g3540
sg76
(lp3613
g69
(g90
g71
NtRp3614
(dp3615
g74
(dp3616
g94
g95
ssg83
g3610
sg76
(lp3617
S'Pragma'
p3618
asbag69
(g90
g71
NtRp3619
(dp3620
g74
(dp3621
g101
g102
ssg83
g3610
sg76
(lp3622
S':'
asbag69
(g90
g71
NtRp3623
(dp3624
g74
(dp3625
sg83
g3610
sg76
(lp3626
g69
(g70
g71
NtRp3627
(dp3628
g74
(dp3629
g82
I4
ssg83
g3623
sg76
(lp3630
S'no-cache'
p3631
asbasbasbag69
(g85
g71
NtRp3632
(dp3633
g74
(dp3634
sg83
g3540
sg76
(lp3635
g69
(g90
g71
NtRp3636
(dp3637
g74
(dp3638
g94
g95
ssg83
g3632
sg76
(lp3639
S'X-Powered-By'
p3640
asbag69
(g90
g71
NtRp3641
(dp3642
g74
(dp3643
g101
g102
ssg83
g3632
sg76
(lp3644
S':'
asbag69
(g90
g71
NtRp3645
(dp3646
g74
(dp3647
sg83
g3632
sg76
(lp3648
g69
(g70
g71
NtRp3649
(dp3650
g74
(dp3651
g82
I4
ssg83
g3645
sg76
(lp3652
S'web2py'
p3653
asbasbasbasbasbasbasbag69
(g85
g71
NtRp3654
(dp3655
g74
(dp3656
sg83
g3151
sg76
(lp3657
g69
(g90
g71
NtRp3658
(dp3659
g74
(dp3660
g94
g95
ssg83
g3654
sg76
(lp3661
S'menu'
p3662
asbag69
(g90
g71
NtRp3663
(dp3664
g74
(dp3665
g101
g102
ssg83
g3654
sg76
(lp3666
S':'
asbag69
(g90
g71
NtRp3667
(dp3668
g74
(dp3669
sg83
g3654
sg76
(lp3670
g69
(g70
g71
NtRp3671
(dp3672
g74
(dp3673
g82
I5
ssg83
g3667
sg76
(lp3674
g69
(g78
g71
NtRp3675
(dp3676
g74
(dp3677
g82
I4
ssg83
Nsg76
(lp3678
g69
(g85
g71
NtRp3679
(dp3680
g74
(dp3681
sg83
g3675
sg76
(lp3682
g69
(g90
g71
NtRp3683
(dp3684
g74
(dp3685
sg83
g3679
sg76
(lp3686
g69
(g70
g71
NtRp3687
(dp3688
g74
(dp3689
g82
I4
ssg83
g3683
sg76
(lp3690
g69
(g78
g71
NtRp3691
(dp3692
g74
(dp3693
g82
I3
ssg83
Nsg76
(lp3694
g69
(g85
g71
NtRp3695
(dp3696
g74
(dp3697
sg83
g3691
sg76
(lp3698
g69
(g90
g71
NtRp3699
(dp3700
g74
(dp3701
sg83
g3695
sg76
(lp3702
g69
(g70
g71
NtRp3703
(dp3704
g74
(dp3705
g82
I3
ssg83
g3699
sg76
(lp3706
cgluon.languages
lazyT_unpickle
p3707
(S't\x05\x00\x00\x00Votes'
tRp3708
asbasbasbag69
(g85
g71
NtRp3709
(dp3710
g74
(dp3711
sg83
g3691
sg76
(lp3712
g69
(g90
g71
NtRp3713
(dp3714
g74
(dp3715
sg83
g3709
sg76
(lp3716
g69
(g70
g71
NtRp3717
(dp3718
g74
(dp3719
g82
I3
ssg83
g3713
sg76
(lp3720
g112
asbasbasbag69
(g85
g71
NtRp3721
(dp3722
g74
(dp3723
sg83
g3691
sg76
(lp3724
g69
(g90
g71
NtRp3725
(dp3726
g74
(dp3727
sg83
g3721
sg76
(lp3728
g69
(g70
g71
NtRp3729
(dp3730
g74
(dp3731
g82
I3
ssg83
g3725
sg76
(lp3732
S'/bigvotes/default/index'
p3733
asbasbasbag69
(g85
g71
NtRp3734
(dp3735
g74
(dp3736
sg83
g3691
sg76
(lp3737
g69
(g90
g71
NtRp3738
(dp3739
g74
(dp3740
sg83
g3734
sg76
(lp3741
g69
(g70
g71
NtRp3742
(dp3743
g74
(dp3744
g82
I3
ssg83
g3738
sg76
(lp3745
g69
(g78
g71
NtRp3746
(dp3747
g74
(dp3748
g82
I2
ssg83
Nsg76
(lp3749
sbasbasbasbasbasbasbasbag69
(g85
g71
NtRp3750
(dp3751
g74
(dp3752
sg83
g3675
sg76
(lp3753
g69
(g90
g71
NtRp3754
(dp3755
g74
(dp3756
sg83
g3750
sg76
(lp3757
g69
(g70
g71
NtRp3758
(dp3759
g74
(dp3760
g82
I4
ssg83
g3754
sg76
(lp3761
g69
(g78
g71
NtRp3762
(dp3763
g74
(dp3764
g82
I3
ssg83
Nsg76
(lp3765
g69
(g85
g71
NtRp3766
(dp3767
g74
(dp3768
sg83
g3762
sg76
(lp3769
g69
(g90
g71
NtRp3770
(dp3771
g74
(dp3772
sg83
g3766
sg76
(lp3773
g69
(g70
g71
NtRp3774
(dp3775
g74
(dp3776
g82
I3
ssg83
g3770
sg76
(lp3777
g3707
(S't\x07\x00\x00\x00Members'
tRp3778
asbasbasbag69
(g85
g71
NtRp3779
(dp3780
g74
(dp3781
sg83
g3762
sg76
(lp3782
g69
(g90
g71
NtRp3783
(dp3784
g74
(dp3785
sg83
g3779
sg76
(lp3786
g69
(g70
g71
NtRp3787
(dp3788
g74
(dp3789
g82
I3
ssg83
g3783
sg76
(lp3790
g112
asbasbasbag69
(g85
g71
NtRp3791
(dp3792
g74
(dp3793
sg83
g3762
sg76
(lp3794
g69
(g90
g71
NtRp3795
(dp3796
g74
(dp3797
sg83
g3791
sg76
(lp3798
g69
(g70
g71
NtRp3799
(dp3800
g74
(dp3801
g82
I3
ssg83
g3795
sg76
(lp3802
S'/bigvotes/member/index'
p3803
asbasbasbag69
(g85
g71
NtRp3804
(dp3805
g74
(dp3806
sg83
g3762
sg76
(lp3807
g69
(g90
g71
NtRp3808
(dp3809
g74
(dp3810
sg83
g3804
sg76
(lp3811
g69
(g70
g71
NtRp3812
(dp3813
g74
(dp3814
g82
I3
ssg83
g3808
sg76
(lp3815
g69
(g78
g71
NtRp3816
(dp3817
g74
(dp3818
g82
I2
ssg83
Nsg76
(lp3819
sbasbasbasbasbasbasbasbag69
(g85
g71
NtRp3820
(dp3821
g74
(dp3822
sg83
g3675
sg76
(lp3823
g69
(g90
g71
NtRp3824
(dp3825
g74
(dp3826
sg83
g3820
sg76
(lp3827
g69
(g70
g71
NtRp3828
(dp3829
g74
(dp3830
g82
I4
ssg83
g3824
sg76
(lp3831
g69
(g78
g71
NtRp3832
(dp3833
g74
(dp3834
g82
I3
ssg83
Nsg76
(lp3835
g69
(g85
g71
NtRp3836
(dp3837
g74
(dp3838
sg83
g3832
sg76
(lp3839
g69
(g90
g71
NtRp3840
(dp3841
g74
(dp3842
sg83
g3836
sg76
(lp3843
g69
(g70
g71
NtRp3844
(dp3845
g74
(dp3846
g82
I3
ssg83
g3840
sg76
(lp3847
g3707
(S's\x12\x00\x00\x00Members Eliminated'
tRp3848
asbasbasbag69
(g85
g71
NtRp3849
(dp3850
g74
(dp3851
sg83
g3832
sg76
(lp3852
g69
(g90
g71
NtRp3853
(dp3854
g74
(dp3855
sg83
g3849
sg76
(lp3856
g69
(g70
g71
NtRp3857
(dp3858
g74
(dp3859
g82
I3
ssg83
g3853
sg76
(lp3860
g112
asbasbasbag69
(g85
g71
NtRp3861
(dp3862
g74
(dp3863
sg83
g3832
sg76
(lp3864
g69
(g90
g71
NtRp3865
(dp3866
g74
(dp3867
sg83
g3861
sg76
(lp3868
g69
(g70
g71
NtRp3869
(dp3870
g74
(dp3871
g82
I3
ssg83
g3865
sg76
(lp3872
S'/bigvotes/member/eliminated'
p3873
asbasbasbag69
(g85
g71
NtRp3874
(dp3875
g74
(dp3876
sg83
g3832
sg76
(lp3877
g69
(g90
g71
NtRp3878
(dp3879
g74
(dp3880
sg83
g3874
sg76
(lp3881
g69
(g70
g71
NtRp3882
(dp3883
g74
(dp3884
g82
I3
ssg83
g3878
sg76
(lp3885
g69
(g78
g71
NtRp3886
(dp3887
g74
(dp3888
g82
I2
ssg83
Nsg76
(lp3889
sbasbasbasbasbasbasbasbasbasbasbasbag69
(g85
g71
NtRp3890
(dp3891
g74
(dp3892
sg83
g3151
sg76
(lp3893
g69
(g90
g71
NtRp3894
(dp3895
g74
(dp3896
g94
g95
ssg83
g3890
sg76
(lp3897
S'meta'
p3898
asbag69
(g90
g71
NtRp3899
(dp3900
g74
(dp3901
g101
g102
ssg83
g3890
sg76
(lp3902
S':'
asbag69
(g90
g71
NtRp3903
(dp3904
g74
(dp3905
sg83
g3890
sg76
(lp3906
g69
(g70
g71
NtRp3907
(dp3908
g74
(dp3909
g82
I5
ssg83
g3903
sg76
(lp3910
g69
(g78
g71
NtRp3911
(dp3912
g74
(dp3913
g82
I4
ssg83
Nsg76
(lp3914
g69
(g85
g71
NtRp3915
(dp3916
g74
(dp3917
sg83
g3911
sg76
(lp3918
g69
(g90
g71
NtRp3919
(dp3920
g74
(dp3921
g94
g95
ssg83
g3915
sg76
(lp3922
S'author'
p3923
asbag69
(g90
g71
NtRp3924
(dp3925
g74
(dp3926
g101
g102
ssg83
g3915
sg76
(lp3927
S':'
asbag69
(g90
g71
NtRp3928
(dp3929
g74
(dp3930
sg83
g3915
sg76
(lp3931
g69
(g70
g71
NtRp3932
(dp3933
g74
(dp3934
g82
I4
ssg83
g3928
sg76
(lp3935
S'Kaique da Silva <kaique.developer@gmail.com>'
p3936
asbasbasbag69
(g85
g71
NtRp3937
(dp3938
g74
(dp3939
sg83
g3911
sg76
(lp3940
g69
(g90
g71
NtRp3941
(dp3942
g74
(dp3943
g94
g95
ssg83
g3937
sg76
(lp3944
S'copyright'
p3945
asbag69
(g90
g71
NtRp3946
(dp3947
g74
(dp3948
g101
g102
ssg83
g3937
sg76
(lp3949
S':'
asbag69
(g90
g71
NtRp3950
(dp3951
g74
(dp3952
sg83
g3937
sg76
(lp3953
g69
(g70
g71
NtRp3954
(dp3955
g74
(dp3956
g82
I4
ssg83
g3950
sg76
(lp3957
S'Copyright 2012'
p3958
asbasbasbag69
(g85
g71
NtRp3959
(dp3960
g74
(dp3961
sg83
g3911
sg76
(lp3962
g69
(g90
g71
NtRp3963
(dp3964
g74
(dp3965
g94
g95
ssg83
g3959
sg76
(lp3966
S'description'
p3967
asbag69
(g90
g71
NtRp3968
(dp3969
g74
(dp3970
g101
g102
ssg83
g3959
sg76
(lp3971
S':'
asbag69
(g90
g71
NtRp3972
(dp3973
g74
(dp3974
sg83
g3959
sg76
(lp3975
g69
(g70
g71
NtRp3976
(dp3977
g74
(dp3978
g82
I4
ssg83
g3972
sg76
(lp3979
S'Challenge app'
p3980
asbasbasbag69
(g85
g71
NtRp3981
(dp3982
g74
(dp3983
sg83
g3911
sg76
(lp3984
g69
(g90
g71
NtRp3985
(dp3986
g74
(dp3987
g94
g95
ssg83
g3981
sg76
(lp3988
S'generator'
p3989
asbag69
(g90
g71
NtRp3990
(dp3991
g74
(dp3992
g101
g102
ssg83
g3981
sg76
(lp3993
S':'
asbag69
(g90
g71
NtRp3994
(dp3995
g74
(dp3996
sg83
g3981
sg76
(lp3997
g69
(g70
g71
NtRp3998
(dp3999
g74
(dp4000
g82
I4
ssg83
g3994
sg76
(lp4001
S'Web2py Web Framework'
p4002
asbasbasbag69
(g85
g71
NtRp4003
(dp4004
g74
(dp4005
sg83
g3911
sg76
(lp4006
g69
(g90
g71
NtRp4007
(dp4008
g74
(dp4009
g94
g95
ssg83
g4003
sg76
(lp4010
S'keywords'
p4011
asbag69
(g90
g71
NtRp4012
(dp4013
g74
(dp4014
g101
g102
ssg83
g4003
sg76
(lp4015
S':'
asbag69
(g90
g71
NtRp4016
(dp4017
g74
(dp4018
sg83
g4003
sg76
(lp4019
g69
(g70
g71
NtRp4020
(dp4021
g74
(dp4022
g82
I4
ssg83
g4016
sg76
(lp4023
S'BBB, votes, challenge'
p4024
asbasbasbasbasbasbasbag69
(g85
g71
NtRp4025
(dp4026
g74
(dp4027
sg83
g3151
sg76
(lp4028
g69
(g90
g71
NtRp4029
(dp4030
g74
(dp4031
g94
g95
ssg83
g4025
sg76
(lp4032
S'postprocessing'
p4033
asbag69
(g90
g71
NtRp4034
(dp4035
g74
(dp4036
g101
g102
ssg83
g4025
sg76
(lp4037
S':'
asbag69
(g90
g71
NtRp4038
(dp4039
g74
(dp4040
sg83
g4025
sg76
(lp4041
g69
(g70
g71
NtRp4042
(dp4043
g74
(dp4044
g82
I5
ssg83
g4038
sg76
(lp4045
g69
(g78
g71
NtRp4046
(dp4047
g74
(dp4048
g82
I4
ssg83
Nsg76
(lp4049
sbasbasbasbag69
(g85
g71
NtRp4050
(dp4051
g74
(dp4052
sg83
g3151
sg76
(lp4053
g69
(g90
g71
NtRp4054
(dp4055
g74
(dp4056
g94
g95
ssg83
g4050
sg76
(lp4057
S'session_file'
p4058
asbag69
(g90
g71
NtRp4059
(dp4060
g74
(dp4061
g101
g102
ssg83
g4050
sg76
(lp4062
S':'
asbag69
(g90
g71
NtRp4063
(dp4064
g74
(dp4065
sg83
g4050
sg76
(lp4066
g69
(g70
g71
NtRp4067
(dp4068
g74
(dp4069
g82
I5
ssg83
g4063
sg76
(lp4070
S"<open file '/home/kaique/Projects/web/big-votes/web2py/applications/bigvotes/sessions/127.0.0.1-72286364-99c3-4aae-95dc-f33a83b4d6f1', mode 'rb+' at 0xa10ae90>"
p4071
asbasbasbag69
(g85
g71
NtRp4072
(dp4073
g74
(dp4074
sg83
g3151
sg76
(lp4075
g69
(g90
g71
NtRp4076
(dp4077
g74
(dp4078
g94
g95
ssg83
g4072
sg76
(lp4079
S'session_filename'
p4080
asbag69
(g90
g71
NtRp4081
(dp4082
g74
(dp4083
g101
g102
ssg83
g4072
sg76
(lp4084
S':'
asbag69
(g90
g71
NtRp4085
(dp4086
g74
(dp4087
sg83
g4072
sg76
(lp4088
g69
(g70
g71
NtRp4089
(dp4090
g74
(dp4091
g82
I5
ssg83
g4085
sg76
(lp4092
S'/home/kaique/Projects/web/big-votes/web2py/applications/bigvotes/sessions/127.0.0.1-72286364-99c3-4aae-95dc-f33a83b4d6f1'
p4093
asbasbasbag69
(g85
g71
NtRp4094
(dp4095
g74
(dp4096
sg83
g3151
sg76
(lp4097
g69
(g90
g71
NtRp4098
(dp4099
g74
(dp4100
g94
g95
ssg83
g4094
sg76
(lp4101
S'session_id'
p4102
asbag69
(g90
g71
NtRp4103
(dp4104
g74
(dp4105
g101
g102
ssg83
g4094
sg76
(lp4106
S':'
asbag69
(g90
g71
NtRp4107
(dp4108
g74
(dp4109
sg83
g4094
sg76
(lp4110
g69
(g70
g71
NtRp4111
(dp4112
g74
(dp4113
g82
I5
ssg83
g4107
sg76
(lp4114
S'127.0.0.1-72286364-99c3-4aae-95dc-f33a83b4d6f1'
p4115
asbasbasbag69
(g85
g71
NtRp4116
(dp4117
g74
(dp4118
sg83
g3151
sg76
(lp4119
g69
(g90
g71
NtRp4120
(dp4121
g74
(dp4122
g94
g95
ssg83
g4116
sg76
(lp4123
S'session_id_name'
p4124
asbag69
(g90
g71
NtRp4125
(dp4126
g74
(dp4127
g101
g102
ssg83
g4116
sg76
(lp4128
S':'
asbag69
(g90
g71
NtRp4129
(dp4130
g74
(dp4131
sg83
g4116
sg76
(lp4132
g69
(g70
g71
NtRp4133
(dp4134
g74
(dp4135
g82
I5
ssg83
g4129
sg76
(lp4136
g3208
asbasbasbag69
(g85
g71
NtRp4137
(dp4138
g74
(dp4139
sg83
g3151
sg76
(lp4140
g69
(g90
g71
NtRp4141
(dp4142
g74
(dp4143
g94
g95
ssg83
g4137
sg76
(lp4144
S'session_locked'
p4145
asbag69
(g90
g71
NtRp4146
(dp4147
g74
(dp4148
g101
g102
ssg83
g4137
sg76
(lp4149
S':'
asbag69
(g90
g71
NtRp4150
(dp4151
g74
(dp4152
sg83
g4137
sg76
(lp4153
g69
(g70
g71
NtRp4154
(dp4155
g74
(dp4156
g82
I5
ssg83
g4150
sg76
(lp4157
g1710
asbasbasbag69
(g85
g71
NtRp4158
(dp4159
g74
(dp4160
sg83
g3151
sg76
(lp4161
g69
(g90
g71
NtRp4162
(dp4163
g74
(dp4164
g94
g95
ssg83
g4158
sg76
(lp4165
S'session_new'
p4166
asbag69
(g90
g71
NtRp4167
(dp4168
g74
(dp4169
g101
g102
ssg83
g4158
sg76
(lp4170
S':'
asbag69
(g90
g71
NtRp4171
(dp4172
g74
(dp4173
sg83
g4158
sg76
(lp4174
g69
(g70
g71
NtRp4175
(dp4176
g74
(dp4177
g82
I5
ssg83
g4171
sg76
(lp4178
g112
asbasbasbag69
(g85
g71
NtRp4179
(dp4180
g74
(dp4181
sg83
g3151
sg76
(lp4182
g69
(g90
g71
NtRp4183
(dp4184
g74
(dp4185
g94
g95
ssg83
g4179
sg76
(lp4186
S'status'
p4187
asbag69
(g90
g71
NtRp4188
(dp4189
g74
(dp4190
g101
g102
ssg83
g4179
sg76
(lp4191
S':'
asbag69
(g90
g71
NtRp4192
(dp4193
g74
(dp4194
sg83
g4179
sg76
(lp4195
g69
(g70
g71
NtRp4196
(dp4197
g74
(dp4198
g82
I5
ssg83
g4192
sg76
(lp4199
S'200'
p4200
asbasbasbag69
(g85
g71
NtRp4201
(dp4202
g74
(dp4203
sg83
g3151
sg76
(lp4204
g69
(g90
g71
NtRp4205
(dp4206
g74
(dp4207
g94
g95
ssg83
g4201
sg76
(lp4208
S'subtitle'
p4209
asbag69
(g90
g71
NtRp4210
(dp4211
g74
(dp4212
g101
g102
ssg83
g4201
sg76
(lp4213
S':'
asbag69
(g90
g71
NtRp4214
(dp4215
g74
(dp4216
sg83
g4201
sg76
(lp4217
g69
(g70
g71
NtRp4218
(dp4219
g74
(dp4220
g82
I5
ssg83
g4214
sg76
(lp4221
S'A simple chanllenge'
p4222
asbasbasbag69
(g85
g71
NtRp4223
(dp4224
g74
(dp4225
sg83
g3151
sg76
(lp4226
g69
(g90
g71
NtRp4227
(dp4228
g74
(dp4229
g94
g95
ssg83
g4223
sg76
(lp4230
S'title'
p4231
asbag69
(g90
g71
NtRp4232
(dp4233
g74
(dp4234
g101
g102
ssg83
g4223
sg76
(lp4235
S':'
asbag69
(g90
g71
NtRp4236
(dp4237
g74
(dp4238
sg83
g4223
sg76
(lp4239
g69
(g70
g71
NtRp4240
(dp4241
g74
(dp4242
g82
I5
ssg83
g4236
sg76
(lp4243
S'Big Votes'
p4244
asbasbasbag69
(g85
g71
NtRp4245
(dp4246
g74
(dp4247
sg83
g3151
sg76
(lp4248
g69
(g90
g71
NtRp4249
(dp4250
g74
(dp4251
g94
g95
ssg83
g4245
sg76
(lp4252
g2374
asbag69
(g90
g71
NtRp4253
(dp4254
g74
(dp4255
g101
g102
ssg83
g4245
sg76
(lp4256
S':'
asbag69
(g90
g71
NtRp4257
(dp4258
g74
(dp4259
sg83
g4245
sg76
(lp4260
g69
(g70
g71
NtRp4261
(dp4262
g74
(dp4263
g82
I5
ssg83
g4257
sg76
(lp4264
g2387
asbasbasbag69
(g85
g71
NtRp4265
(dp4266
g74
(dp4267
sg83
g3151
sg76
(lp4268
g69
(g90
g71
NtRp4269
(dp4270
g74
(dp4271
g94
g95
ssg83
g4265
sg76
(lp4272
S'view'
p4273
asbag69
(g90
g71
NtRp4274
(dp4275
g74
(dp4276
g101
g102
ssg83
g4265
sg76
(lp4277
S':'
asbag69
(g90
g71
NtRp4278
(dp4279
g74
(dp4280
sg83
g4265
sg76
(lp4281
g69
(g70
g71
NtRp4282
(dp4283
g74
(dp4284
g82
I5
ssg83
g4278
sg76
(lp4285
S'default/index.html'
p4286
asbasbasbasbasbsS'locals'
p4287
(dp4288
g4
S"'/home/kaique/Projects/web/big-votes/web2py/applications/bigvotes/views/default/index.html'"
p4289
sg6
S'r"response.write(\'<!DOCTYPE html>\\n<!-- paulirish....ponse.write(\'\\n</body>\\n</html>\\n\', escape=False)"'
p4290
sssS'traceback'
p4291
S'Traceback (most recent call last):\n  File "/home/kaique/Projects/web/big-votes/web2py/gluon/restricted.py", line 204, in restricted\n    ccode = compile2(code,layer)\n  File "/home/kaique/Projects/web/big-votes/web2py/gluon/restricted.py", line 189, in compile2\n    return compile(code.rstrip().replace(\'\\r\\n\',\'\\n\')+\'\\n\', layer, \'exec\')\n  File "/home/kaique/Projects/web/big-votes/web2py/applications/bigvotes/views/default/index.html", line 91\n    \nSyntaxError: keyword can\'t be an expression\n'
p4292
s.